SF:/mnt/d/prj/intent-engine/src/cli_handlers/dashboard.rs
FN:106,_RNCNCNvNtNtCsjp9E11WtBq9_13intent_engine12cli_handlers9dashboard21check_mcp_connections00B9_
FN:146,_RNCNCNvNtNtCsjp9E11WtBq9_13intent_engine12cli_handlers9dashboard24handle_dashboard_command00B9_
FN:306,_RNCNCNvNtNtCsjp9E11WtBq9_13intent_engine12cli_handlers9dashboard24handle_dashboard_command0s0_0B9_
FN:319,_RNCNCNvNtNtCsjp9E11WtBq9_13intent_engine12cli_handlers9dashboard24handle_dashboard_command0s1_0B9_
FN:302,_RNCNCNvNtNtCsjp9E11WtBq9_13intent_engine12cli_handlers9dashboard24handle_dashboard_command0s_0B9_
FN:66,_RNCNvNtNtCsjp9E11WtBq9_13intent_engine12cli_handlers9dashboard21check_mcp_connections0B7_
FN:8,_RNCNvNtNtCsjp9E11WtBq9_13intent_engine12cli_handlers9dashboard22check_dashboard_health0B7_
FN:37,_RNCNvNtNtCsjp9E11WtBq9_13intent_engine12cli_handlers9dashboard22check_dashboard_status0B7_
FN:137,_RNCNvNtNtCsjp9E11WtBq9_13intent_engine12cli_handlers9dashboard24handle_dashboard_command0B7_
FN:66,_RNvNtNtCsjp9E11WtBq9_13intent_engine12cli_handlers9dashboard21check_mcp_connections
FN:8,_RNvNtNtCsjp9E11WtBq9_13intent_engine12cli_handlers9dashboard22check_dashboard_health
FN:37,_RNvNtNtCsjp9E11WtBq9_13intent_engine12cli_handlers9dashboard22check_dashboard_status
FN:137,_RNvNtNtCsjp9E11WtBq9_13intent_engine12cli_handlers9dashboard24handle_dashboard_command
FN:137,_RNvNtNtCs86Lp2I5pN1o_13intent_engine12cli_handlers9dashboard24handle_dashboard_command
FN:106,_RNCNCNvNtNtCs86Lp2I5pN1o_13intent_engine12cli_handlers9dashboard21check_mcp_connections00B9_
FN:146,_RNCNCNvNtNtCs86Lp2I5pN1o_13intent_engine12cli_handlers9dashboard24handle_dashboard_command00B9_
FN:306,_RNCNCNvNtNtCs86Lp2I5pN1o_13intent_engine12cli_handlers9dashboard24handle_dashboard_command0s0_0B9_
FN:319,_RNCNCNvNtNtCs86Lp2I5pN1o_13intent_engine12cli_handlers9dashboard24handle_dashboard_command0s1_0B9_
FN:302,_RNCNCNvNtNtCs86Lp2I5pN1o_13intent_engine12cli_handlers9dashboard24handle_dashboard_command0s_0B9_
FN:66,_RNCNvNtNtCs86Lp2I5pN1o_13intent_engine12cli_handlers9dashboard21check_mcp_connections0B7_
FN:8,_RNCNvNtNtCs86Lp2I5pN1o_13intent_engine12cli_handlers9dashboard22check_dashboard_health0B7_
FN:37,_RNCNvNtNtCs86Lp2I5pN1o_13intent_engine12cli_handlers9dashboard22check_dashboard_status0B7_
FN:137,_RNCNvNtNtCs86Lp2I5pN1o_13intent_engine12cli_handlers9dashboard24handle_dashboard_command0B7_
FN:66,_RNvNtNtCs86Lp2I5pN1o_13intent_engine12cli_handlers9dashboard21check_mcp_connections
FN:8,_RNvNtNtCs86Lp2I5pN1o_13intent_engine12cli_handlers9dashboard22check_dashboard_health
FN:37,_RNvNtNtCs86Lp2I5pN1o_13intent_engine12cli_handlers9dashboard22check_dashboard_status
FN:414,_RNvNtNtNtCs86Lp2I5pN1o_13intent_engine12cli_handlers9dashboard5testss_28test_dashboard_port_constant
FN:375,_RNvNtNtNtCs86Lp2I5pN1o_13intent_engine12cli_handlers9dashboard5testss_39test_check_dashboard_status_not_running
FN:421,_RNvNtNtNtCs86Lp2I5pN1o_13intent_engine12cli_handlers9dashboard5testss_40test_check_dashboard_health_invalid_port
FN:396,_RNvNtNtNtCs86Lp2I5pN1o_13intent_engine12cli_handlers9dashboard5testss_48test_check_mcp_connections_dashboard_not_running
FN:430,_RNvNtNtNtCs86Lp2I5pN1o_13intent_engine12cli_handlers9dashboard5testss_52test_check_dashboard_health_default_port_not_running
FN:375,_RNCNvNtNtNtCs86Lp2I5pN1o_13intent_engine12cli_handlers9dashboard5testss_39test_check_dashboard_status_not_running0B9_
FN:421,_RNCNvNtNtNtCs86Lp2I5pN1o_13intent_engine12cli_handlers9dashboard5testss_40test_check_dashboard_health_invalid_port0B9_
FN:396,_RNCNvNtNtNtCs86Lp2I5pN1o_13intent_engine12cli_handlers9dashboard5testss_48test_check_mcp_connections_dashboard_not_running0B9_
FN:430,_RNCNvNtNtNtCs86Lp2I5pN1o_13intent_engine12cli_handlers9dashboard5testss_52test_check_dashboard_health_default_port_not_running0B9_
FNDA:0,_RNCNCNvNtNtCsjp9E11WtBq9_13intent_engine12cli_handlers9dashboard21check_mcp_connections00B9_
FNDA:0,_RNCNCNvNtNtCsjp9E11WtBq9_13intent_engine12cli_handlers9dashboard24handle_dashboard_command00B9_
FNDA:0,_RNCNCNvNtNtCsjp9E11WtBq9_13intent_engine12cli_handlers9dashboard24handle_dashboard_command0s0_0B9_
FNDA:0,_RNCNCNvNtNtCsjp9E11WtBq9_13intent_engine12cli_handlers9dashboard24handle_dashboard_command0s1_0B9_
FNDA:0,_RNCNCNvNtNtCsjp9E11WtBq9_13intent_engine12cli_handlers9dashboard24handle_dashboard_command0s_0B9_
FNDA:0,_RNCNvNtNtCsjp9E11WtBq9_13intent_engine12cli_handlers9dashboard21check_mcp_connections0B7_
FNDA:0,_RNCNvNtNtCsjp9E11WtBq9_13intent_engine12cli_handlers9dashboard22check_dashboard_health0B7_
FNDA:0,_RNCNvNtNtCsjp9E11WtBq9_13intent_engine12cli_handlers9dashboard22check_dashboard_status0B7_
FNDA:0,_RNCNvNtNtCsjp9E11WtBq9_13intent_engine12cli_handlers9dashboard24handle_dashboard_command0B7_
FNDA:0,_RNvNtNtCsjp9E11WtBq9_13intent_engine12cli_handlers9dashboard21check_mcp_connections
FNDA:0,_RNvNtNtCsjp9E11WtBq9_13intent_engine12cli_handlers9dashboard22check_dashboard_health
FNDA:0,_RNvNtNtCsjp9E11WtBq9_13intent_engine12cli_handlers9dashboard22check_dashboard_status
FNDA:0,_RNvNtNtCsjp9E11WtBq9_13intent_engine12cli_handlers9dashboard24handle_dashboard_command
FNDA:0,_RNvNtNtCs86Lp2I5pN1o_13intent_engine12cli_handlers9dashboard24handle_dashboard_command
FNDA:0,_RNCNCNvNtNtCs86Lp2I5pN1o_13intent_engine12cli_handlers9dashboard21check_mcp_connections00B9_
FNDA:0,_RNCNCNvNtNtCs86Lp2I5pN1o_13intent_engine12cli_handlers9dashboard24handle_dashboard_command00B9_
FNDA:0,_RNCNCNvNtNtCs86Lp2I5pN1o_13intent_engine12cli_handlers9dashboard24handle_dashboard_command0s0_0B9_
FNDA:0,_RNCNCNvNtNtCs86Lp2I5pN1o_13intent_engine12cli_handlers9dashboard24handle_dashboard_command0s1_0B9_
FNDA:0,_RNCNCNvNtNtCs86Lp2I5pN1o_13intent_engine12cli_handlers9dashboard24handle_dashboard_command0s_0B9_
FNDA:0,_RNCNvNtNtCs86Lp2I5pN1o_13intent_engine12cli_handlers9dashboard21check_mcp_connections0B7_
FNDA:2,_RNCNvNtNtCs86Lp2I5pN1o_13intent_engine12cli_handlers9dashboard22check_dashboard_health0B7_
FNDA:0,_RNCNvNtNtCs86Lp2I5pN1o_13intent_engine12cli_handlers9dashboard22check_dashboard_status0B7_
FNDA:0,_RNCNvNtNtCs86Lp2I5pN1o_13intent_engine12cli_handlers9dashboard24handle_dashboard_command0B7_
FNDA:0,_RNvNtNtCs86Lp2I5pN1o_13intent_engine12cli_handlers9dashboard21check_mcp_connections
FNDA:2,_RNvNtNtCs86Lp2I5pN1o_13intent_engine12cli_handlers9dashboard22check_dashboard_health
FNDA:0,_RNvNtNtCs86Lp2I5pN1o_13intent_engine12cli_handlers9dashboard22check_dashboard_status
FNDA:1,_RNvNtNtNtCs86Lp2I5pN1o_13intent_engine12cli_handlers9dashboard5testss_28test_dashboard_port_constant
FNDA:0,_RNvNtNtNtCs86Lp2I5pN1o_13intent_engine12cli_handlers9dashboard5testss_39test_check_dashboard_status_not_running
FNDA:1,_RNvNtNtNtCs86Lp2I5pN1o_13intent_engine12cli_handlers9dashboard5testss_40test_check_dashboard_health_invalid_port
FNDA:0,_RNvNtNtNtCs86Lp2I5pN1o_13intent_engine12cli_handlers9dashboard5testss_48test_check_mcp_connections_dashboard_not_running
FNDA:1,_RNvNtNtNtCs86Lp2I5pN1o_13intent_engine12cli_handlers9dashboard5testss_52test_check_dashboard_health_default_port_not_running
FNDA:0,_RNCNvNtNtNtCs86Lp2I5pN1o_13intent_engine12cli_handlers9dashboard5testss_39test_check_dashboard_status_not_running0B9_
FNDA:1,_RNCNvNtNtNtCs86Lp2I5pN1o_13intent_engine12cli_handlers9dashboard5testss_40test_check_dashboard_health_invalid_port0B9_
FNDA:0,_RNCNvNtNtNtCs86Lp2I5pN1o_13intent_engine12cli_handlers9dashboard5testss_48test_check_mcp_connections_dashboard_not_running0B9_
FNDA:1,_RNCNvNtNtNtCs86Lp2I5pN1o_13intent_engine12cli_handlers9dashboard5testss_52test_check_dashboard_health_default_port_not_running0B9_
FNF:22
FNH:7
DA:8,2
DA:9,2
DA:11,2
DA:12,2
DA:13,2
DA:15,2
DA:16,1
DA:17,1
DA:18,1
DA:20,0
DA:21,0
DA:22,0
DA:24,1
DA:25,1
DA:26,1
DA:29,0
DA:30,0
DA:31,0
DA:34,2
DA:37,0
DA:40,0
DA:42,0
DA:43,0
DA:44,0
DA:45,0
DA:46,0
DA:47,0
DA:48,0
DA:49,0
DA:53,0
DA:54,0
DA:55,0
DA:56,0
DA:57,0
DA:58,0
DA:59,0
DA:63,0
DA:66,0
DA:69,0
DA:70,0
DA:71,0
DA:72,0
DA:73,0
DA:74,0
DA:75,0
DA:76,0
DA:79,0
DA:82,0
DA:83,0
DA:84,0
DA:85,0
DA:87,0
DA:88,0
DA:89,0
DA:90,0
DA:91,0
DA:92,0
DA:93,0
DA:99,0
DA:100,0
DA:101,0
DA:102,0
DA:103,0
DA:104,0
DA:105,0
DA:106,0
DA:107,0
DA:109,0
DA:110,0
DA:111,0
DA:112,0
DA:113,0
DA:114,0
DA:115,0
DA:117,0
DA:122,0
DA:123,0
DA:124,0
DA:125,0
DA:129,0
DA:130,0
DA:131,0
DA:132,0
DA:135,0
DA:137,0
DA:138,0
DA:139,0
DA:141,0
DA:142,0
DA:143,0
DA:144,0
DA:145,0
DA:146,0
DA:147,0
DA:148,0
DA:151,0
DA:154,0
DA:155,0
DA:156,0
DA:157,0
DA:158,0
DA:159,0
DA:162,0
DA:163,0
DA:164,0
DA:165,0
DA:166,0
DA:167,0
DA:172,0
DA:173,0
DA:175,0
DA:176,0
DA:177,0
DA:178,0
DA:179,0
DA:182,0
DA:185,0
DA:186,0
DA:187,0
DA:188,0
DA:189,0
DA:190,0
DA:191,0
DA:192,0
DA:193,0
DA:194,0
DA:197,0
DA:199,0
DA:202,0
DA:203,0
DA:205,0
DA:206,0
DA:207,0
DA:210,0
DA:211,0
DA:212,0
DA:213,0
DA:214,0
DA:215,0
DA:216,0
DA:217,0
DA:218,0
DA:219,0
DA:220,0
DA:221,0
DA:222,0
DA:224,0
DA:227,0
DA:228,0
DA:230,0
DA:231,0
DA:232,0
DA:235,0
DA:237,0
DA:238,0
DA:239,0
DA:240,0
DA:241,0
DA:243,0
DA:244,0
DA:249,0
DA:250,0
DA:251,0
DA:252,0
DA:253,0
DA:254,0
DA:255,0
DA:256,0
DA:257,0
DA:258,0
DA:259,0
DA:260,0
DA:261,0
DA:262,0
DA:263,0
DA:265,0
DA:269,0
DA:272,0
DA:273,0
DA:274,0
DA:275,0
DA:276,0
DA:279,0
DA:280,0
DA:281,0
DA:286,0
DA:287,0
DA:288,0
DA:289,0
DA:290,0
DA:291,0
DA:292,0
DA:293,0
DA:295,0
DA:296,0
DA:297,0
DA:299,0
DA:300,0
DA:301,0
DA:302,0
DA:303,0
DA:304,0
DA:305,0
DA:306,0
DA:307,0
DA:308,0
DA:309,0
DA:311,0
DA:314,0
DA:315,0
DA:319,0
DA:320,0
DA:321,0
DA:324,0
DA:325,0
DA:326,0
DA:327,0
DA:330,0
DA:331,0
DA:332,0
DA:333,0
DA:334,0
DA:335,0
DA:336,0
DA:337,0
DA:340,0
DA:344,0
DA:347,0
DA:348,0
DA:349,0
DA:350,0
DA:351,0
DA:352,0
DA:353,0
DA:355,0
DA:356,0
DA:358,0
DA:359,0
DA:360,0
DA:361,0
DA:363,0
DA:366,0
DA:375,0
DA:378,0
DA:381,0
DA:382,0
DA:385,0
DA:386,0
DA:387,0
DA:388,0
DA:389,0
DA:390,0
DA:391,0
DA:396,0
DA:397,0
DA:400,0
DA:401,0
DA:404,0
DA:405,0
DA:406,0
DA:407,0
DA:408,0
DA:409,0
DA:410,0
DA:414,1
DA:415,1
DA:416,1
DA:421,1
DA:423,1
DA:424,1
DA:425,1
DA:430,1
DA:433,1
DA:438,1
DA:439,1
DA:440,1
DA:441,1
BRF:0
BRH:0
LF:296
LH:32
end_of_record
SF:/mnt/d/prj/intent-engine/src/cli_handlers/other.rs
FN:115,_RNCNCNvNtNtCsjp9E11WtBq9_13intent_engine12cli_handlers5other20handle_event_command00B9_
FN:117,_RNCNCNvNtNtCsjp9E11WtBq9_13intent_engine12cli_handlers5other20handle_event_command0s_0B9_
FN:239,_RNCNCNvNtNtCsjp9E11WtBq9_13intent_engine12cli_handlers5other21handle_doctor_command00B9_
FN:242,_RNCNCNvNtNtCsjp9E11WtBq9_13intent_engine12cli_handlers5other21handle_doctor_command0s_0B9_
FN:339,_RNCNCNvNtNtCsjp9E11WtBq9_13intent_engine12cli_handlers5other22handle_session_restore00B9_
FN:530,_RNCNCNvNtNtCsjp9E11WtBq9_13intent_engine12cli_handlers5other24check_session_start_hooks0_00B9_
FN:376,_RNCNvNtNtCsjp9E11WtBq9_13intent_engine12cli_handlers5other12handle_setup0B7_
FN:269,_RNCNvNtNtCsjp9E11WtBq9_13intent_engine12cli_handlers5other19handle_init_command0B7_
FN:84,_RNCNvNtNtCsjp9E11WtBq9_13intent_engine12cli_handlers5other20handle_event_command0B7_
FN:181,_RNCNvNtNtCsjp9E11WtBq9_13intent_engine12cli_handlers5other21handle_doctor_command0B7_
FN:72,_RNCNvNtNtCsjp9E11WtBq9_13intent_engine12cli_handlers5other21handle_report_command0B7_
FN:152,_RNCNvNtNtCsjp9E11WtBq9_13intent_engine12cli_handlers5other21handle_search_command0B7_
FN:16,_RNCNvNtNtCsjp9E11WtBq9_13intent_engine12cli_handlers5other22handle_current_command0B7_
FN:322,_RNCNvNtNtCsjp9E11WtBq9_13intent_engine12cli_handlers5other22handle_session_restore0B7_
FN:512,_RNCNvNtNtCsjp9E11WtBq9_13intent_engine12cli_handlers5other24check_session_start_hook0B7_
FN:527,_RNCNvNtNtCsjp9E11WtBq9_13intent_engine12cli_handlers5other24check_session_start_hooks0_0B7_
FN:526,_RNCNvNtNtCsjp9E11WtBq9_13intent_engine12cli_handlers5other24check_session_start_hooks_0B7_
FN:371,_RNvNtNtCsjp9E11WtBq9_13intent_engine12cli_handlers5other12handle_setup
FN:269,_RNvNtNtCsjp9E11WtBq9_13intent_engine12cli_handlers5other19handle_init_command
FN:583,_RNvNtNtCsjp9E11WtBq9_13intent_engine12cli_handlers5other19handle_logs_command
FN:84,_RNvNtNtCsjp9E11WtBq9_13intent_engine12cli_handlers5other20handle_event_command
FN:181,_RNvNtNtCsjp9E11WtBq9_13intent_engine12cli_handlers5other21handle_doctor_command
FN:66,_RNvNtNtCsjp9E11WtBq9_13intent_engine12cli_handlers5other21handle_report_command
FN:146,_RNvNtNtCsjp9E11WtBq9_13intent_engine12cli_handlers5other21handle_search_command
FN:13,_RNvNtNtCsjp9E11WtBq9_13intent_engine12cli_handlers5other22handle_current_command
FN:319,_RNvNtNtCsjp9E11WtBq9_13intent_engine12cli_handlers5other22handle_session_restore
FN:488,_RNvNtNtCsjp9E11WtBq9_13intent_engine12cli_handlers5other24check_session_start_hook
FN:371,_RNvNtNtCs86Lp2I5pN1o_13intent_engine12cli_handlers5other12handle_setup
FN:269,_RNvNtNtCs86Lp2I5pN1o_13intent_engine12cli_handlers5other19handle_init_command
FN:583,_RNvNtNtCs86Lp2I5pN1o_13intent_engine12cli_handlers5other19handle_logs_command
FN:84,_RNvNtNtCs86Lp2I5pN1o_13intent_engine12cli_handlers5other20handle_event_command
FN:181,_RNvNtNtCs86Lp2I5pN1o_13intent_engine12cli_handlers5other21handle_doctor_command
FN:66,_RNvNtNtCs86Lp2I5pN1o_13intent_engine12cli_handlers5other21handle_report_command
FN:146,_RNvNtNtCs86Lp2I5pN1o_13intent_engine12cli_handlers5other21handle_search_command
FN:13,_RNvNtNtCs86Lp2I5pN1o_13intent_engine12cli_handlers5other22handle_current_command
FN:319,_RNvNtNtCs86Lp2I5pN1o_13intent_engine12cli_handlers5other22handle_session_restore
FN:488,_RNvNtNtCs86Lp2I5pN1o_13intent_engine12cli_handlers5other24check_session_start_hook
FN:115,_RNCNCNvNtNtCs86Lp2I5pN1o_13intent_engine12cli_handlers5other20handle_event_command00B9_
FN:117,_RNCNCNvNtNtCs86Lp2I5pN1o_13intent_engine12cli_handlers5other20handle_event_command0s_0B9_
FN:239,_RNCNCNvNtNtCs86Lp2I5pN1o_13intent_engine12cli_handlers5other21handle_doctor_command00B9_
FN:242,_RNCNCNvNtNtCs86Lp2I5pN1o_13intent_engine12cli_handlers5other21handle_doctor_command0s_0B9_
FN:339,_RNCNCNvNtNtCs86Lp2I5pN1o_13intent_engine12cli_handlers5other22handle_session_restore00B9_
FN:530,_RNCNCNvNtNtCs86Lp2I5pN1o_13intent_engine12cli_handlers5other24check_session_start_hooks0_00B9_
FN:376,_RNCNvNtNtCs86Lp2I5pN1o_13intent_engine12cli_handlers5other12handle_setup0B7_
FN:269,_RNCNvNtNtCs86Lp2I5pN1o_13intent_engine12cli_handlers5other19handle_init_command0B7_
FN:84,_RNCNvNtNtCs86Lp2I5pN1o_13intent_engine12cli_handlers5other20handle_event_command0B7_
FN:181,_RNCNvNtNtCs86Lp2I5pN1o_13intent_engine12cli_handlers5other21handle_doctor_command0B7_
FN:72,_RNCNvNtNtCs86Lp2I5pN1o_13intent_engine12cli_handlers5other21handle_report_command0B7_
FN:152,_RNCNvNtNtCs86Lp2I5pN1o_13intent_engine12cli_handlers5other21handle_search_command0B7_
FN:16,_RNCNvNtNtCs86Lp2I5pN1o_13intent_engine12cli_handlers5other22handle_current_command0B7_
FN:322,_RNCNvNtNtCs86Lp2I5pN1o_13intent_engine12cli_handlers5other22handle_session_restore0B7_
FN:512,_RNCNvNtNtCs86Lp2I5pN1o_13intent_engine12cli_handlers5other24check_session_start_hook0B7_
FN:527,_RNCNvNtNtCs86Lp2I5pN1o_13intent_engine12cli_handlers5other24check_session_start_hooks0_0B7_
FN:526,_RNCNvNtNtCs86Lp2I5pN1o_13intent_engine12cli_handlers5other24check_session_start_hooks_0B7_
FNDA:0,_RNCNCNvNtNtCsjp9E11WtBq9_13intent_engine12cli_handlers5other20handle_event_command00B9_
FNDA:0,_RNCNCNvNtNtCsjp9E11WtBq9_13intent_engine12cli_handlers5other20handle_event_command0s_0B9_
FNDA:0,_RNCNCNvNtNtCsjp9E11WtBq9_13intent_engine12cli_handlers5other21handle_doctor_command00B9_
FNDA:0,_RNCNCNvNtNtCsjp9E11WtBq9_13intent_engine12cli_handlers5other21handle_doctor_command0s_0B9_
FNDA:0,_RNCNCNvNtNtCsjp9E11WtBq9_13intent_engine12cli_handlers5other22handle_session_restore00B9_
FNDA:0,_RNCNCNvNtNtCsjp9E11WtBq9_13intent_engine12cli_handlers5other24check_session_start_hooks0_00B9_
FNDA:0,_RNCNvNtNtCsjp9E11WtBq9_13intent_engine12cli_handlers5other12handle_setup0B7_
FNDA:0,_RNCNvNtNtCsjp9E11WtBq9_13intent_engine12cli_handlers5other19handle_init_command0B7_
FNDA:0,_RNCNvNtNtCsjp9E11WtBq9_13intent_engine12cli_handlers5other20handle_event_command0B7_
FNDA:0,_RNCNvNtNtCsjp9E11WtBq9_13intent_engine12cli_handlers5other21handle_doctor_command0B7_
FNDA:0,_RNCNvNtNtCsjp9E11WtBq9_13intent_engine12cli_handlers5other21handle_report_command0B7_
FNDA:0,_RNCNvNtNtCsjp9E11WtBq9_13intent_engine12cli_handlers5other21handle_search_command0B7_
FNDA:0,_RNCNvNtNtCsjp9E11WtBq9_13intent_engine12cli_handlers5other22handle_current_command0B7_
FNDA:0,_RNCNvNtNtCsjp9E11WtBq9_13intent_engine12cli_handlers5other22handle_session_restore0B7_
FNDA:0,_RNCNvNtNtCsjp9E11WtBq9_13intent_engine12cli_handlers5other24check_session_start_hook0B7_
FNDA:0,_RNCNvNtNtCsjp9E11WtBq9_13intent_engine12cli_handlers5other24check_session_start_hooks0_0B7_
FNDA:0,_RNCNvNtNtCsjp9E11WtBq9_13intent_engine12cli_handlers5other24check_session_start_hooks_0B7_
FNDA:0,_RNvNtNtCsjp9E11WtBq9_13intent_engine12cli_handlers5other12handle_setup
FNDA:0,_RNvNtNtCsjp9E11WtBq9_13intent_engine12cli_handlers5other19handle_init_command
FNDA:0,_RNvNtNtCsjp9E11WtBq9_13intent_engine12cli_handlers5other19handle_logs_command
FNDA:0,_RNvNtNtCsjp9E11WtBq9_13intent_engine12cli_handlers5other20handle_event_command
FNDA:0,_RNvNtNtCsjp9E11WtBq9_13intent_engine12cli_handlers5other21handle_doctor_command
FNDA:0,_RNvNtNtCsjp9E11WtBq9_13intent_engine12cli_handlers5other21handle_report_command
FNDA:0,_RNvNtNtCsjp9E11WtBq9_13intent_engine12cli_handlers5other21handle_search_command
FNDA:0,_RNvNtNtCsjp9E11WtBq9_13intent_engine12cli_handlers5other22handle_current_command
FNDA:0,_RNvNtNtCsjp9E11WtBq9_13intent_engine12cli_handlers5other22handle_session_restore
FNDA:0,_RNvNtNtCsjp9E11WtBq9_13intent_engine12cli_handlers5other24check_session_start_hook
FNDA:0,_RNvNtNtCs86Lp2I5pN1o_13intent_engine12cli_handlers5other12handle_setup
FNDA:0,_RNvNtNtCs86Lp2I5pN1o_13intent_engine12cli_handlers5other19handle_init_command
FNDA:0,_RNvNtNtCs86Lp2I5pN1o_13intent_engine12cli_handlers5other19handle_logs_command
FNDA:0,_RNvNtNtCs86Lp2I5pN1o_13intent_engine12cli_handlers5other20handle_event_command
FNDA:0,_RNvNtNtCs86Lp2I5pN1o_13intent_engine12cli_handlers5other21handle_doctor_command
FNDA:0,_RNvNtNtCs86Lp2I5pN1o_13intent_engine12cli_handlers5other21handle_report_command
FNDA:0,_RNvNtNtCs86Lp2I5pN1o_13intent_engine12cli_handlers5other21handle_search_command
FNDA:0,_RNvNtNtCs86Lp2I5pN1o_13intent_engine12cli_handlers5other22handle_current_command
FNDA:0,_RNvNtNtCs86Lp2I5pN1o_13intent_engine12cli_handlers5other22handle_session_restore
FNDA:0,_RNvNtNtCs86Lp2I5pN1o_13intent_engine12cli_handlers5other24check_session_start_hook
FNDA:0,_RNCNCNvNtNtCs86Lp2I5pN1o_13intent_engine12cli_handlers5other20handle_event_command00B9_
FNDA:0,_RNCNCNvNtNtCs86Lp2I5pN1o_13intent_engine12cli_handlers5other20handle_event_command0s_0B9_
FNDA:0,_RNCNCNvNtNtCs86Lp2I5pN1o_13intent_engine12cli_handlers5other21handle_doctor_command00B9_
FNDA:0,_RNCNCNvNtNtCs86Lp2I5pN1o_13intent_engine12cli_handlers5other21handle_doctor_command0s_0B9_
FNDA:0,_RNCNCNvNtNtCs86Lp2I5pN1o_13intent_engine12cli_handlers5other22handle_session_restore00B9_
FNDA:0,_RNCNCNvNtNtCs86Lp2I5pN1o_13intent_engine12cli_handlers5other24check_session_start_hooks0_00B9_
FNDA:0,_RNCNvNtNtCs86Lp2I5pN1o_13intent_engine12cli_handlers5other12handle_setup0B7_
FNDA:0,_RNCNvNtNtCs86Lp2I5pN1o_13intent_engine12cli_handlers5other19handle_init_command0B7_
FNDA:0,_RNCNvNtNtCs86Lp2I5pN1o_13intent_engine12cli_handlers5other20handle_event_command0B7_
FNDA:0,_RNCNvNtNtCs86Lp2I5pN1o_13intent_engine12cli_handlers5other21handle_doctor_command0B7_
FNDA:0,_RNCNvNtNtCs86Lp2I5pN1o_13intent_engine12cli_handlers5other21handle_report_command0B7_
FNDA:0,_RNCNvNtNtCs86Lp2I5pN1o_13intent_engine12cli_handlers5other21handle_search_command0B7_
FNDA:0,_RNCNvNtNtCs86Lp2I5pN1o_13intent_engine12cli_handlers5other22handle_current_command0B7_
FNDA:0,_RNCNvNtNtCs86Lp2I5pN1o_13intent_engine12cli_handlers5other22handle_session_restore0B7_
FNDA:0,_RNCNvNtNtCs86Lp2I5pN1o_13intent_engine12cli_handlers5other24check_session_start_hook0B7_
FNDA:0,_RNCNvNtNtCs86Lp2I5pN1o_13intent_engine12cli_handlers5other24check_session_start_hooks0_0B7_
FNDA:0,_RNCNvNtNtCs86Lp2I5pN1o_13intent_engine12cli_handlers5other24check_session_start_hooks_0B7_
FNF:27
FNH:0
DA:13,0
DA:14,0
DA:15,0
DA:16,0
DA:17,0
DA:18,0
DA:21,0
DA:22,0
DA:23,0
DA:24,0
DA:27,0
DA:28,0
DA:29,0
DA:30,0
DA:31,0
DA:32,0
DA:35,0
DA:36,0
DA:37,0
DA:38,0
DA:39,0
DA:42,0
DA:43,0
DA:44,0
DA:45,0
DA:48,0
DA:49,0
DA:50,0
DA:51,0
DA:52,0
DA:53,0
DA:54,0
DA:58,0
DA:59,0
DA:63,0
DA:64,0
DA:66,0
DA:67,0
DA:68,0
DA:69,0
DA:70,0
DA:71,0
DA:72,0
DA:73,0
DA:74,0
DA:76,0
DA:77,0
DA:78,0
DA:79,0
DA:81,0
DA:82,0
DA:84,0
DA:85,0
DA:87,0
DA:88,0
DA:89,0
DA:91,0
DA:92,0
DA:94,0
DA:95,0
DA:97,0
DA:98,0
DA:99,0
DA:103,0
DA:105,0
DA:108,0
DA:109,0
DA:110,0
DA:111,0
DA:112,0
DA:114,0
DA:115,0
DA:116,0
DA:117,0
DA:118,0
DA:121,0
DA:122,0
DA:123,0
DA:124,0
DA:128,0
DA:129,0
DA:130,0
DA:131,0
DA:133,0
DA:134,0
DA:136,0
DA:137,0
DA:138,0
DA:139,0
DA:143,0
DA:144,0
DA:146,0
DA:147,0
DA:148,0
DA:149,0
DA:150,0
DA:151,0
DA:152,0
DA:155,0
DA:156,0
DA:158,0
DA:159,0
DA:160,0
DA:163,0
DA:164,0
DA:167,0
DA:170,0
DA:171,0
DA:172,0
DA:173,0
DA:174,0
DA:175,0
DA:177,0
DA:178,0
DA:179,0
DA:181,0
DA:184,0
DA:187,0
DA:188,0
DA:189,0
DA:190,0
DA:191,0
DA:195,0
DA:196,0
DA:197,0
DA:198,0
DA:199,0
DA:201,0
DA:202,0
DA:203,0
DA:204,0
DA:205,0
DA:206,0
DA:207,0
DA:208,0
DA:209,0
DA:210,0
DA:211,0
DA:212,0
DA:213,0
DA:214,0
DA:215,0
DA:216,0
DA:217,0
DA:218,0
DA:219,0
DA:222,0
DA:223,0
DA:224,0
DA:225,0
DA:226,0
DA:227,0
DA:228,0
DA:232,0
DA:233,0
DA:234,0
DA:237,0
DA:238,0
DA:239,0
DA:240,0
DA:241,0
DA:242,0
DA:244,0
DA:245,0
DA:246,0
DA:247,0
DA:249,0
DA:252,0
DA:253,0
DA:254,0
DA:255,0
DA:256,0
DA:257,0
DA:260,0
DA:262,0
DA:263,0
DA:264,0
DA:266,0
DA:267,0
DA:269,0
DA:273,0
DA:274,0
DA:275,0
DA:276,0
DA:277,0
DA:278,0
DA:279,0
DA:280,0
DA:281,0
DA:282,0
DA:283,0
DA:284,0
DA:285,0
DA:286,0
DA:287,0
DA:290,0
DA:293,0
DA:296,0
DA:297,0
DA:298,0
DA:299,0
DA:301,0
DA:302,0
DA:305,0
DA:308,0
DA:309,0
DA:310,0
DA:311,0
DA:312,0
DA:315,0
DA:316,0
DA:317,0
DA:319,0
DA:320,0
DA:321,0
DA:322,0
DA:326,0
DA:327,0
DA:328,0
DA:331,0
DA:332,0
DA:335,0
DA:336,0
DA:337,0
DA:338,0
DA:339,0
DA:340,0
DA:341,0
DA:342,0
DA:343,0
DA:344,0
DA:345,0
DA:346,0
DA:347,0
DA:348,0
DA:349,0
DA:350,0
DA:351,0
DA:352,0
DA:353,0
DA:354,0
DA:355,0
DA:356,0
DA:358,0
DA:359,0
DA:363,0
DA:364,0
DA:366,0
DA:368,0
DA:369,0
DA:371,0
DA:372,0
DA:373,0
DA:374,0
DA:375,0
DA:376,0
DA:380,0
DA:381,0
DA:384,0
DA:387,0
DA:388,0
DA:389,0
DA:390,0
DA:391,0
DA:394,0
DA:396,0
DA:401,0
DA:402,0
DA:405,0
DA:406,0
DA:407,0
DA:408,0
DA:410,0
DA:411,0
DA:412,0
DA:413,0
DA:414,0
DA:415,0
DA:416,0
DA:418,0
DA:419,0
DA:420,0
DA:421,0
DA:422,0
DA:423,0
DA:424,0
DA:425,0
DA:427,0
DA:428,0
DA:429,0
DA:430,0
DA:431,0
DA:432,0
DA:433,0
DA:434,0
DA:436,0
DA:440,0
DA:441,0
DA:442,0
DA:443,0
DA:445,0
DA:446,0
DA:447,0
DA:449,0
DA:450,0
DA:451,0
DA:452,0
DA:454,0
DA:455,0
DA:456,0
DA:457,0
DA:458,0
DA:459,0
DA:460,0
DA:461,0
DA:463,0
DA:464,0
DA:465,0
DA:466,0
DA:467,0
DA:468,0
DA:470,0
DA:472,0
DA:473,0
DA:474,0
DA:475,0
DA:476,0
DA:477,0
DA:478,0
DA:480,0
DA:481,0
DA:482,0
DA:483,0
DA:485,0
DA:488,0
DA:492,0
DA:493,0
DA:495,0
DA:496,0
DA:497,0
DA:498,0
DA:503,0
DA:504,0
DA:506,0
DA:507,0
DA:511,0
DA:512,0
DA:513,0
DA:520,0
DA:523,0
DA:524,0
DA:525,0
DA:526,0
DA:527,0
DA:528,0
DA:529,0
DA:530,0
DA:531,0
DA:532,0
DA:533,0
DA:535,0
DA:538,0
DA:540,0
DA:541,0
DA:542,0
DA:543,0
DA:544,0
DA:545,0
DA:546,0
DA:547,0
DA:548,0
DA:551,0
DA:552,0
DA:553,0
DA:554,0
DA:555,0
DA:556,0
DA:557,0
DA:558,0
DA:561,0
DA:562,0
DA:563,0
DA:564,0
DA:565,0
DA:566,0
DA:567,0
DA:571,0
DA:572,0
DA:573,0
DA:574,0
DA:575,0
DA:576,0
DA:577,0
DA:581,0
DA:583,0
DA:584,0
DA:585,0
DA:586,0
DA:587,0
DA:588,0
DA:589,0
DA:590,0
DA:591,0
DA:597,0
DA:598,0
DA:599,0
DA:600,0
DA:601,0
DA:602,0
DA:604,0
DA:605,0
DA:606,0
DA:607,0
DA:608,0
DA:609,0
DA:610,0
DA:611,0
DA:612,0
DA:614,0
DA:616,0
DA:617,0
DA:618,0
DA:619,0
DA:620,0
DA:621,0
DA:622,0
DA:625,0
DA:628,0
DA:629,0
DA:630,0
DA:633,0
DA:635,0
DA:636,0
DA:637,0
DA:638,0
DA:641,0
DA:642,0
DA:643,0
DA:644,0
DA:645,0
DA:646,0
DA:647,0
DA:648,0
DA:649,0
DA:650,0
DA:652,0
DA:655,0
DA:656,0
DA:657,0
DA:661,0
DA:662,0
BRF:0
BRH:0
LF:467
LH:0
end_of_record
SF:/mnt/d/prj/intent-engine/src/cli_handlers/task.rs
FN:9,_RNvNtNtCsjp9E11WtBq9_13intent_engine12cli_handlers4task19handle_task_command
FN:105,_RNCNCNvNtNtCsjp9E11WtBq9_13intent_engine12cli_handlers4task19handle_task_command00B9_
FN:217,_RNCNCNvNtNtCsjp9E11WtBq9_13intent_engine12cli_handlers4task19handle_task_command0s_0B9_
FN:9,_RNCNvNtNtCsjp9E11WtBq9_13intent_engine12cli_handlers4task19handle_task_command0B7_
FN:9,_RNvNtNtCs86Lp2I5pN1o_13intent_engine12cli_handlers4task19handle_task_command
FN:105,_RNCNCNvNtNtCs86Lp2I5pN1o_13intent_engine12cli_handlers4task19handle_task_command00B9_
FN:217,_RNCNCNvNtNtCs86Lp2I5pN1o_13intent_engine12cli_handlers4task19handle_task_command0s_0B9_
FN:9,_RNCNvNtNtCs86Lp2I5pN1o_13intent_engine12cli_handlers4task19handle_task_command0B7_
FNDA:0,_RNvNtNtCsjp9E11WtBq9_13intent_engine12cli_handlers4task19handle_task_command
FNDA:0,_RNCNCNvNtNtCsjp9E11WtBq9_13intent_engine12cli_handlers4task19handle_task_command00B9_
FNDA:0,_RNCNCNvNtNtCsjp9E11WtBq9_13intent_engine12cli_handlers4task19handle_task_command0s_0B9_
FNDA:0,_RNCNvNtNtCsjp9E11WtBq9_13intent_engine12cli_handlers4task19handle_task_command0B7_
FNDA:0,_RNvNtNtCs86Lp2I5pN1o_13intent_engine12cli_handlers4task19handle_task_command
FNDA:0,_RNCNCNvNtNtCs86Lp2I5pN1o_13intent_engine12cli_handlers4task19handle_task_command00B9_
FNDA:0,_RNCNCNvNtNtCs86Lp2I5pN1o_13intent_engine12cli_handlers4task19handle_task_command0s_0B9_
FNDA:0,_RNCNvNtNtCs86Lp2I5pN1o_13intent_engine12cli_handlers4task19handle_task_command0B7_
FNF:4
FNH:0
DA:9,0
DA:10,0
DA:12,0
DA:13,0
DA:14,0
DA:16,0
DA:17,0
DA:19,0
DA:20,0
DA:22,0
DA:25,0
DA:26,0
DA:29,0
DA:30,0
DA:31,0
DA:33,0
DA:34,0
DA:35,0
DA:37,0
DA:38,0
DA:43,0
DA:44,0
DA:45,0
DA:46,0
DA:47,0
DA:48,0
DA:49,0
DA:51,0
DA:52,0
DA:54,0
DA:55,0
DA:57,0
DA:61,0
DA:62,0
DA:63,0
DA:66,0
DA:67,0
DA:68,0
DA:69,0
DA:70,0
DA:71,0
DA:72,0
DA:73,0
DA:74,0
DA:75,0
DA:76,0
DA:77,0
DA:78,0
DA:81,0
DA:82,0
DA:83,0
DA:85,0
DA:86,0
DA:87,0
DA:88,0
DA:89,0
DA:90,0
DA:91,0
DA:96,0
DA:97,0
DA:98,0
DA:99,0
DA:100,0
DA:102,0
DA:103,0
DA:105,0
DA:106,0
DA:107,0
DA:109,0
DA:111,0
DA:115,0
DA:116,0
DA:117,0
DA:118,0
DA:119,0
DA:120,0
DA:121,0
DA:122,0
DA:123,0
DA:124,0
DA:125,0
DA:129,0
DA:130,0
DA:131,0
DA:132,0
DA:135,0
DA:136,0
DA:137,0
DA:139,0
DA:140,0
DA:144,0
DA:145,0
DA:147,0
DA:148,0
DA:151,0
DA:152,0
DA:153,0
DA:155,0
DA:158,0
DA:159,0
DA:160,0
DA:162,0
DA:163,0
DA:164,0
DA:165,0
DA:169,0
DA:170,0
DA:171,0
DA:173,0
DA:174,0
DA:176,0
DA:179,0
DA:180,0
DA:184,0
DA:185,0
DA:187,0
DA:189,0
DA:190,0
DA:191,0
DA:193,0
DA:194,0
DA:195,0
DA:196,0
DA:197,0
DA:198,0
DA:199,0
DA:204,0
DA:207,0
DA:208,0
DA:209,0
DA:210,0
DA:213,0
DA:214,0
DA:216,0
DA:217,0
DA:218,0
DA:219,0
DA:220,0
DA:221,0
DA:222,0
DA:225,0
DA:228,0
DA:232,0
DA:233,0
BRF:0
BRH:0
LF:148
LH:0
end_of_record
SF:/mnt/d/prj/intent-engine/src/cli_handlers/utils.rs
FN:10,_RNvNtNtCsjp9E11WtBq9_13intent_engine12cli_handlers5utils10read_stdin
FN:49,_RNvNtNtCsjp9E11WtBq9_13intent_engine12cli_handlers5utils16get_status_badge
FN:59,_RNvNtNtCsjp9E11WtBq9_13intent_engine12cli_handlers5utils18print_task_context
FN:131,_RNvNtNtNtCs86Lp2I5pN1o_13intent_engine12cli_handlers5utils5tests16create_test_task
FN:148,_RNvNtNtNtCs86Lp2I5pN1o_13intent_engine12cli_handlers5utils5testss_26test_get_status_badge_done
FN:158,_RNvNtNtNtCs86Lp2I5pN1o_13intent_engine12cli_handlers5utils5testss_26test_get_status_badge_todo
FN:153,_RNvNtNtNtCs86Lp2I5pN1o_13intent_engine12cli_handlers5utils5testss_27test_get_status_badge_doing
FN:163,_RNvNtNtNtCs86Lp2I5pN1o_13intent_engine12cli_handlers5utils5testss_29test_get_status_badge_unknown
FN:170,_RNvNtNtNtCs86Lp2I5pN1o_13intent_engine12cli_handlers5utils5testss_29test_print_task_context_basic
FN:190,_RNvNtNtNtCs86Lp2I5pN1o_13intent_engine12cli_handlers5utils5testss_33test_print_task_context_with_spec
FN:210,_RNvNtNtNtCs86Lp2I5pN1o_13intent_engine12cli_handlers5utils5testss_37test_print_task_context_with_children
FN:272,_RNvNtNtNtCs86Lp2I5pN1o_13intent_engine12cli_handlers5utils5testss_37test_print_task_context_with_siblings
FN:231,_RNvNtNtNtCs86Lp2I5pN1o_13intent_engine12cli_handlers5utils5testss_38test_print_task_context_with_ancestors
FN:251,_RNvNtNtNtCs86Lp2I5pN1o_13intent_engine12cli_handlers5utils5testss_41test_print_task_context_with_dependencies
FN:10,_RNvNtNtCs86Lp2I5pN1o_13intent_engine12cli_handlers5utils10read_stdin
FN:49,_RNvNtNtCs86Lp2I5pN1o_13intent_engine12cli_handlers5utils16get_status_badge
FN:59,_RNvNtNtCs86Lp2I5pN1o_13intent_engine12cli_handlers5utils18print_task_context
FNDA:0,_RNvNtNtCsjp9E11WtBq9_13intent_engine12cli_handlers5utils10read_stdin
FNDA:0,_RNvNtNtCsjp9E11WtBq9_13intent_engine12cli_handlers5utils16get_status_badge
FNDA:0,_RNvNtNtCsjp9E11WtBq9_13intent_engine12cli_handlers5utils18print_task_context
FNDA:12,_RNvNtNtNtCs86Lp2I5pN1o_13intent_engine12cli_handlers5utils5tests16create_test_task
FNDA:1,_RNvNtNtNtCs86Lp2I5pN1o_13intent_engine12cli_handlers5utils5testss_26test_get_status_badge_done
FNDA:1,_RNvNtNtNtCs86Lp2I5pN1o_13intent_engine12cli_handlers5utils5testss_26test_get_status_badge_todo
FNDA:1,_RNvNtNtNtCs86Lp2I5pN1o_13intent_engine12cli_handlers5utils5testss_27test_get_status_badge_doing
FNDA:1,_RNvNtNtNtCs86Lp2I5pN1o_13intent_engine12cli_handlers5utils5testss_29test_get_status_badge_unknown
FNDA:1,_RNvNtNtNtCs86Lp2I5pN1o_13intent_engine12cli_handlers5utils5testss_29test_print_task_context_basic
FNDA:1,_RNvNtNtNtCs86Lp2I5pN1o_13intent_engine12cli_handlers5utils5testss_33test_print_task_context_with_spec
FNDA:1,_RNvNtNtNtCs86Lp2I5pN1o_13intent_engine12cli_handlers5utils5testss_37test_print_task_context_with_children
FNDA:1,_RNvNtNtNtCs86Lp2I5pN1o_13intent_engine12cli_handlers5utils5testss_37test_print_task_context_with_siblings
FNDA:1,_RNvNtNtNtCs86Lp2I5pN1o_13intent_engine12cli_handlers5utils5testss_38test_print_task_context_with_ancestors
FNDA:1,_RNvNtNtNtCs86Lp2I5pN1o_13intent_engine12cli_handlers5utils5testss_41test_print_task_context_with_dependencies
FNDA:0,_RNvNtNtCs86Lp2I5pN1o_13intent_engine12cli_handlers5utils10read_stdin
FNDA:18,_RNvNtNtCs86Lp2I5pN1o_13intent_engine12cli_handlers5utils16get_status_badge
FNDA:6,_RNvNtNtCs86Lp2I5pN1o_13intent_engine12cli_handlers5utils18print_task_context
FNF:14
FNH:13
DA:10,0
DA:42,0
DA:43,0
DA:44,0
DA:46,0
DA:49,18
DA:50,18
DA:51,18
DA:52,16
DA:53,9
DA:54,3
DA:56,18
DA:59,6
DA:61,6
DA:62,6
DA:63,6
DA:65,6
DA:66,1
DA:67,3
DA:68,3
DA:69,3
DA:70,5
DA:73,6
DA:74,1
DA:75,1
DA:76,1
DA:77,1
DA:78,1
DA:79,1
DA:80,1
DA:81,1
DA:82,1
DA:83,5
DA:86,6
DA:87,1
DA:88,3
DA:89,2
DA:90,2
DA:91,2
DA:92,5
DA:95,6
DA:96,1
DA:97,2
DA:98,1
DA:99,1
DA:100,1
DA:101,5
DA:104,6
DA:105,1
DA:106,2
DA:107,1
DA:108,1
DA:109,1
DA:110,5
DA:113,6
DA:114,1
DA:115,2
DA:116,1
DA:117,1
DA:118,1
DA:119,5
DA:121,6
DA:122,6
DA:123,6
DA:131,12
DA:132,12
DA:133,12
DA:134,12
DA:135,12
DA:136,12
DA:137,12
DA:138,12
DA:139,12
DA:140,12
DA:141,12
DA:142,12
DA:143,12
DA:144,12
DA:145,12
DA:148,1
DA:149,1
DA:150,1
DA:153,1
DA:154,1
DA:155,1
DA:158,1
DA:159,1
DA:160,1
DA:163,1
DA:164,1
DA:165,1
DA:166,1
DA:167,1
DA:170,1
DA:171,1
DA:173,1
DA:174,1
DA:175,1
DA:176,1
DA:177,1
DA:178,1
DA:179,1
DA:180,1
DA:181,1
DA:182,1
DA:185,1
DA:186,1
DA:187,1
DA:190,1
DA:191,1
DA:192,1
DA:194,1
DA:195,1
DA:196,1
DA:197,1
DA:198,1
DA:199,1
DA:200,1
DA:201,1
DA:202,1
DA:203,1
DA:205,1
DA:206,1
DA:207,1
DA:210,1
DA:211,1
DA:212,1
DA:213,1
DA:215,1
DA:216,1
DA:217,1
DA:218,1
DA:219,1
DA:220,1
DA:221,1
DA:222,1
DA:223,1
DA:224,1
DA:226,1
DA:227,1
DA:228,1
DA:231,1
DA:232,1
DA:233,1
DA:235,1
DA:236,1
DA:237,1
DA:238,1
DA:239,1
DA:240,1
DA:241,1
DA:242,1
DA:243,1
DA:244,1
DA:246,1
DA:247,1
DA:248,1
DA:251,1
DA:252,1
DA:253,1
DA:254,1
DA:256,1
DA:257,1
DA:258,1
DA:259,1
DA:260,1
DA:261,1
DA:262,1
DA:263,1
DA:264,1
DA:265,1
DA:267,1
DA:268,1
DA:269,1
DA:272,1
DA:273,1
DA:274,1
DA:276,1
DA:277,1
DA:278,1
DA:279,1
DA:280,1
DA:281,1
DA:282,1
DA:283,1
DA:284,1
DA:285,1
DA:287,1
DA:288,1
DA:289,1
BRF:0
BRH:0
LF:190
LH:185
end_of_record
SF:/mnt/d/prj/intent-engine/src/dashboard/handlers.rs
FN:24,_RNCNCNvNtNtCsjp9E11WtBq9_13intent_engine9dashboard8handlers10list_tasks00B9_
FN:427,_RNCNCNvNtNtCsjp9E11WtBq9_13intent_engine9dashboard8handlers11list_events00B9_
FN:685,_RNCNCNvNtNtCsjp9E11WtBq9_13intent_engine9dashboard8handlers13list_projects00B9_
FN:769,_RNCNCNvNtNtCsjp9E11WtBq9_13intent_engine9dashboard8handlers14switch_project00B9_
FN:643,_RNCNCNvNtNtCsjp9E11WtBq9_13intent_engine9dashboard8handlers6search00B9_
FN:644,_RNCNCNvNtNtCsjp9E11WtBq9_13intent_engine9dashboard8handlers6search0s_0B9_
FN:19,_RNCNvNtNtCsjp9E11WtBq9_13intent_engine9dashboard8handlers10list_tasks0B7_
FN:250,_RNCNvNtNtCsjp9E11WtBq9_13intent_engine9dashboard8handlers10start_task0B7_
FN:99,_RNCNvNtNtCsjp9E11WtBq9_13intent_engine9dashboard8handlers11create_task0B7_
FN:214,_RNCNvNtNtCsjp9E11WtBq9_13intent_engine9dashboard8handlers11delete_task0B7_
FN:419,_RNCNvNtNtCsjp9E11WtBq9_13intent_engine9dashboard8handlers11list_events0B7_
FN:147,_RNCNvNtNtCsjp9E11WtBq9_13intent_engine9dashboard8handlers11update_task0B7_
FN:451,_RNCNvNtNtCsjp9E11WtBq9_13intent_engine9dashboard8handlers12create_event0B7_
FN:561,_RNCNvNtNtCsjp9E11WtBq9_13intent_engine9dashboard8handlers12delete_event0B7_
FN:499,_RNCNvNtNtCsjp9E11WtBq9_13intent_engine9dashboard8handlers12update_event0B7_
FN:663,_RNCNvNtNtCsjp9E11WtBq9_13intent_engine9dashboard8handlers13list_projects0B7_
FN:327,_RNCNvNtNtCsjp9E11WtBq9_13intent_engine9dashboard8handlers13spawn_subtask0B7_
FN:396,_RNCNvNtNtCsjp9E11WtBq9_13intent_engine9dashboard8handlers14pick_next_task0B7_
FN:712,_RNCNvNtNtCsjp9E11WtBq9_13intent_engine9dashboard8handlers14switch_project0B7_
FN:364,_RNCNvNtNtCsjp9E11WtBq9_13intent_engine9dashboard8handlers16get_current_task0B7_
FN:634,_RNCNvNtNtCsjp9E11WtBq9_13intent_engine9dashboard8handlers6search0B7_
FN:68,_RNCNvNtNtCsjp9E11WtBq9_13intent_engine9dashboard8handlers8get_task0B7_
FN:286,_RNCNvNtNtCsjp9E11WtBq9_13intent_engine9dashboard8handlers9done_task0B7_
FN:16,_RNvNtNtCsjp9E11WtBq9_13intent_engine9dashboard8handlers10list_tasks
FN:250,_RNvNtNtCsjp9E11WtBq9_13intent_engine9dashboard8handlers10start_task
FN:96,_RNvNtNtCsjp9E11WtBq9_13intent_engine9dashboard8handlers11create_task
FN:214,_RNvNtNtCsjp9E11WtBq9_13intent_engine9dashboard8handlers11delete_task
FN:415,_RNvNtNtCsjp9E11WtBq9_13intent_engine9dashboard8handlers11list_events
FN:143,_RNvNtNtCsjp9E11WtBq9_13intent_engine9dashboard8handlers11update_task
FN:447,_RNvNtNtCsjp9E11WtBq9_13intent_engine9dashboard8handlers12create_event
FN:558,_RNvNtNtCsjp9E11WtBq9_13intent_engine9dashboard8handlers12delete_event
FN:495,_RNvNtNtCsjp9E11WtBq9_13intent_engine9dashboard8handlers12update_event
FN:663,_RNvNtNtCsjp9E11WtBq9_13intent_engine9dashboard8handlers13list_projects
FN:323,_RNvNtNtCsjp9E11WtBq9_13intent_engine9dashboard8handlers13spawn_subtask
FN:396,_RNvNtNtCsjp9E11WtBq9_13intent_engine9dashboard8handlers14pick_next_task
FN:709,_RNvNtNtCsjp9E11WtBq9_13intent_engine9dashboard8handlers14switch_project
FN:364,_RNvNtNtCsjp9E11WtBq9_13intent_engine9dashboard8handlers16get_current_task
FN:631,_RNvNtNtCsjp9E11WtBq9_13intent_engine9dashboard8handlers6search
FN:68,_RNvNtNtCsjp9E11WtBq9_13intent_engine9dashboard8handlers8get_task
FN:286,_RNvNtNtCsjp9E11WtBq9_13intent_engine9dashboard8handlers9done_task
FN:24,_RNCNCNvNtNtCs86Lp2I5pN1o_13intent_engine9dashboard8handlers10list_tasks00B9_
FN:427,_RNCNCNvNtNtCs86Lp2I5pN1o_13intent_engine9dashboard8handlers11list_events00B9_
FN:685,_RNCNCNvNtNtCs86Lp2I5pN1o_13intent_engine9dashboard8handlers13list_projects00B9_
FN:769,_RNCNCNvNtNtCs86Lp2I5pN1o_13intent_engine9dashboard8handlers14switch_project00B9_
FN:643,_RNCNCNvNtNtCs86Lp2I5pN1o_13intent_engine9dashboard8handlers6search00B9_
FN:644,_RNCNCNvNtNtCs86Lp2I5pN1o_13intent_engine9dashboard8handlers6search0s_0B9_
FN:19,_RNCNvNtNtCs86Lp2I5pN1o_13intent_engine9dashboard8handlers10list_tasks0B7_
FN:250,_RNCNvNtNtCs86Lp2I5pN1o_13intent_engine9dashboard8handlers10start_task0B7_
FN:99,_RNCNvNtNtCs86Lp2I5pN1o_13intent_engine9dashboard8handlers11create_task0B7_
FN:214,_RNCNvNtNtCs86Lp2I5pN1o_13intent_engine9dashboard8handlers11delete_task0B7_
FN:419,_RNCNvNtNtCs86Lp2I5pN1o_13intent_engine9dashboard8handlers11list_events0B7_
FN:147,_RNCNvNtNtCs86Lp2I5pN1o_13intent_engine9dashboard8handlers11update_task0B7_
FN:451,_RNCNvNtNtCs86Lp2I5pN1o_13intent_engine9dashboard8handlers12create_event0B7_
FN:561,_RNCNvNtNtCs86Lp2I5pN1o_13intent_engine9dashboard8handlers12delete_event0B7_
FN:499,_RNCNvNtNtCs86Lp2I5pN1o_13intent_engine9dashboard8handlers12update_event0B7_
FN:663,_RNCNvNtNtCs86Lp2I5pN1o_13intent_engine9dashboard8handlers13list_projects0B7_
FN:327,_RNCNvNtNtCs86Lp2I5pN1o_13intent_engine9dashboard8handlers13spawn_subtask0B7_
FN:396,_RNCNvNtNtCs86Lp2I5pN1o_13intent_engine9dashboard8handlers14pick_next_task0B7_
FN:712,_RNCNvNtNtCs86Lp2I5pN1o_13intent_engine9dashboard8handlers14switch_project0B7_
FN:364,_RNCNvNtNtCs86Lp2I5pN1o_13intent_engine9dashboard8handlers16get_current_task0B7_
FN:634,_RNCNvNtNtCs86Lp2I5pN1o_13intent_engine9dashboard8handlers6search0B7_
FN:68,_RNCNvNtNtCs86Lp2I5pN1o_13intent_engine9dashboard8handlers8get_task0B7_
FN:286,_RNCNvNtNtCs86Lp2I5pN1o_13intent_engine9dashboard8handlers9done_task0B7_
FN:16,_RNvNtNtCs86Lp2I5pN1o_13intent_engine9dashboard8handlers10list_tasks
FN:250,_RNvNtNtCs86Lp2I5pN1o_13intent_engine9dashboard8handlers10start_task
FN:96,_RNvNtNtCs86Lp2I5pN1o_13intent_engine9dashboard8handlers11create_task
FN:214,_RNvNtNtCs86Lp2I5pN1o_13intent_engine9dashboard8handlers11delete_task
FN:415,_RNvNtNtCs86Lp2I5pN1o_13intent_engine9dashboard8handlers11list_events
FN:143,_RNvNtNtCs86Lp2I5pN1o_13intent_engine9dashboard8handlers11update_task
FN:447,_RNvNtNtCs86Lp2I5pN1o_13intent_engine9dashboard8handlers12create_event
FN:558,_RNvNtNtCs86Lp2I5pN1o_13intent_engine9dashboard8handlers12delete_event
FN:495,_RNvNtNtCs86Lp2I5pN1o_13intent_engine9dashboard8handlers12update_event
FN:663,_RNvNtNtCs86Lp2I5pN1o_13intent_engine9dashboard8handlers13list_projects
FN:323,_RNvNtNtCs86Lp2I5pN1o_13intent_engine9dashboard8handlers13spawn_subtask
FN:396,_RNvNtNtCs86Lp2I5pN1o_13intent_engine9dashboard8handlers14pick_next_task
FN:709,_RNvNtNtCs86Lp2I5pN1o_13intent_engine9dashboard8handlers14switch_project
FN:364,_RNvNtNtCs86Lp2I5pN1o_13intent_engine9dashboard8handlers16get_current_task
FN:631,_RNvNtNtCs86Lp2I5pN1o_13intent_engine9dashboard8handlers6search
FN:68,_RNvNtNtCs86Lp2I5pN1o_13intent_engine9dashboard8handlers8get_task
FN:286,_RNvNtNtCs86Lp2I5pN1o_13intent_engine9dashboard8handlers9done_task
FNDA:0,_RNCNCNvNtNtCsjp9E11WtBq9_13intent_engine9dashboard8handlers10list_tasks00B9_
FNDA:0,_RNCNCNvNtNtCsjp9E11WtBq9_13intent_engine9dashboard8handlers11list_events00B9_
FNDA:0,_RNCNCNvNtNtCsjp9E11WtBq9_13intent_engine9dashboard8handlers13list_projects00B9_
FNDA:0,_RNCNCNvNtNtCsjp9E11WtBq9_13intent_engine9dashboard8handlers14switch_project00B9_
FNDA:0,_RNCNCNvNtNtCsjp9E11WtBq9_13intent_engine9dashboard8handlers6search00B9_
FNDA:0,_RNCNCNvNtNtCsjp9E11WtBq9_13intent_engine9dashboard8handlers6search0s_0B9_
FNDA:0,_RNCNvNtNtCsjp9E11WtBq9_13intent_engine9dashboard8handlers10list_tasks0B7_
FNDA:0,_RNCNvNtNtCsjp9E11WtBq9_13intent_engine9dashboard8handlers10start_task0B7_
FNDA:0,_RNCNvNtNtCsjp9E11WtBq9_13intent_engine9dashboard8handlers11create_task0B7_
FNDA:0,_RNCNvNtNtCsjp9E11WtBq9_13intent_engine9dashboard8handlers11delete_task0B7_
FNDA:0,_RNCNvNtNtCsjp9E11WtBq9_13intent_engine9dashboard8handlers11list_events0B7_
FNDA:0,_RNCNvNtNtCsjp9E11WtBq9_13intent_engine9dashboard8handlers11update_task0B7_
FNDA:0,_RNCNvNtNtCsjp9E11WtBq9_13intent_engine9dashboard8handlers12create_event0B7_
FNDA:0,_RNCNvNtNtCsjp9E11WtBq9_13intent_engine9dashboard8handlers12delete_event0B7_
FNDA:0,_RNCNvNtNtCsjp9E11WtBq9_13intent_engine9dashboard8handlers12update_event0B7_
FNDA:0,_RNCNvNtNtCsjp9E11WtBq9_13intent_engine9dashboard8handlers13list_projects0B7_
FNDA:0,_RNCNvNtNtCsjp9E11WtBq9_13intent_engine9dashboard8handlers13spawn_subtask0B7_
FNDA:0,_RNCNvNtNtCsjp9E11WtBq9_13intent_engine9dashboard8handlers14pick_next_task0B7_
FNDA:0,_RNCNvNtNtCsjp9E11WtBq9_13intent_engine9dashboard8handlers14switch_project0B7_
FNDA:0,_RNCNvNtNtCsjp9E11WtBq9_13intent_engine9dashboard8handlers16get_current_task0B7_
FNDA:0,_RNCNvNtNtCsjp9E11WtBq9_13intent_engine9dashboard8handlers6search0B7_
FNDA:0,_RNCNvNtNtCsjp9E11WtBq9_13intent_engine9dashboard8handlers8get_task0B7_
FNDA:0,_RNCNvNtNtCsjp9E11WtBq9_13intent_engine9dashboard8handlers9done_task0B7_
FNDA:0,_RNvNtNtCsjp9E11WtBq9_13intent_engine9dashboard8handlers10list_tasks
FNDA:0,_RNvNtNtCsjp9E11WtBq9_13intent_engine9dashboard8handlers10start_task
FNDA:0,_RNvNtNtCsjp9E11WtBq9_13intent_engine9dashboard8handlers11create_task
FNDA:0,_RNvNtNtCsjp9E11WtBq9_13intent_engine9dashboard8handlers11delete_task
FNDA:0,_RNvNtNtCsjp9E11WtBq9_13intent_engine9dashboard8handlers11list_events
FNDA:0,_RNvNtNtCsjp9E11WtBq9_13intent_engine9dashboard8handlers11update_task
FNDA:0,_RNvNtNtCsjp9E11WtBq9_13intent_engine9dashboard8handlers12create_event
FNDA:0,_RNvNtNtCsjp9E11WtBq9_13intent_engine9dashboard8handlers12delete_event
FNDA:0,_RNvNtNtCsjp9E11WtBq9_13intent_engine9dashboard8handlers12update_event
FNDA:0,_RNvNtNtCsjp9E11WtBq9_13intent_engine9dashboard8handlers13list_projects
FNDA:0,_RNvNtNtCsjp9E11WtBq9_13intent_engine9dashboard8handlers13spawn_subtask
FNDA:0,_RNvNtNtCsjp9E11WtBq9_13intent_engine9dashboard8handlers14pick_next_task
FNDA:0,_RNvNtNtCsjp9E11WtBq9_13intent_engine9dashboard8handlers14switch_project
FNDA:0,_RNvNtNtCsjp9E11WtBq9_13intent_engine9dashboard8handlers16get_current_task
FNDA:0,_RNvNtNtCsjp9E11WtBq9_13intent_engine9dashboard8handlers6search
FNDA:0,_RNvNtNtCsjp9E11WtBq9_13intent_engine9dashboard8handlers8get_task
FNDA:0,_RNvNtNtCsjp9E11WtBq9_13intent_engine9dashboard8handlers9done_task
FNDA:0,_RNCNCNvNtNtCs86Lp2I5pN1o_13intent_engine9dashboard8handlers10list_tasks00B9_
FNDA:0,_RNCNCNvNtNtCs86Lp2I5pN1o_13intent_engine9dashboard8handlers11list_events00B9_
FNDA:0,_RNCNCNvNtNtCs86Lp2I5pN1o_13intent_engine9dashboard8handlers13list_projects00B9_
FNDA:0,_RNCNCNvNtNtCs86Lp2I5pN1o_13intent_engine9dashboard8handlers14switch_project00B9_
FNDA:0,_RNCNCNvNtNtCs86Lp2I5pN1o_13intent_engine9dashboard8handlers6search00B9_
FNDA:0,_RNCNCNvNtNtCs86Lp2I5pN1o_13intent_engine9dashboard8handlers6search0s_0B9_
FNDA:0,_RNCNvNtNtCs86Lp2I5pN1o_13intent_engine9dashboard8handlers10list_tasks0B7_
FNDA:0,_RNCNvNtNtCs86Lp2I5pN1o_13intent_engine9dashboard8handlers10start_task0B7_
FNDA:0,_RNCNvNtNtCs86Lp2I5pN1o_13intent_engine9dashboard8handlers11create_task0B7_
FNDA:0,_RNCNvNtNtCs86Lp2I5pN1o_13intent_engine9dashboard8handlers11delete_task0B7_
FNDA:0,_RNCNvNtNtCs86Lp2I5pN1o_13intent_engine9dashboard8handlers11list_events0B7_
FNDA:0,_RNCNvNtNtCs86Lp2I5pN1o_13intent_engine9dashboard8handlers11update_task0B7_
FNDA:0,_RNCNvNtNtCs86Lp2I5pN1o_13intent_engine9dashboard8handlers12create_event0B7_
FNDA:0,_RNCNvNtNtCs86Lp2I5pN1o_13intent_engine9dashboard8handlers12delete_event0B7_
FNDA:0,_RNCNvNtNtCs86Lp2I5pN1o_13intent_engine9dashboard8handlers12update_event0B7_
FNDA:0,_RNCNvNtNtCs86Lp2I5pN1o_13intent_engine9dashboard8handlers13list_projects0B7_
FNDA:0,_RNCNvNtNtCs86Lp2I5pN1o_13intent_engine9dashboard8handlers13spawn_subtask0B7_
FNDA:0,_RNCNvNtNtCs86Lp2I5pN1o_13intent_engine9dashboard8handlers14pick_next_task0B7_
FNDA:0,_RNCNvNtNtCs86Lp2I5pN1o_13intent_engine9dashboard8handlers14switch_project0B7_
FNDA:0,_RNCNvNtNtCs86Lp2I5pN1o_13intent_engine9dashboard8handlers16get_current_task0B7_
FNDA:0,_RNCNvNtNtCs86Lp2I5pN1o_13intent_engine9dashboard8handlers6search0B7_
FNDA:0,_RNCNvNtNtCs86Lp2I5pN1o_13intent_engine9dashboard8handlers8get_task0B7_
FNDA:0,_RNCNvNtNtCs86Lp2I5pN1o_13intent_engine9dashboard8handlers9done_task0B7_
FNDA:0,_RNvNtNtCs86Lp2I5pN1o_13intent_engine9dashboard8handlers10list_tasks
FNDA:0,_RNvNtNtCs86Lp2I5pN1o_13intent_engine9dashboard8handlers10start_task
FNDA:0,_RNvNtNtCs86Lp2I5pN1o_13intent_engine9dashboard8handlers11create_task
FNDA:0,_RNvNtNtCs86Lp2I5pN1o_13intent_engine9dashboard8handlers11delete_task
FNDA:0,_RNvNtNtCs86Lp2I5pN1o_13intent_engine9dashboard8handlers11list_events
FNDA:0,_RNvNtNtCs86Lp2I5pN1o_13intent_engine9dashboard8handlers11update_task
FNDA:0,_RNvNtNtCs86Lp2I5pN1o_13intent_engine9dashboard8handlers12create_event
FNDA:0,_RNvNtNtCs86Lp2I5pN1o_13intent_engine9dashboard8handlers12delete_event
FNDA:0,_RNvNtNtCs86Lp2I5pN1o_13intent_engine9dashboard8handlers12update_event
FNDA:0,_RNvNtNtCs86Lp2I5pN1o_13intent_engine9dashboard8handlers13list_projects
FNDA:0,_RNvNtNtCs86Lp2I5pN1o_13intent_engine9dashboard8handlers13spawn_subtask
FNDA:0,_RNvNtNtCs86Lp2I5pN1o_13intent_engine9dashboard8handlers14pick_next_task
FNDA:0,_RNvNtNtCs86Lp2I5pN1o_13intent_engine9dashboard8handlers14switch_project
FNDA:0,_RNvNtNtCs86Lp2I5pN1o_13intent_engine9dashboard8handlers16get_current_task
FNDA:0,_RNvNtNtCs86Lp2I5pN1o_13intent_engine9dashboard8handlers6search
FNDA:0,_RNvNtNtCs86Lp2I5pN1o_13intent_engine9dashboard8handlers8get_task
FNDA:0,_RNvNtNtCs86Lp2I5pN1o_13intent_engine9dashboard8handlers9done_task
FNF:40
FNH:0
DA:16,0
DA:17,0
DA:18,0
DA:19,0
DA:20,0
DA:21,0
DA:24,0
DA:25,0
DA:26,0
DA:28,0
DA:30,0
DA:33,0
DA:34,0
DA:35,0
DA:36,0
DA:37,0
DA:38,0
DA:41,0
DA:42,0
DA:43,0
DA:44,0
DA:45,0
DA:46,0
DA:47,0
DA:49,0
DA:51,0
DA:52,0
DA:53,0
DA:54,0
DA:55,0
DA:56,0
DA:57,0
DA:58,0
DA:59,0
DA:60,0
DA:61,0
DA:62,0
DA:65,0
DA:68,0
DA:69,0
DA:70,0
DA:72,0
DA:73,0
DA:74,0
DA:75,0
DA:76,0
DA:77,0
DA:78,0
DA:79,0
DA:80,0
DA:81,0
DA:82,0
DA:83,0
DA:84,0
DA:85,0
DA:86,0
DA:87,0
DA:88,0
DA:89,0
DA:90,0
DA:91,0
DA:93,0
DA:96,0
DA:97,0
DA:98,0
DA:99,0
DA:100,0
DA:101,0
DA:102,0
DA:103,0
DA:105,0
DA:106,0
DA:107,0
DA:108,0
DA:112,0
DA:113,0
DA:114,0
DA:116,0
DA:117,0
DA:119,0
DA:120,0
DA:121,0
DA:122,0
DA:123,0
DA:124,0
DA:125,0
DA:127,0
DA:128,0
DA:130,0
DA:131,0
DA:132,0
DA:133,0
DA:134,0
DA:135,0
DA:136,0
DA:137,0
DA:138,0
DA:140,0
DA:143,0
DA:144,0
DA:145,0
DA:146,0
DA:147,0
DA:148,0
DA:149,0
DA:150,0
DA:151,0
DA:153,0
DA:154,0
DA:155,0
DA:156,0
DA:160,0
DA:161,0
DA:162,0
DA:163,0
DA:164,0
DA:165,0
DA:166,0
DA:167,0
DA:168,0
DA:169,0
DA:170,0
DA:172,0
DA:173,0
DA:174,0
DA:175,0
DA:176,0
DA:177,0
DA:178,0
DA:179,0
DA:180,0
DA:181,0
DA:183,0
DA:188,0
DA:189,0
DA:190,0
DA:191,0
DA:192,0
DA:193,0
DA:194,0
DA:195,0
DA:196,0
DA:198,0
DA:200,0
DA:201,0
DA:202,0
DA:203,0
DA:204,0
DA:205,0
DA:206,0
DA:207,0
DA:208,0
DA:209,0
DA:211,0
DA:214,0
DA:215,0
DA:216,0
DA:217,0
DA:218,0
DA:220,0
DA:221,0
DA:222,0
DA:223,0
DA:226,0
DA:227,0
DA:228,0
DA:229,0
DA:230,0
DA:231,0
DA:232,0
DA:233,0
DA:234,0
DA:235,0
DA:236,0
DA:237,0
DA:238,0
DA:239,0
DA:240,0
DA:241,0
DA:242,0
DA:243,0
DA:244,0
DA:245,0
DA:247,0
DA:250,0
DA:251,0
DA:252,0
DA:253,0
DA:254,0
DA:256,0
DA:257,0
DA:258,0
DA:259,0
DA:262,0
DA:263,0
DA:264,0
DA:265,0
DA:266,0
DA:267,0
DA:268,0
DA:269,0
DA:270,0
DA:271,0
DA:272,0
DA:273,0
DA:274,0
DA:275,0
DA:276,0
DA:277,0
DA:278,0
DA:279,0
DA:280,0
DA:281,0
DA:283,0
DA:286,0
DA:287,0
DA:288,0
DA:289,0
DA:290,0
DA:292,0
DA:293,0
DA:294,0
DA:295,0
DA:298,0
DA:299,0
DA:300,0
DA:301,0
DA:302,0
DA:303,0
DA:304,0
DA:305,0
DA:306,0
DA:307,0
DA:308,0
DA:309,0
DA:310,0
DA:311,0
DA:312,0
DA:313,0
DA:314,0
DA:315,0
DA:316,0
DA:317,0
DA:319,0
DA:323,0
DA:324,0
DA:325,0
DA:326,0
DA:327,0
DA:328,0
DA:329,0
DA:330,0
DA:331,0
DA:333,0
DA:334,0
DA:335,0
DA:336,0
DA:340,0
DA:341,0
DA:342,0
DA:343,0
DA:344,0
DA:345,0
DA:346,0
DA:347,0
DA:348,0
DA:349,0
DA:350,0
DA:351,0
DA:352,0
DA:353,0
DA:354,0
DA:355,0
DA:356,0
DA:357,0
DA:358,0
DA:359,0
DA:361,0
DA:364,0
DA:365,0
DA:366,0
DA:368,0
DA:369,0
DA:370,0
DA:371,0
DA:373,0
DA:374,0
DA:375,0
DA:376,0
DA:377,0
DA:378,0
DA:379,0
DA:380,0
DA:383,0
DA:384,0
DA:385,0
DA:386,0
DA:387,0
DA:388,0
DA:389,0
DA:390,0
DA:391,0
DA:393,0
DA:396,0
DA:397,0
DA:398,0
DA:400,0
DA:401,0
DA:402,0
DA:403,0
DA:404,0
DA:405,0
DA:406,0
DA:407,0
DA:408,0
DA:409,0
DA:410,0
DA:412,0
DA:415,0
DA:416,0
DA:417,0
DA:418,0
DA:419,0
DA:420,0
DA:421,0
DA:424,0
DA:425,0
DA:426,0
DA:427,0
DA:428,0
DA:429,0
DA:431,0
DA:433,0
DA:434,0
DA:435,0
DA:436,0
DA:437,0
DA:438,0
DA:439,0
DA:440,0
DA:441,0
DA:442,0
DA:444,0
DA:447,0
DA:448,0
DA:449,0
DA:450,0
DA:451,0
DA:452,0
DA:453,0
DA:454,0
DA:455,0
DA:457,0
DA:458,0
DA:459,0
DA:460,0
DA:464,0
DA:465,0
DA:466,0
DA:467,0
DA:468,0
DA:469,0
DA:470,0
DA:471,0
DA:472,0
DA:473,0
DA:474,0
DA:477,0
DA:478,0
DA:479,0
DA:481,0
DA:482,0
DA:483,0
DA:484,0
DA:485,0
DA:486,0
DA:487,0
DA:488,0
DA:489,0
DA:490,0
DA:492,0
DA:495,0
DA:496,0
DA:497,0
DA:498,0
DA:499,0
DA:500,0
DA:501,0
DA:502,0
DA:503,0
DA:505,0
DA:506,0
DA:507,0
DA:508,0
DA:512,0
DA:513,0
DA:514,0
DA:515,0
DA:516,0
DA:517,0
DA:518,0
DA:519,0
DA:520,0
DA:521,0
DA:522,0
DA:523,0
DA:524,0
DA:526,0
DA:527,0
DA:528,0
DA:530,0
DA:532,0
DA:533,0
DA:534,0
DA:535,0
DA:536,0
DA:537,0
DA:538,0
DA:539,0
DA:540,0
DA:541,0
DA:542,0
DA:543,0
DA:545,0
DA:546,0
DA:547,0
DA:548,0
DA:549,0
DA:550,0
DA:551,0
DA:552,0
DA:553,0
DA:555,0
DA:558,0
DA:559,0
DA:560,0
DA:561,0
DA:562,0
DA:563,0
DA:564,0
DA:565,0
DA:567,0
DA:568,0
DA:569,0
DA:570,0
DA:574,0
DA:575,0
DA:576,0
DA:577,0
DA:579,0
DA:580,0
DA:581,0
DA:582,0
DA:583,0
DA:584,0
DA:585,0
DA:586,0
DA:587,0
DA:588,0
DA:589,0
DA:590,0
DA:593,0
DA:594,0
DA:595,0
DA:596,0
DA:597,0
DA:598,0
DA:599,0
DA:600,0
DA:601,0
DA:603,0
DA:604,0
DA:605,0
DA:606,0
DA:607,0
DA:608,0
DA:609,0
DA:610,0
DA:611,0
DA:612,0
DA:616,0
DA:617,0
DA:618,0
DA:619,0
DA:620,0
DA:621,0
DA:622,0
DA:623,0
DA:624,0
DA:625,0
DA:626,0
DA:628,0
DA:631,0
DA:632,0
DA:633,0
DA:634,0
DA:635,0
DA:636,0
DA:638,0
DA:639,0
DA:640,0
DA:641,0
DA:642,0
DA:643,0
DA:644,0
DA:647,0
DA:649,0
DA:650,0
DA:651,0
DA:652,0
DA:653,0
DA:654,0
DA:655,0
DA:656,0
DA:657,0
DA:658,0
DA:660,0
DA:663,0
DA:665,0
DA:666,0
DA:667,0
DA:668,0
DA:669,0
DA:670,0
DA:671,0
DA:672,0
DA:673,0
DA:674,0
DA:675,0
DA:676,0
DA:680,0
DA:681,0
DA:683,0
DA:684,0
DA:685,0
DA:686,0
DA:687,0
DA:688,0
DA:689,0
DA:690,0
DA:691,0
DA:692,0
DA:693,0
DA:694,0
DA:695,0
DA:696,0
DA:697,0
DA:699,0
DA:702,0
DA:703,0
DA:705,0
DA:706,0
DA:709,0
DA:710,0
DA:711,0
DA:712,0
DA:717,0
DA:719,0
DA:720,0
DA:721,0
DA:722,0
DA:723,0
DA:724,0
DA:725,0
DA:726,0
DA:727,0
DA:728,0
DA:729,0
DA:732,0
DA:734,0
DA:735,0
DA:736,0
DA:737,0
DA:738,0
DA:739,0
DA:740,0
DA:741,0
DA:742,0
DA:743,0
DA:744,0
DA:745,0
DA:746,0
DA:747,0
DA:751,0
DA:752,0
DA:753,0
DA:754,0
DA:755,0
DA:756,0
DA:757,0
DA:758,0
DA:759,0
DA:760,0
DA:761,0
DA:762,0
DA:767,0
DA:768,0
DA:769,0
DA:770,0
DA:771,0
DA:774,0
DA:775,0
DA:776,0
DA:777,0
DA:778,0
DA:779,0
DA:783,0
DA:784,0
DA:787,0
DA:788,0
DA:790,0
DA:793,0
DA:794,0
DA:795,0
DA:796,0
DA:797,0
DA:798,0
DA:799,0
DA:800,0
DA:801,0
DA:802,0
DA:803,0
DA:804,0
DA:805,0
BRF:0
BRH:0
LF:647
LH:0
end_of_record
SF:/mnt/d/prj/intent-engine/src/dashboard/models.rs
FN:115,_RNvNtNtCsjp9E11WtBq9_13intent_engine9dashboard6models12default_true
FN:115,_RNvNtNtCs86Lp2I5pN1o_13intent_engine9dashboard6models12default_true
FN:152,_RNvNtNtNtCs86Lp2I5pN1o_13intent_engine9dashboard6models5testss_26test_search_query_defaults
FN:228,_RNvNtNtNtCs86Lp2I5pN1o_13intent_engine9dashboard6models5testss_27test_api_error_with_details
FN:140,_RNvNtNtNtCs86Lp2I5pN1o_13intent_engine9dashboard6models5testss_28test_api_error_serialization
FN:133,_RNvNtNtNtCs86Lp2I5pN1o_13intent_engine9dashboard6models5testss_31test_api_response_serialization
FN:242,_RNvNtNtNtCs86Lp2I5pN1o_13intent_engine9dashboard6models5testss_32test_search_query_with_overrides
FN:194,_RNvNtNtNtCs86Lp2I5pN1o_13intent_engine9dashboard6models5testss_36test_task_list_query_deserialization
FN:202,_RNvNtNtNtCs86Lp2I5pN1o_13intent_engine9dashboard6models5testss_36test_task_list_query_with_pagination
FN:212,_RNvNtNtNtCs86Lp2I5pN1o_13intent_engine9dashboard6models5testss_37test_event_list_query_deserialization
FN:124,_RNvNtNtNtCs86Lp2I5pN1o_13intent_engine9dashboard6models5testss_40test_create_task_request_deserialization
FN:161,_RNvNtNtNtCs86Lp2I5pN1o_13intent_engine9dashboard6models5testss_40test_update_task_request_deserialization
FN:170,_RNvNtNtNtCs86Lp2I5pN1o_13intent_engine9dashboard6models5testss_41test_create_event_request_deserialization
FN:178,_RNvNtNtNtCs86Lp2I5pN1o_13intent_engine9dashboard6models5testss_41test_update_event_request_deserialization
FN:186,_RNvNtNtNtCs86Lp2I5pN1o_13intent_engine9dashboard6models5testss_42test_spawn_subtask_request_deserialization
FN:221,_RNvNtNtNtCs86Lp2I5pN1o_13intent_engine9dashboard6models5testss_43test_switch_project_request_deserialization
FNDA:0,_RNvNtNtCsjp9E11WtBq9_13intent_engine9dashboard6models12default_true
FNDA:2,_RNvNtNtCs86Lp2I5pN1o_13intent_engine9dashboard6models12default_true
FNDA:1,_RNvNtNtNtCs86Lp2I5pN1o_13intent_engine9dashboard6models5testss_26test_search_query_defaults
FNDA:1,_RNvNtNtNtCs86Lp2I5pN1o_13intent_engine9dashboard6models5testss_27test_api_error_with_details
FNDA:1,_RNvNtNtNtCs86Lp2I5pN1o_13intent_engine9dashboard6models5testss_28test_api_error_serialization
FNDA:1,_RNvNtNtNtCs86Lp2I5pN1o_13intent_engine9dashboard6models5testss_31test_api_response_serialization
FNDA:1,_RNvNtNtNtCs86Lp2I5pN1o_13intent_engine9dashboard6models5testss_32test_search_query_with_overrides
FNDA:1,_RNvNtNtNtCs86Lp2I5pN1o_13intent_engine9dashboard6models5testss_36test_task_list_query_deserialization
FNDA:1,_RNvNtNtNtCs86Lp2I5pN1o_13intent_engine9dashboard6models5testss_36test_task_list_query_with_pagination
FNDA:1,_RNvNtNtNtCs86Lp2I5pN1o_13intent_engine9dashboard6models5testss_37test_event_list_query_deserialization
FNDA:1,_RNvNtNtNtCs86Lp2I5pN1o_13intent_engine9dashboard6models5testss_40test_create_task_request_deserialization
FNDA:1,_RNvNtNtNtCs86Lp2I5pN1o_13intent_engine9dashboard6models5testss_40test_update_task_request_deserialization
FNDA:1,_RNvNtNtNtCs86Lp2I5pN1o_13intent_engine9dashboard6models5testss_41test_create_event_request_deserialization
FNDA:1,_RNvNtNtNtCs86Lp2I5pN1o_13intent_engine9dashboard6models5testss_41test_update_event_request_deserialization
FNDA:1,_RNvNtNtNtCs86Lp2I5pN1o_13intent_engine9dashboard6models5testss_42test_spawn_subtask_request_deserialization
FNDA:1,_RNvNtNtNtCs86Lp2I5pN1o_13intent_engine9dashboard6models5testss_43test_switch_project_request_deserialization
FNF:15
FNH:15
DA:115,2
DA:116,2
DA:117,2
DA:124,1
DA:125,1
DA:126,1
DA:127,1
DA:128,1
DA:129,1
DA:130,1
DA:133,1
DA:134,1
DA:135,1
DA:136,1
DA:137,1
DA:140,1
DA:141,1
DA:142,1
DA:143,1
DA:144,1
DA:145,1
DA:146,1
DA:147,1
DA:148,1
DA:149,1
DA:152,1
DA:153,1
DA:154,1
DA:155,1
DA:156,1
DA:157,1
DA:158,1
DA:161,1
DA:162,1
DA:163,1
DA:164,1
DA:165,1
DA:166,1
DA:167,1
DA:170,1
DA:171,1
DA:172,1
DA:173,1
DA:174,1
DA:175,1
DA:178,1
DA:179,1
DA:180,1
DA:181,1
DA:182,1
DA:183,1
DA:186,1
DA:187,1
DA:188,1
DA:189,1
DA:190,1
DA:191,1
DA:194,1
DA:195,1
DA:196,1
DA:197,1
DA:198,1
DA:199,1
DA:202,1
DA:203,1
DA:204,1
DA:205,1
DA:206,1
DA:207,1
DA:208,1
DA:209,1
DA:212,1
DA:213,1
DA:214,1
DA:215,1
DA:216,1
DA:217,1
DA:218,1
DA:221,1
DA:222,1
DA:223,1
DA:224,1
DA:225,1
DA:228,1
DA:229,1
DA:230,1
DA:231,1
DA:232,1
DA:233,1
DA:234,1
DA:235,1
DA:236,1
DA:237,1
DA:238,1
DA:239,1
DA:242,1
DA:243,1
DA:244,1
DA:245,1
DA:246,1
DA:247,1
DA:248,1
DA:249,1
BRF:0
BRH:0
LF:103
LH:103
end_of_record
SF:/mnt/d/prj/intent-engine/src/dashboard/routes.rs
FN:10,_RNvNtNtCsjp9E11WtBq9_13intent_engine9dashboard6routes10api_routes
FN:10,_RNvNtNtCs86Lp2I5pN1o_13intent_engine9dashboard6routes10api_routes
FN:46,_RNvNtNtNtCs86Lp2I5pN1o_13intent_engine9dashboard6routes5testss_24test_api_routes_creation
FNDA:0,_RNvNtNtCsjp9E11WtBq9_13intent_engine9dashboard6routes10api_routes
FNDA:1,_RNvNtNtCs86Lp2I5pN1o_13intent_engine9dashboard6routes10api_routes
FNDA:1,_RNvNtNtNtCs86Lp2I5pN1o_13intent_engine9dashboard6routes5testss_24test_api_routes_creation
FNF:2
FNH:2
DA:10,1
DA:11,1
DA:13,1
DA:14,1
DA:15,1
DA:16,1
DA:17,1
DA:18,1
DA:20,1
DA:21,1
DA:23,1
DA:25,1
DA:26,1
DA:27,1
DA:29,1
DA:30,1
DA:31,1
DA:34,1
DA:35,1
DA:36,1
DA:37,1
DA:38,1
DA:39,1
DA:46,1
DA:48,1
DA:49,1
BRF:0
BRH:0
LF:26
LH:26
end_of_record
SF:/mnt/d/prj/intent-engine/src/dashboard/server.rs
FN:77,_RNvMNtNtCsjp9E11WtBq9_13intent_engine9dashboard6serverNtB2_15DashboardServer3new
FN:101,_RNvMNtNtCsjp9E11WtBq9_13intent_engine9dashboard6serverNtB2_15DashboardServer3run
FN:23,_RNvMs_NtNtCsjp9E11WtBq9_13intent_engine9dashboard6serverNtB4_12StaticAssets3get
FN:206,_RNvNtNtCsjp9E11WtBq9_13intent_engine9dashboard6server11serve_index
FN:302,_RNvNtNtCsjp9E11WtBq9_13intent_engine9dashboard6server12info_handler
FN:258,_RNvNtNtCsjp9E11WtBq9_13intent_engine9dashboard6server12serve_assets
FN:228,_RNvNtNtCsjp9E11WtBq9_13intent_engine9dashboard6server12serve_static
FN:169,_RNvNtNtCsjp9E11WtBq9_13intent_engine9dashboard6server13create_router
FN:292,_RNvNtNtCsjp9E11WtBq9_13intent_engine9dashboard6server14health_handler
FN:331,_RNvNtNtCsjp9E11WtBq9_13intent_engine9dashboard6server17not_found_handler
FN:81,_RNCNCNvMNtNtCsjp9E11WtBq9_13intent_engine9dashboard6serverNtB6_15DashboardServer3new00Ba_
FN:143,_RNCNCNvMNtNtCsjp9E11WtBq9_13intent_engine9dashboard6serverNtB6_15DashboardServer3run00Ba_
FN:77,_RNCNvMNtNtCsjp9E11WtBq9_13intent_engine9dashboard6serverNtB4_15DashboardServer3new0B8_
FN:101,_RNCNvMNtNtCsjp9E11WtBq9_13intent_engine9dashboard6serverNtB4_15DashboardServer3run0B8_
FN:206,_RNCNvNtNtCsjp9E11WtBq9_13intent_engine9dashboard6server11serve_index0B7_
FN:302,_RNCNvNtNtCsjp9E11WtBq9_13intent_engine9dashboard6server12info_handler0B7_
FN:258,_RNCNvNtNtCsjp9E11WtBq9_13intent_engine9dashboard6server12serve_assets0B7_
FN:228,_RNCNvNtNtCsjp9E11WtBq9_13intent_engine9dashboard6server12serve_static0B7_
FN:292,_RNCNvNtNtCsjp9E11WtBq9_13intent_engine9dashboard6server14health_handler0B7_
FN:331,_RNCNvNtNtCsjp9E11WtBq9_13intent_engine9dashboard6server17not_found_handler0B7_
FN:77,_RNvMNtNtCs86Lp2I5pN1o_13intent_engine9dashboard6serverNtB2_15DashboardServer3new
FN:101,_RNvMNtNtCs86Lp2I5pN1o_13intent_engine9dashboard6serverNtB2_15DashboardServer3run
FN:23,_RNvMs_NtNtCs86Lp2I5pN1o_13intent_engine9dashboard6serverNtB4_12StaticAssets3get
FN:206,_RNvNtNtCs86Lp2I5pN1o_13intent_engine9dashboard6server11serve_index
FN:302,_RNvNtNtCs86Lp2I5pN1o_13intent_engine9dashboard6server12info_handler
FN:258,_RNvNtNtCs86Lp2I5pN1o_13intent_engine9dashboard6server12serve_assets
FN:228,_RNvNtNtCs86Lp2I5pN1o_13intent_engine9dashboard6server12serve_static
FN:169,_RNvNtNtCs86Lp2I5pN1o_13intent_engine9dashboard6server13create_router
FN:292,_RNvNtNtCs86Lp2I5pN1o_13intent_engine9dashboard6server14health_handler
FN:331,_RNvNtNtCs86Lp2I5pN1o_13intent_engine9dashboard6server17not_found_handler
FN:359,_RNvNtNtNtCs86Lp2I5pN1o_13intent_engine9dashboard6server5testss_31test_project_info_serialization
FN:346,_RNvNtNtNtCs86Lp2I5pN1o_13intent_engine9dashboard6server5testss_34test_health_response_serialization
FN:81,_RNCNCNvMNtNtCs86Lp2I5pN1o_13intent_engine9dashboard6serverNtB6_15DashboardServer3new00Ba_
FN:143,_RNCNCNvMNtNtCs86Lp2I5pN1o_13intent_engine9dashboard6serverNtB6_15DashboardServer3run00Ba_
FN:77,_RNCNvMNtNtCs86Lp2I5pN1o_13intent_engine9dashboard6serverNtB4_15DashboardServer3new0B8_
FN:101,_RNCNvMNtNtCs86Lp2I5pN1o_13intent_engine9dashboard6serverNtB4_15DashboardServer3run0B8_
FN:206,_RNCNvNtNtCs86Lp2I5pN1o_13intent_engine9dashboard6server11serve_index0B7_
FN:302,_RNCNvNtNtCs86Lp2I5pN1o_13intent_engine9dashboard6server12info_handler0B7_
FN:258,_RNCNvNtNtCs86Lp2I5pN1o_13intent_engine9dashboard6server12serve_assets0B7_
FN:228,_RNCNvNtNtCs86Lp2I5pN1o_13intent_engine9dashboard6server12serve_static0B7_
FN:292,_RNCNvNtNtCs86Lp2I5pN1o_13intent_engine9dashboard6server14health_handler0B7_
FN:331,_RNCNvNtNtCs86Lp2I5pN1o_13intent_engine9dashboard6server17not_found_handler0B7_
FNDA:0,_RNvMNtNtCsjp9E11WtBq9_13intent_engine9dashboard6serverNtB2_15DashboardServer3new
FNDA:0,_RNvMNtNtCsjp9E11WtBq9_13intent_engine9dashboard6serverNtB2_15DashboardServer3run
FNDA:0,_RNvMs_NtNtCsjp9E11WtBq9_13intent_engine9dashboard6serverNtB4_12StaticAssets3get
FNDA:0,_RNvNtNtCsjp9E11WtBq9_13intent_engine9dashboard6server11serve_index
FNDA:0,_RNvNtNtCsjp9E11WtBq9_13intent_engine9dashboard6server12info_handler
FNDA:0,_RNvNtNtCsjp9E11WtBq9_13intent_engine9dashboard6server12serve_assets
FNDA:0,_RNvNtNtCsjp9E11WtBq9_13intent_engine9dashboard6server12serve_static
FNDA:0,_RNvNtNtCsjp9E11WtBq9_13intent_engine9dashboard6server13create_router
FNDA:0,_RNvNtNtCsjp9E11WtBq9_13intent_engine9dashboard6server14health_handler
FNDA:0,_RNvNtNtCsjp9E11WtBq9_13intent_engine9dashboard6server17not_found_handler
FNDA:0,_RNCNCNvMNtNtCsjp9E11WtBq9_13intent_engine9dashboard6serverNtB6_15DashboardServer3new00Ba_
FNDA:0,_RNCNCNvMNtNtCsjp9E11WtBq9_13intent_engine9dashboard6serverNtB6_15DashboardServer3run00Ba_
FNDA:0,_RNCNvMNtNtCsjp9E11WtBq9_13intent_engine9dashboard6serverNtB4_15DashboardServer3new0B8_
FNDA:0,_RNCNvMNtNtCsjp9E11WtBq9_13intent_engine9dashboard6serverNtB4_15DashboardServer3run0B8_
FNDA:0,_RNCNvNtNtCsjp9E11WtBq9_13intent_engine9dashboard6server11serve_index0B7_
FNDA:0,_RNCNvNtNtCsjp9E11WtBq9_13intent_engine9dashboard6server12info_handler0B7_
FNDA:0,_RNCNvNtNtCsjp9E11WtBq9_13intent_engine9dashboard6server12serve_assets0B7_
FNDA:0,_RNCNvNtNtCsjp9E11WtBq9_13intent_engine9dashboard6server12serve_static0B7_
FNDA:0,_RNCNvNtNtCsjp9E11WtBq9_13intent_engine9dashboard6server14health_handler0B7_
FNDA:0,_RNCNvNtNtCsjp9E11WtBq9_13intent_engine9dashboard6server17not_found_handler0B7_
FNDA:0,_RNvMNtNtCs86Lp2I5pN1o_13intent_engine9dashboard6serverNtB2_15DashboardServer3new
FNDA:0,_RNvMNtNtCs86Lp2I5pN1o_13intent_engine9dashboard6serverNtB2_15DashboardServer3run
FNDA:0,_RNvMs_NtNtCs86Lp2I5pN1o_13intent_engine9dashboard6serverNtB4_12StaticAssets3get
FNDA:0,_RNvNtNtCs86Lp2I5pN1o_13intent_engine9dashboard6server11serve_index
FNDA:0,_RNvNtNtCs86Lp2I5pN1o_13intent_engine9dashboard6server12info_handler
FNDA:0,_RNvNtNtCs86Lp2I5pN1o_13intent_engine9dashboard6server12serve_assets
FNDA:0,_RNvNtNtCs86Lp2I5pN1o_13intent_engine9dashboard6server12serve_static
FNDA:0,_RNvNtNtCs86Lp2I5pN1o_13intent_engine9dashboard6server13create_router
FNDA:0,_RNvNtNtCs86Lp2I5pN1o_13intent_engine9dashboard6server14health_handler
FNDA:0,_RNvNtNtCs86Lp2I5pN1o_13intent_engine9dashboard6server17not_found_handler
FNDA:1,_RNvNtNtNtCs86Lp2I5pN1o_13intent_engine9dashboard6server5testss_31test_project_info_serialization
FNDA:1,_RNvNtNtNtCs86Lp2I5pN1o_13intent_engine9dashboard6server5testss_34test_health_response_serialization
FNDA:0,_RNCNCNvMNtNtCs86Lp2I5pN1o_13intent_engine9dashboard6serverNtB6_15DashboardServer3new00Ba_
FNDA:0,_RNCNCNvMNtNtCs86Lp2I5pN1o_13intent_engine9dashboard6serverNtB6_15DashboardServer3run00Ba_
FNDA:0,_RNCNvMNtNtCs86Lp2I5pN1o_13intent_engine9dashboard6serverNtB4_15DashboardServer3new0B8_
FNDA:0,_RNCNvMNtNtCs86Lp2I5pN1o_13intent_engine9dashboard6serverNtB4_15DashboardServer3run0B8_
FNDA:0,_RNCNvNtNtCs86Lp2I5pN1o_13intent_engine9dashboard6server11serve_index0B7_
FNDA:0,_RNCNvNtNtCs86Lp2I5pN1o_13intent_engine9dashboard6server12info_handler0B7_
FNDA:0,_RNCNvNtNtCs86Lp2I5pN1o_13intent_engine9dashboard6server12serve_assets0B7_
FNDA:0,_RNCNvNtNtCs86Lp2I5pN1o_13intent_engine9dashboard6server12serve_static0B7_
FNDA:0,_RNCNvNtNtCs86Lp2I5pN1o_13intent_engine9dashboard6server14health_handler0B7_
FNDA:0,_RNCNvNtNtCs86Lp2I5pN1o_13intent_engine9dashboard6server17not_found_handler0B7_
FNF:22
FNH:2
DA:23,0
DA:77,0
DA:79,0
DA:80,0
DA:81,0
DA:82,0
DA:83,0
DA:85,0
DA:86,0
DA:87,0
DA:88,0
DA:90,0
DA:92,0
DA:93,0
DA:94,0
DA:95,0
DA:96,0
DA:97,0
DA:98,0
DA:101,0
DA:103,0
DA:104,0
DA:105,0
DA:106,0
DA:109,0
DA:110,0
DA:111,0
DA:112,0
DA:113,0
DA:114,0
DA:117,0
DA:119,0
DA:120,0
DA:121,0
DA:122,0
DA:123,0
DA:124,0
DA:125,0
DA:126,0
DA:128,0
DA:129,0
DA:130,0
DA:131,0
DA:132,0
DA:133,0
DA:136,0
DA:140,0
DA:141,0
DA:142,0
DA:143,0
DA:145,0
DA:146,0
DA:147,0
DA:150,0
DA:151,0
DA:156,0
DA:157,0
DA:158,0
DA:162,0
DA:164,0
DA:165,0
DA:169,0
DA:173,0
DA:174,0
DA:175,0
DA:176,0
DA:179,0
DA:181,0
DA:183,0
DA:185,0
DA:187,0
DA:189,0
DA:190,0
DA:192,0
DA:194,0
DA:196,0
DA:197,0
DA:198,0
DA:199,0
DA:200,0
DA:202,0
DA:203,0
DA:206,0
DA:207,0
DA:208,0
DA:209,0
DA:210,0
DA:211,0
DA:212,0
DA:213,0
DA:214,0
DA:215,0
DA:216,0
DA:217,0
DA:219,0
DA:220,0
DA:221,0
DA:222,0
DA:223,0
DA:225,0
DA:228,0
DA:230,0
DA:232,0
DA:233,0
DA:234,0
DA:235,0
DA:236,0
DA:237,0
DA:238,0
DA:239,0
DA:240,0
DA:241,0
DA:242,0
DA:243,0
DA:245,0
DA:246,0
DA:247,0
DA:248,0
DA:249,0
DA:250,0
DA:251,0
DA:252,0
DA:253,0
DA:255,0
DA:258,0
DA:260,0
DA:264,0
DA:266,0
DA:267,0
DA:268,0
DA:269,0
DA:270,0
DA:271,0
DA:272,0
DA:273,0
DA:274,0
DA:275,0
DA:276,0
DA:277,0
DA:279,0
DA:280,0
DA:281,0
DA:282,0
DA:283,0
DA:284,0
DA:285,0
DA:286,0
DA:287,0
DA:289,0
DA:292,0
DA:293,0
DA:294,0
DA:295,0
DA:296,0
DA:297,0
DA:298,0
DA:302,0
DA:303,0
DA:306,0
DA:307,0
DA:308,0
DA:309,0
DA:310,0
DA:311,0
DA:312,0
DA:313,0
DA:314,0
DA:315,0
DA:318,0
DA:320,0
DA:321,0
DA:322,0
DA:323,0
DA:324,0
DA:325,0
DA:326,0
DA:327,0
DA:328,0
DA:331,0
DA:332,0
DA:333,0
DA:334,0
DA:335,0
DA:336,0
DA:337,0
DA:338,0
DA:339,0
DA:346,1
DA:347,1
DA:348,1
DA:349,1
DA:350,1
DA:351,1
DA:353,1
DA:354,1
DA:355,1
DA:356,1
DA:359,1
DA:360,1
DA:361,1
DA:362,1
DA:363,1
DA:364,1
DA:365,1
DA:366,1
DA:367,1
DA:369,1
DA:370,1
DA:371,1
DA:372,1
BRF:0
BRH:0
LF:220
LH:23
end_of_record
SF:/mnt/d/prj/intent-engine/src/dashboard/websocket.rs
FN:39,_RINvMNtNtCsjp9E11WtBq9_13intent_engine9dashboard9websocketINtB3_15ProtocolMessageNtB3_11InitPayloadE3newReEB7_
FN:39,_RINvMNtNtCsjp9E11WtBq9_13intent_engine9dashboard9websocketINtB3_15ProtocolMessageNtB3_12EmptyPayloadE3newReEB7_
FN:39,_RINvMNtNtCsjp9E11WtBq9_13intent_engine9dashboard9websocketINtB3_15ProtocolMessageNtB3_12ErrorPayloadE3newReEB7_
FN:39,_RINvMNtNtCsjp9E11WtBq9_13intent_engine9dashboard9websocketINtB3_15ProtocolMessageNtB3_14WelcomePayloadE3newReEB7_
FN:39,_RINvMNtNtCsjp9E11WtBq9_13intent_engine9dashboard9websocketINtB3_15ProtocolMessageNtB3_17RegisteredPayloadE3newReEB7_
FN:39,_RINvMNtNtCsjp9E11WtBq9_13intent_engine9dashboard9websocketINtB3_15ProtocolMessageNtB3_20ProjectOnlinePayloadE3newReEB7_
FN:39,_RINvMNtNtCsjp9E11WtBq9_13intent_engine9dashboard9websocketINtB3_15ProtocolMessageNtB3_21ProjectOfflinePayloadE3newReEB7_
FN:39,_RINvMNtNtCsjp9E11WtBq9_13intent_engine9dashboard9websocketINtB3_15ProtocolMessageNtB3_24DatabaseOperationPayloadE3newReEB7_
FN:344,_RINvMs2_NtNtCsjp9E11WtBq9_13intent_engine9dashboard9websocketNtB6_24DatabaseOperationPayload12task_createdNtNtCs456UZznmu7y_5alloc6string6StringEBa_
FN:374,_RINvMs2_NtNtCsjp9E11WtBq9_13intent_engine9dashboard9websocketNtB6_24DatabaseOperationPayload12task_deletedNtNtCs456UZznmu7y_5alloc6string6StringEBa_
FN:359,_RINvMs2_NtNtCsjp9E11WtBq9_13intent_engine9dashboard9websocketNtB6_24DatabaseOperationPayload12task_updatedNtNtCs456UZznmu7y_5alloc6string6StringEBa_
FN:384,_RINvMs2_NtNtCsjp9E11WtBq9_13intent_engine9dashboard9websocketNtB6_24DatabaseOperationPayload13event_createdNtNtCs456UZznmu7y_5alloc6string6StringEBa_
FN:414,_RINvMs2_NtNtCsjp9E11WtBq9_13intent_engine9dashboard9websocketNtB6_24DatabaseOperationPayload13event_deletedNtNtCs456UZznmu7y_5alloc6string6StringEBa_
FN:399,_RINvMs2_NtNtCsjp9E11WtBq9_13intent_engine9dashboard9websocketNtB6_24DatabaseOperationPayload13event_updatedNtNtCs456UZznmu7y_5alloc6string6StringEBa_
FN:327,_RINvMs2_NtNtCsjp9E11WtBq9_13intent_engine9dashboard9websocketNtB6_24DatabaseOperationPayload3newReB1w_NtNtCs456UZznmu7y_5alloc6string6StringEBa_
FN:424,_RINvNtNtCsjp9E11WtBq9_13intent_engine9dashboard9websocket21send_protocol_messageNtB2_11InitPayloadEB6_
FN:424,_RINvNtNtCsjp9E11WtBq9_13intent_engine9dashboard9websocket21send_protocol_messageNtB2_12EmptyPayloadEB6_
FN:424,_RINvNtNtCsjp9E11WtBq9_13intent_engine9dashboard9websocket21send_protocol_messageNtB2_12ErrorPayloadEB6_
FN:424,_RINvNtNtCsjp9E11WtBq9_13intent_engine9dashboard9websocket21send_protocol_messageNtB2_14WelcomePayloadEB6_
FN:424,_RINvNtNtCsjp9E11WtBq9_13intent_engine9dashboard9websocket21send_protocol_messageNtB2_17RegisteredPayloadEB6_
FN:432,_RNCINvNtNtCsjp9E11WtBq9_13intent_engine9dashboard9websocket21send_protocol_messageNtB4_11InitPayloadE0B8_
FN:435,_RNCINvNtNtCsjp9E11WtBq9_13intent_engine9dashboard9websocket21send_protocol_messageNtB4_11InitPayloadEs_0B8_
FN:432,_RNCINvNtNtCsjp9E11WtBq9_13intent_engine9dashboard9websocket21send_protocol_messageNtB4_12EmptyPayloadE0B8_
FN:435,_RNCINvNtNtCsjp9E11WtBq9_13intent_engine9dashboard9websocket21send_protocol_messageNtB4_12EmptyPayloadEs_0B8_
FN:432,_RNCINvNtNtCsjp9E11WtBq9_13intent_engine9dashboard9websocket21send_protocol_messageNtB4_12ErrorPayloadE0B8_
FN:435,_RNCINvNtNtCsjp9E11WtBq9_13intent_engine9dashboard9websocket21send_protocol_messageNtB4_12ErrorPayloadEs_0B8_
FN:432,_RNCINvNtNtCsjp9E11WtBq9_13intent_engine9dashboard9websocket21send_protocol_messageNtB4_14WelcomePayloadE0B8_
FN:435,_RNCINvNtNtCsjp9E11WtBq9_13intent_engine9dashboard9websocket21send_protocol_messageNtB4_14WelcomePayloadEs_0B8_
FN:432,_RNCINvNtNtCsjp9E11WtBq9_13intent_engine9dashboard9websocket21send_protocol_messageNtB4_17RegisteredPayloadE0B8_
FN:435,_RNCINvNtNtCsjp9E11WtBq9_13intent_engine9dashboard9websocket21send_protocol_messageNtB4_17RegisteredPayloadEs_0B8_
FN:575,_RNCNCNCNvNtNtCsjp9E11WtBq9_13intent_engine9dashboard9websocket17handle_mcp_socket0s0_00Bb_
FN:580,_RNCNCNCNvNtNtCsjp9E11WtBq9_13intent_engine9dashboard9websocket17handle_mcp_socket0s0_0s_0Bb_
FN:173,_RNCNCNvMs1_NtNtCsjp9E11WtBq9_13intent_engine9dashboard9websocketNtB9_14WebSocketState32get_online_projects_with_current00Bd_
FN:196,_RNCNCNvMs1_NtNtCsjp9E11WtBq9_13intent_engine9dashboard9websocketNtB9_14WebSocketState32get_online_projects_with_current0s_0Bd_
FN:731,_RNCNCNvNtNtCsjp9E11WtBq9_13intent_engine9dashboard9websocket16handle_ui_socket00B9_
FN:779,_RNCNCNvNtNtCsjp9E11WtBq9_13intent_engine9dashboard9websocket16handle_ui_socket0s0_0B9_
FN:763,_RNCNCNvNtNtCsjp9E11WtBq9_13intent_engine9dashboard9websocket16handle_ui_socket0s_0B9_
FN:451,_RNCNCNvNtNtCsjp9E11WtBq9_13intent_engine9dashboard9websocket17handle_mcp_socket00B9_
FN:487,_RNCNCNvNtNtCsjp9E11WtBq9_13intent_engine9dashboard9websocket17handle_mcp_socket0s0_0B9_
FN:470,_RNCNCNvNtNtCsjp9E11WtBq9_13intent_engine9dashboard9websocket17handle_mcp_socket0s_0B9_
FN:723,_RNCNCNvNtNtCsjp9E11WtBq9_13intent_engine9dashboard9websocket19handle_ui_websocket00B9_
FN:443,_RNCNCNvNtNtCsjp9E11WtBq9_13intent_engine9dashboard9websocket20handle_mcp_websocket00B9_
FN:131,_RNCNvMs1_NtNtCsjp9E11WtBq9_13intent_engine9dashboard9websocketNtB7_14WebSocketState15broadcast_to_ui0Bb_
FN:163,_RNCNvMs1_NtNtCsjp9E11WtBq9_13intent_engine9dashboard9websocketNtB7_14WebSocketState32get_online_projects_with_current0Bb_
FN:61,_RNCNvMs_NtNtCsjp9E11WtBq9_13intent_engine9dashboard9websocketINtB6_15ProtocolMessageNtNtCs3Jf4Gf7dOlE_10serde_json5value5ValueE9from_json0Ba_
FN:726,_RNCNvNtNtCsjp9E11WtBq9_13intent_engine9dashboard9websocket16handle_ui_socket0B7_
FN:446,_RNCNvNtNtCsjp9E11WtBq9_13intent_engine9dashboard9websocket17handle_mcp_socket0B7_
FN:722,_RNCNvNtNtCsjp9E11WtBq9_13intent_engine9dashboard9websocket19handle_ui_websocket0B7_
FN:442,_RNCNvNtNtCsjp9E11WtBq9_13intent_engine9dashboard9websocket20handle_mcp_websocket0B7_
FN:49,_RNvMNtNtCsjp9E11WtBq9_13intent_engine9dashboard9websocketINtB2_15ProtocolMessageNtB2_11InitPayloadE7to_jsonB6_
FN:49,_RNvMNtNtCsjp9E11WtBq9_13intent_engine9dashboard9websocketINtB2_15ProtocolMessageNtB2_12EmptyPayloadE7to_jsonB6_
FN:49,_RNvMNtNtCsjp9E11WtBq9_13intent_engine9dashboard9websocketINtB2_15ProtocolMessageNtB2_12ErrorPayloadE7to_jsonB6_
FN:49,_RNvMNtNtCsjp9E11WtBq9_13intent_engine9dashboard9websocketINtB2_15ProtocolMessageNtB2_14WelcomePayloadE7to_jsonB6_
FN:49,_RNvMNtNtCsjp9E11WtBq9_13intent_engine9dashboard9websocketINtB2_15ProtocolMessageNtB2_17RegisteredPayloadE7to_jsonB6_
FN:49,_RNvMNtNtCsjp9E11WtBq9_13intent_engine9dashboard9websocketINtB2_15ProtocolMessageNtB2_20ProjectOnlinePayloadE7to_jsonB6_
FN:49,_RNvMNtNtCsjp9E11WtBq9_13intent_engine9dashboard9websocketINtB2_15ProtocolMessageNtB2_21ProjectOfflinePayloadE7to_jsonB6_
FN:49,_RNvMNtNtCsjp9E11WtBq9_13intent_engine9dashboard9websocketINtB2_15ProtocolMessageNtB2_24DatabaseOperationPayloadE7to_jsonB6_
FN:59,_RNvMs_NtNtCsjp9E11WtBq9_13intent_engine9dashboard9websocketINtB4_15ProtocolMessageNtNtCs3Jf4Gf7dOlE_10serde_json5value5ValueE9from_jsonB8_
FN:379,_RINvMs2_NtNtCsjp9E11WtBq9_13intent_engine9dashboard9websocketNtB6_24DatabaseOperationPayload9task_readpEBa_
FN:145,_RNCNCNvMs1_NtNtCsjp9E11WtBq9_13intent_engine9dashboard9websocketNtB9_14WebSocketState19get_online_projects00Bd_
FN:139,_RNCNvMs1_NtNtCsjp9E11WtBq9_13intent_engine9dashboard9websocketNtB7_14WebSocketState19get_online_projects0Bb_
FN:131,_RNvMs1_NtNtCsjp9E11WtBq9_13intent_engine9dashboard9websocketNtB5_14WebSocketState15broadcast_to_ui
FN:139,_RNvMs1_NtNtCsjp9E11WtBq9_13intent_engine9dashboard9websocketNtB5_14WebSocketState19get_online_projects
FN:156,_RNvMs1_NtNtCsjp9E11WtBq9_13intent_engine9dashboard9websocketNtB5_14WebSocketState32get_online_projects_with_current
FN:123,_RNvMs1_NtNtCsjp9E11WtBq9_13intent_engine9dashboard9websocketNtB5_14WebSocketState3new
FN:726,_RNvNtNtCsjp9E11WtBq9_13intent_engine9dashboard9websocket16handle_ui_socket
FN:446,_RNvNtNtCsjp9E11WtBq9_13intent_engine9dashboard9websocket17handle_mcp_socket
FN:719,_RNvNtNtCsjp9E11WtBq9_13intent_engine9dashboard9websocket19handle_ui_websocket
FN:439,_RNvNtNtCsjp9E11WtBq9_13intent_engine9dashboard9websocket20handle_mcp_websocket
FN:117,_RNvXs0_NtNtCsjp9E11WtBq9_13intent_engine9dashboard9websocketNtB5_14WebSocketStateNtNtCs4Vq2ZLagKfv_4core7default7Default7default
FN:379,_RINvMs2_NtNtCs86Lp2I5pN1o_13intent_engine9dashboard9websocketNtB6_24DatabaseOperationPayload9task_readpEBa_
FN:145,_RNCNCNvMs1_NtNtCs86Lp2I5pN1o_13intent_engine9dashboard9websocketNtB9_14WebSocketState19get_online_projects00Bd_
FN:139,_RNCNvMs1_NtNtCs86Lp2I5pN1o_13intent_engine9dashboard9websocketNtB7_14WebSocketState19get_online_projects0Bb_
FN:139,_RNvMs1_NtNtCs86Lp2I5pN1o_13intent_engine9dashboard9websocketNtB5_14WebSocketState19get_online_projects
FN:117,_RNvXs0_NtNtCs86Lp2I5pN1o_13intent_engine9dashboard9websocketNtB5_14WebSocketStateNtNtCs4Vq2ZLagKfv_4core7default7Default7default
FN:131,_RNvMs1_NtNtCs86Lp2I5pN1o_13intent_engine9dashboard9websocketNtB5_14WebSocketState15broadcast_to_ui
FN:156,_RNvMs1_NtNtCs86Lp2I5pN1o_13intent_engine9dashboard9websocketNtB5_14WebSocketState32get_online_projects_with_current
FN:123,_RNvMs1_NtNtCs86Lp2I5pN1o_13intent_engine9dashboard9websocketNtB5_14WebSocketState3new
FN:726,_RNvNtNtCs86Lp2I5pN1o_13intent_engine9dashboard9websocket16handle_ui_socket
FN:446,_RNvNtNtCs86Lp2I5pN1o_13intent_engine9dashboard9websocket17handle_mcp_socket
FN:719,_RNvNtNtCs86Lp2I5pN1o_13intent_engine9dashboard9websocket19handle_ui_websocket
FN:439,_RNvNtNtCs86Lp2I5pN1o_13intent_engine9dashboard9websocket20handle_mcp_websocket
FN:39,_RINvMNtNtCs86Lp2I5pN1o_13intent_engine9dashboard9websocketINtB3_15ProtocolMessageNtB3_11InitPayloadE3newReEB7_
FN:39,_RINvMNtNtCs86Lp2I5pN1o_13intent_engine9dashboard9websocketINtB3_15ProtocolMessageNtB3_12EmptyPayloadE3newReEB7_
FN:39,_RINvMNtNtCs86Lp2I5pN1o_13intent_engine9dashboard9websocketINtB3_15ProtocolMessageNtB3_12ErrorPayloadE3newReEB7_
FN:39,_RINvMNtNtCs86Lp2I5pN1o_13intent_engine9dashboard9websocketINtB3_15ProtocolMessageNtB3_14WelcomePayloadE3newReEB7_
FN:39,_RINvMNtNtCs86Lp2I5pN1o_13intent_engine9dashboard9websocketINtB3_15ProtocolMessageNtB3_17RegisteredPayloadE3newReEB7_
FN:39,_RINvMNtNtCs86Lp2I5pN1o_13intent_engine9dashboard9websocketINtB3_15ProtocolMessageNtB3_20ProjectOnlinePayloadE3newReEB7_
FN:39,_RINvMNtNtCs86Lp2I5pN1o_13intent_engine9dashboard9websocketINtB3_15ProtocolMessageNtB3_21ProjectOfflinePayloadE3newReEB7_
FN:39,_RINvMNtNtCs86Lp2I5pN1o_13intent_engine9dashboard9websocketINtB3_15ProtocolMessageNtB3_24DatabaseOperationPayloadE3newReEB7_
FN:344,_RINvMs2_NtNtCs86Lp2I5pN1o_13intent_engine9dashboard9websocketNtB6_24DatabaseOperationPayload12task_createdNtNtCs456UZznmu7y_5alloc6string6StringEBa_
FN:374,_RINvMs2_NtNtCs86Lp2I5pN1o_13intent_engine9dashboard9websocketNtB6_24DatabaseOperationPayload12task_deletedNtNtCs456UZznmu7y_5alloc6string6StringEBa_
FN:359,_RINvMs2_NtNtCs86Lp2I5pN1o_13intent_engine9dashboard9websocketNtB6_24DatabaseOperationPayload12task_updatedNtNtCs456UZznmu7y_5alloc6string6StringEBa_
FN:384,_RINvMs2_NtNtCs86Lp2I5pN1o_13intent_engine9dashboard9websocketNtB6_24DatabaseOperationPayload13event_createdNtNtCs456UZznmu7y_5alloc6string6StringEBa_
FN:414,_RINvMs2_NtNtCs86Lp2I5pN1o_13intent_engine9dashboard9websocketNtB6_24DatabaseOperationPayload13event_deletedNtNtCs456UZznmu7y_5alloc6string6StringEBa_
FN:399,_RINvMs2_NtNtCs86Lp2I5pN1o_13intent_engine9dashboard9websocketNtB6_24DatabaseOperationPayload13event_updatedNtNtCs456UZznmu7y_5alloc6string6StringEBa_
FN:327,_RINvMs2_NtNtCs86Lp2I5pN1o_13intent_engine9dashboard9websocketNtB6_24DatabaseOperationPayload3newReB1w_NtNtCs456UZznmu7y_5alloc6string6StringEBa_
FN:424,_RINvNtNtCs86Lp2I5pN1o_13intent_engine9dashboard9websocket21send_protocol_messageNtB2_11InitPayloadEB6_
FN:424,_RINvNtNtCs86Lp2I5pN1o_13intent_engine9dashboard9websocket21send_protocol_messageNtB2_12EmptyPayloadEB6_
FN:424,_RINvNtNtCs86Lp2I5pN1o_13intent_engine9dashboard9websocket21send_protocol_messageNtB2_12ErrorPayloadEB6_
FN:424,_RINvNtNtCs86Lp2I5pN1o_13intent_engine9dashboard9websocket21send_protocol_messageNtB2_14WelcomePayloadEB6_
FN:424,_RINvNtNtCs86Lp2I5pN1o_13intent_engine9dashboard9websocket21send_protocol_messageNtB2_17RegisteredPayloadEB6_
FN:432,_RNCINvNtNtCs86Lp2I5pN1o_13intent_engine9dashboard9websocket21send_protocol_messageNtB4_11InitPayloadE0B8_
FN:435,_RNCINvNtNtCs86Lp2I5pN1o_13intent_engine9dashboard9websocket21send_protocol_messageNtB4_11InitPayloadEs_0B8_
FN:432,_RNCINvNtNtCs86Lp2I5pN1o_13intent_engine9dashboard9websocket21send_protocol_messageNtB4_12EmptyPayloadE0B8_
FN:435,_RNCINvNtNtCs86Lp2I5pN1o_13intent_engine9dashboard9websocket21send_protocol_messageNtB4_12EmptyPayloadEs_0B8_
FN:432,_RNCINvNtNtCs86Lp2I5pN1o_13intent_engine9dashboard9websocket21send_protocol_messageNtB4_12ErrorPayloadE0B8_
FN:435,_RNCINvNtNtCs86Lp2I5pN1o_13intent_engine9dashboard9websocket21send_protocol_messageNtB4_12ErrorPayloadEs_0B8_
FN:432,_RNCINvNtNtCs86Lp2I5pN1o_13intent_engine9dashboard9websocket21send_protocol_messageNtB4_14WelcomePayloadE0B8_
FN:435,_RNCINvNtNtCs86Lp2I5pN1o_13intent_engine9dashboard9websocket21send_protocol_messageNtB4_14WelcomePayloadEs_0B8_
FN:432,_RNCINvNtNtCs86Lp2I5pN1o_13intent_engine9dashboard9websocket21send_protocol_messageNtB4_17RegisteredPayloadE0B8_
FN:435,_RNCINvNtNtCs86Lp2I5pN1o_13intent_engine9dashboard9websocket21send_protocol_messageNtB4_17RegisteredPayloadEs_0B8_
FN:575,_RNCNCNCNvNtNtCs86Lp2I5pN1o_13intent_engine9dashboard9websocket17handle_mcp_socket0s0_00Bb_
FN:580,_RNCNCNCNvNtNtCs86Lp2I5pN1o_13intent_engine9dashboard9websocket17handle_mcp_socket0s0_0s_0Bb_
FN:173,_RNCNCNvMs1_NtNtCs86Lp2I5pN1o_13intent_engine9dashboard9websocketNtB9_14WebSocketState32get_online_projects_with_current00Bd_
FN:196,_RNCNCNvMs1_NtNtCs86Lp2I5pN1o_13intent_engine9dashboard9websocketNtB9_14WebSocketState32get_online_projects_with_current0s_0Bd_
FN:731,_RNCNCNvNtNtCs86Lp2I5pN1o_13intent_engine9dashboard9websocket16handle_ui_socket00B9_
FN:779,_RNCNCNvNtNtCs86Lp2I5pN1o_13intent_engine9dashboard9websocket16handle_ui_socket0s0_0B9_
FN:763,_RNCNCNvNtNtCs86Lp2I5pN1o_13intent_engine9dashboard9websocket16handle_ui_socket0s_0B9_
FN:451,_RNCNCNvNtNtCs86Lp2I5pN1o_13intent_engine9dashboard9websocket17handle_mcp_socket00B9_
FN:487,_RNCNCNvNtNtCs86Lp2I5pN1o_13intent_engine9dashboard9websocket17handle_mcp_socket0s0_0B9_
FN:470,_RNCNCNvNtNtCs86Lp2I5pN1o_13intent_engine9dashboard9websocket17handle_mcp_socket0s_0B9_
FN:723,_RNCNCNvNtNtCs86Lp2I5pN1o_13intent_engine9dashboard9websocket19handle_ui_websocket00B9_
FN:443,_RNCNCNvNtNtCs86Lp2I5pN1o_13intent_engine9dashboard9websocket20handle_mcp_websocket00B9_
FN:131,_RNCNvMs1_NtNtCs86Lp2I5pN1o_13intent_engine9dashboard9websocketNtB7_14WebSocketState15broadcast_to_ui0Bb_
FN:163,_RNCNvMs1_NtNtCs86Lp2I5pN1o_13intent_engine9dashboard9websocketNtB7_14WebSocketState32get_online_projects_with_current0Bb_
FN:61,_RNCNvMs_NtNtCs86Lp2I5pN1o_13intent_engine9dashboard9websocketINtB6_15ProtocolMessageNtNtCs3Jf4Gf7dOlE_10serde_json5value5ValueE9from_json0Ba_
FN:726,_RNCNvNtNtCs86Lp2I5pN1o_13intent_engine9dashboard9websocket16handle_ui_socket0B7_
FN:446,_RNCNvNtNtCs86Lp2I5pN1o_13intent_engine9dashboard9websocket17handle_mcp_socket0B7_
FN:722,_RNCNvNtNtCs86Lp2I5pN1o_13intent_engine9dashboard9websocket19handle_ui_websocket0B7_
FN:442,_RNCNvNtNtCs86Lp2I5pN1o_13intent_engine9dashboard9websocket20handle_mcp_websocket0B7_
FN:49,_RNvMNtNtCs86Lp2I5pN1o_13intent_engine9dashboard9websocketINtB2_15ProtocolMessageNtB2_11InitPayloadE7to_jsonB6_
FN:49,_RNvMNtNtCs86Lp2I5pN1o_13intent_engine9dashboard9websocketINtB2_15ProtocolMessageNtB2_12EmptyPayloadE7to_jsonB6_
FN:49,_RNvMNtNtCs86Lp2I5pN1o_13intent_engine9dashboard9websocketINtB2_15ProtocolMessageNtB2_12ErrorPayloadE7to_jsonB6_
FN:49,_RNvMNtNtCs86Lp2I5pN1o_13intent_engine9dashboard9websocketINtB2_15ProtocolMessageNtB2_14WelcomePayloadE7to_jsonB6_
FN:49,_RNvMNtNtCs86Lp2I5pN1o_13intent_engine9dashboard9websocketINtB2_15ProtocolMessageNtB2_17RegisteredPayloadE7to_jsonB6_
FN:49,_RNvMNtNtCs86Lp2I5pN1o_13intent_engine9dashboard9websocketINtB2_15ProtocolMessageNtB2_20ProjectOnlinePayloadE7to_jsonB6_
FN:49,_RNvMNtNtCs86Lp2I5pN1o_13intent_engine9dashboard9websocketINtB2_15ProtocolMessageNtB2_21ProjectOfflinePayloadE7to_jsonB6_
FN:49,_RNvMNtNtCs86Lp2I5pN1o_13intent_engine9dashboard9websocketINtB2_15ProtocolMessageNtB2_24DatabaseOperationPayloadE7to_jsonB6_
FN:59,_RNvMs_NtNtCs86Lp2I5pN1o_13intent_engine9dashboard9websocketINtB4_15ProtocolMessageNtNtCs3Jf4Gf7dOlE_10serde_json5value5ValueE9from_jsonB8_
FNDA:0,_RINvMNtNtCsjp9E11WtBq9_13intent_engine9dashboard9websocketINtB3_15ProtocolMessageNtB3_11InitPayloadE3newReEB7_
FNDA:0,_RINvMNtNtCsjp9E11WtBq9_13intent_engine9dashboard9websocketINtB3_15ProtocolMessageNtB3_12EmptyPayloadE3newReEB7_
FNDA:0,_RINvMNtNtCsjp9E11WtBq9_13intent_engine9dashboard9websocketINtB3_15ProtocolMessageNtB3_12ErrorPayloadE3newReEB7_
FNDA:0,_RINvMNtNtCsjp9E11WtBq9_13intent_engine9dashboard9websocketINtB3_15ProtocolMessageNtB3_14WelcomePayloadE3newReEB7_
FNDA:0,_RINvMNtNtCsjp9E11WtBq9_13intent_engine9dashboard9websocketINtB3_15ProtocolMessageNtB3_17RegisteredPayloadE3newReEB7_
FNDA:0,_RINvMNtNtCsjp9E11WtBq9_13intent_engine9dashboard9websocketINtB3_15ProtocolMessageNtB3_20ProjectOnlinePayloadE3newReEB7_
FNDA:0,_RINvMNtNtCsjp9E11WtBq9_13intent_engine9dashboard9websocketINtB3_15ProtocolMessageNtB3_21ProjectOfflinePayloadE3newReEB7_
FNDA:0,_RINvMNtNtCsjp9E11WtBq9_13intent_engine9dashboard9websocketINtB3_15ProtocolMessageNtB3_24DatabaseOperationPayloadE3newReEB7_
FNDA:0,_RINvMs2_NtNtCsjp9E11WtBq9_13intent_engine9dashboard9websocketNtB6_24DatabaseOperationPayload12task_createdNtNtCs456UZznmu7y_5alloc6string6StringEBa_
FNDA:0,_RINvMs2_NtNtCsjp9E11WtBq9_13intent_engine9dashboard9websocketNtB6_24DatabaseOperationPayload12task_deletedNtNtCs456UZznmu7y_5alloc6string6StringEBa_
FNDA:0,_RINvMs2_NtNtCsjp9E11WtBq9_13intent_engine9dashboard9websocketNtB6_24DatabaseOperationPayload12task_updatedNtNtCs456UZznmu7y_5alloc6string6StringEBa_
FNDA:0,_RINvMs2_NtNtCsjp9E11WtBq9_13intent_engine9dashboard9websocketNtB6_24DatabaseOperationPayload13event_createdNtNtCs456UZznmu7y_5alloc6string6StringEBa_
FNDA:0,_RINvMs2_NtNtCsjp9E11WtBq9_13intent_engine9dashboard9websocketNtB6_24DatabaseOperationPayload13event_deletedNtNtCs456UZznmu7y_5alloc6string6StringEBa_
FNDA:0,_RINvMs2_NtNtCsjp9E11WtBq9_13intent_engine9dashboard9websocketNtB6_24DatabaseOperationPayload13event_updatedNtNtCs456UZznmu7y_5alloc6string6StringEBa_
FNDA:0,_RINvMs2_NtNtCsjp9E11WtBq9_13intent_engine9dashboard9websocketNtB6_24DatabaseOperationPayload3newReB1w_NtNtCs456UZznmu7y_5alloc6string6StringEBa_
FNDA:0,_RINvNtNtCsjp9E11WtBq9_13intent_engine9dashboard9websocket21send_protocol_messageNtB2_11InitPayloadEB6_
FNDA:0,_RINvNtNtCsjp9E11WtBq9_13intent_engine9dashboard9websocket21send_protocol_messageNtB2_12EmptyPayloadEB6_
FNDA:0,_RINvNtNtCsjp9E11WtBq9_13intent_engine9dashboard9websocket21send_protocol_messageNtB2_12ErrorPayloadEB6_
FNDA:0,_RINvNtNtCsjp9E11WtBq9_13intent_engine9dashboard9websocket21send_protocol_messageNtB2_14WelcomePayloadEB6_
FNDA:0,_RINvNtNtCsjp9E11WtBq9_13intent_engine9dashboard9websocket21send_protocol_messageNtB2_17RegisteredPayloadEB6_
FNDA:0,_RNCINvNtNtCsjp9E11WtBq9_13intent_engine9dashboard9websocket21send_protocol_messageNtB4_11InitPayloadE0B8_
FNDA:0,_RNCINvNtNtCsjp9E11WtBq9_13intent_engine9dashboard9websocket21send_protocol_messageNtB4_11InitPayloadEs_0B8_
FNDA:0,_RNCINvNtNtCsjp9E11WtBq9_13intent_engine9dashboard9websocket21send_protocol_messageNtB4_12EmptyPayloadE0B8_
FNDA:0,_RNCINvNtNtCsjp9E11WtBq9_13intent_engine9dashboard9websocket21send_protocol_messageNtB4_12EmptyPayloadEs_0B8_
FNDA:0,_RNCINvNtNtCsjp9E11WtBq9_13intent_engine9dashboard9websocket21send_protocol_messageNtB4_12ErrorPayloadE0B8_
FNDA:0,_RNCINvNtNtCsjp9E11WtBq9_13intent_engine9dashboard9websocket21send_protocol_messageNtB4_12ErrorPayloadEs_0B8_
FNDA:0,_RNCINvNtNtCsjp9E11WtBq9_13intent_engine9dashboard9websocket21send_protocol_messageNtB4_14WelcomePayloadE0B8_
FNDA:0,_RNCINvNtNtCsjp9E11WtBq9_13intent_engine9dashboard9websocket21send_protocol_messageNtB4_14WelcomePayloadEs_0B8_
FNDA:0,_RNCINvNtNtCsjp9E11WtBq9_13intent_engine9dashboard9websocket21send_protocol_messageNtB4_17RegisteredPayloadE0B8_
FNDA:0,_RNCINvNtNtCsjp9E11WtBq9_13intent_engine9dashboard9websocket21send_protocol_messageNtB4_17RegisteredPayloadEs_0B8_
FNDA:0,_RNCNCNCNvNtNtCsjp9E11WtBq9_13intent_engine9dashboard9websocket17handle_mcp_socket0s0_00Bb_
FNDA:0,_RNCNCNCNvNtNtCsjp9E11WtBq9_13intent_engine9dashboard9websocket17handle_mcp_socket0s0_0s_0Bb_
FNDA:0,_RNCNCNvMs1_NtNtCsjp9E11WtBq9_13intent_engine9dashboard9websocketNtB9_14WebSocketState32get_online_projects_with_current00Bd_
FNDA:0,_RNCNCNvMs1_NtNtCsjp9E11WtBq9_13intent_engine9dashboard9websocketNtB9_14WebSocketState32get_online_projects_with_current0s_0Bd_
FNDA:0,_RNCNCNvNtNtCsjp9E11WtBq9_13intent_engine9dashboard9websocket16handle_ui_socket00B9_
FNDA:0,_RNCNCNvNtNtCsjp9E11WtBq9_13intent_engine9dashboard9websocket16handle_ui_socket0s0_0B9_
FNDA:0,_RNCNCNvNtNtCsjp9E11WtBq9_13intent_engine9dashboard9websocket16handle_ui_socket0s_0B9_
FNDA:0,_RNCNCNvNtNtCsjp9E11WtBq9_13intent_engine9dashboard9websocket17handle_mcp_socket00B9_
FNDA:0,_RNCNCNvNtNtCsjp9E11WtBq9_13intent_engine9dashboard9websocket17handle_mcp_socket0s0_0B9_
FNDA:0,_RNCNCNvNtNtCsjp9E11WtBq9_13intent_engine9dashboard9websocket17handle_mcp_socket0s_0B9_
FNDA:0,_RNCNCNvNtNtCsjp9E11WtBq9_13intent_engine9dashboard9websocket19handle_ui_websocket00B9_
FNDA:0,_RNCNCNvNtNtCsjp9E11WtBq9_13intent_engine9dashboard9websocket20handle_mcp_websocket00B9_
FNDA:0,_RNCNvMs1_NtNtCsjp9E11WtBq9_13intent_engine9dashboard9websocketNtB7_14WebSocketState15broadcast_to_ui0Bb_
FNDA:0,_RNCNvMs1_NtNtCsjp9E11WtBq9_13intent_engine9dashboard9websocketNtB7_14WebSocketState32get_online_projects_with_current0Bb_
FNDA:0,_RNCNvMs_NtNtCsjp9E11WtBq9_13intent_engine9dashboard9websocketINtB6_15ProtocolMessageNtNtCs3Jf4Gf7dOlE_10serde_json5value5ValueE9from_json0Ba_
FNDA:0,_RNCNvNtNtCsjp9E11WtBq9_13intent_engine9dashboard9websocket16handle_ui_socket0B7_
FNDA:0,_RNCNvNtNtCsjp9E11WtBq9_13intent_engine9dashboard9websocket17handle_mcp_socket0B7_
FNDA:0,_RNCNvNtNtCsjp9E11WtBq9_13intent_engine9dashboard9websocket19handle_ui_websocket0B7_
FNDA:0,_RNCNvNtNtCsjp9E11WtBq9_13intent_engine9dashboard9websocket20handle_mcp_websocket0B7_
FNDA:0,_RNvMNtNtCsjp9E11WtBq9_13intent_engine9dashboard9websocketINtB2_15ProtocolMessageNtB2_11InitPayloadE7to_jsonB6_
FNDA:0,_RNvMNtNtCsjp9E11WtBq9_13intent_engine9dashboard9websocketINtB2_15ProtocolMessageNtB2_12EmptyPayloadE7to_jsonB6_
FNDA:0,_RNvMNtNtCsjp9E11WtBq9_13intent_engine9dashboard9websocketINtB2_15ProtocolMessageNtB2_12ErrorPayloadE7to_jsonB6_
FNDA:0,_RNvMNtNtCsjp9E11WtBq9_13intent_engine9dashboard9websocketINtB2_15ProtocolMessageNtB2_14WelcomePayloadE7to_jsonB6_
FNDA:0,_RNvMNtNtCsjp9E11WtBq9_13intent_engine9dashboard9websocketINtB2_15ProtocolMessageNtB2_17RegisteredPayloadE7to_jsonB6_
FNDA:0,_RNvMNtNtCsjp9E11WtBq9_13intent_engine9dashboard9websocketINtB2_15ProtocolMessageNtB2_20ProjectOnlinePayloadE7to_jsonB6_
FNDA:0,_RNvMNtNtCsjp9E11WtBq9_13intent_engine9dashboard9websocketINtB2_15ProtocolMessageNtB2_21ProjectOfflinePayloadE7to_jsonB6_
FNDA:0,_RNvMNtNtCsjp9E11WtBq9_13intent_engine9dashboard9websocketINtB2_15ProtocolMessageNtB2_24DatabaseOperationPayloadE7to_jsonB6_
FNDA:0,_RNvMs_NtNtCsjp9E11WtBq9_13intent_engine9dashboard9websocketINtB4_15ProtocolMessageNtNtCs3Jf4Gf7dOlE_10serde_json5value5ValueE9from_jsonB8_
FNDA:0,_RINvMs2_NtNtCsjp9E11WtBq9_13intent_engine9dashboard9websocketNtB6_24DatabaseOperationPayload9task_readpEBa_
FNDA:0,_RNCNCNvMs1_NtNtCsjp9E11WtBq9_13intent_engine9dashboard9websocketNtB9_14WebSocketState19get_online_projects00Bd_
FNDA:0,_RNCNvMs1_NtNtCsjp9E11WtBq9_13intent_engine9dashboard9websocketNtB7_14WebSocketState19get_online_projects0Bb_
FNDA:0,_RNvMs1_NtNtCsjp9E11WtBq9_13intent_engine9dashboard9websocketNtB5_14WebSocketState15broadcast_to_ui
FNDA:0,_RNvMs1_NtNtCsjp9E11WtBq9_13intent_engine9dashboard9websocketNtB5_14WebSocketState19get_online_projects
FNDA:0,_RNvMs1_NtNtCsjp9E11WtBq9_13intent_engine9dashboard9websocketNtB5_14WebSocketState32get_online_projects_with_current
FNDA:0,_RNvMs1_NtNtCsjp9E11WtBq9_13intent_engine9dashboard9websocketNtB5_14WebSocketState3new
FNDA:0,_RNvNtNtCsjp9E11WtBq9_13intent_engine9dashboard9websocket16handle_ui_socket
FNDA:0,_RNvNtNtCsjp9E11WtBq9_13intent_engine9dashboard9websocket17handle_mcp_socket
FNDA:0,_RNvNtNtCsjp9E11WtBq9_13intent_engine9dashboard9websocket19handle_ui_websocket
FNDA:0,_RNvNtNtCsjp9E11WtBq9_13intent_engine9dashboard9websocket20handle_mcp_websocket
FNDA:0,_RNvXs0_NtNtCsjp9E11WtBq9_13intent_engine9dashboard9websocketNtB5_14WebSocketStateNtNtCs4Vq2ZLagKfv_4core7default7Default7default
FNDA:0,_RINvMs2_NtNtCs86Lp2I5pN1o_13intent_engine9dashboard9websocketNtB6_24DatabaseOperationPayload9task_readpEBa_
FNDA:0,_RNCNCNvMs1_NtNtCs86Lp2I5pN1o_13intent_engine9dashboard9websocketNtB9_14WebSocketState19get_online_projects00Bd_
FNDA:0,_RNCNvMs1_NtNtCs86Lp2I5pN1o_13intent_engine9dashboard9websocketNtB7_14WebSocketState19get_online_projects0Bb_
FNDA:0,_RNvMs1_NtNtCs86Lp2I5pN1o_13intent_engine9dashboard9websocketNtB5_14WebSocketState19get_online_projects
FNDA:0,_RNvXs0_NtNtCs86Lp2I5pN1o_13intent_engine9dashboard9websocketNtB5_14WebSocketStateNtNtCs4Vq2ZLagKfv_4core7default7Default7default
FNDA:0,_RNvMs1_NtNtCs86Lp2I5pN1o_13intent_engine9dashboard9websocketNtB5_14WebSocketState15broadcast_to_ui
FNDA:0,_RNvMs1_NtNtCs86Lp2I5pN1o_13intent_engine9dashboard9websocketNtB5_14WebSocketState32get_online_projects_with_current
FNDA:0,_RNvMs1_NtNtCs86Lp2I5pN1o_13intent_engine9dashboard9websocketNtB5_14WebSocketState3new
FNDA:0,_RNvNtNtCs86Lp2I5pN1o_13intent_engine9dashboard9websocket16handle_ui_socket
FNDA:0,_RNvNtNtCs86Lp2I5pN1o_13intent_engine9dashboard9websocket17handle_mcp_socket
FNDA:0,_RNvNtNtCs86Lp2I5pN1o_13intent_engine9dashboard9websocket19handle_ui_websocket
FNDA:0,_RNvNtNtCs86Lp2I5pN1o_13intent_engine9dashboard9websocket20handle_mcp_websocket
FNDA:0,_RINvMNtNtCs86Lp2I5pN1o_13intent_engine9dashboard9websocketINtB3_15ProtocolMessageNtB3_11InitPayloadE3newReEB7_
FNDA:0,_RINvMNtNtCs86Lp2I5pN1o_13intent_engine9dashboard9websocketINtB3_15ProtocolMessageNtB3_12EmptyPayloadE3newReEB7_
FNDA:0,_RINvMNtNtCs86Lp2I5pN1o_13intent_engine9dashboard9websocketINtB3_15ProtocolMessageNtB3_12ErrorPayloadE3newReEB7_
FNDA:0,_RINvMNtNtCs86Lp2I5pN1o_13intent_engine9dashboard9websocketINtB3_15ProtocolMessageNtB3_14WelcomePayloadE3newReEB7_
FNDA:0,_RINvMNtNtCs86Lp2I5pN1o_13intent_engine9dashboard9websocketINtB3_15ProtocolMessageNtB3_17RegisteredPayloadE3newReEB7_
FNDA:0,_RINvMNtNtCs86Lp2I5pN1o_13intent_engine9dashboard9websocketINtB3_15ProtocolMessageNtB3_20ProjectOnlinePayloadE3newReEB7_
FNDA:0,_RINvMNtNtCs86Lp2I5pN1o_13intent_engine9dashboard9websocketINtB3_15ProtocolMessageNtB3_21ProjectOfflinePayloadE3newReEB7_
FNDA:1,_RINvMNtNtCs86Lp2I5pN1o_13intent_engine9dashboard9websocketINtB3_15ProtocolMessageNtB3_24DatabaseOperationPayloadE3newReEB7_
FNDA:0,_RINvMs2_NtNtCs86Lp2I5pN1o_13intent_engine9dashboard9websocketNtB6_24DatabaseOperationPayload12task_createdNtNtCs456UZznmu7y_5alloc6string6StringEBa_
FNDA:0,_RINvMs2_NtNtCs86Lp2I5pN1o_13intent_engine9dashboard9websocketNtB6_24DatabaseOperationPayload12task_deletedNtNtCs456UZznmu7y_5alloc6string6StringEBa_
FNDA:0,_RINvMs2_NtNtCs86Lp2I5pN1o_13intent_engine9dashboard9websocketNtB6_24DatabaseOperationPayload12task_updatedNtNtCs456UZznmu7y_5alloc6string6StringEBa_
FNDA:0,_RINvMs2_NtNtCs86Lp2I5pN1o_13intent_engine9dashboard9websocketNtB6_24DatabaseOperationPayload13event_createdNtNtCs456UZznmu7y_5alloc6string6StringEBa_
FNDA:0,_RINvMs2_NtNtCs86Lp2I5pN1o_13intent_engine9dashboard9websocketNtB6_24DatabaseOperationPayload13event_deletedNtNtCs456UZznmu7y_5alloc6string6StringEBa_
FNDA:0,_RINvMs2_NtNtCs86Lp2I5pN1o_13intent_engine9dashboard9websocketNtB6_24DatabaseOperationPayload13event_updatedNtNtCs456UZznmu7y_5alloc6string6StringEBa_
FNDA:0,_RINvMs2_NtNtCs86Lp2I5pN1o_13intent_engine9dashboard9websocketNtB6_24DatabaseOperationPayload3newReB1w_NtNtCs456UZznmu7y_5alloc6string6StringEBa_
FNDA:0,_RINvNtNtCs86Lp2I5pN1o_13intent_engine9dashboard9websocket21send_protocol_messageNtB2_11InitPayloadEB6_
FNDA:0,_RINvNtNtCs86Lp2I5pN1o_13intent_engine9dashboard9websocket21send_protocol_messageNtB2_12EmptyPayloadEB6_
FNDA:0,_RINvNtNtCs86Lp2I5pN1o_13intent_engine9dashboard9websocket21send_protocol_messageNtB2_12ErrorPayloadEB6_
FNDA:0,_RINvNtNtCs86Lp2I5pN1o_13intent_engine9dashboard9websocket21send_protocol_messageNtB2_14WelcomePayloadEB6_
FNDA:0,_RINvNtNtCs86Lp2I5pN1o_13intent_engine9dashboard9websocket21send_protocol_messageNtB2_17RegisteredPayloadEB6_
FNDA:0,_RNCINvNtNtCs86Lp2I5pN1o_13intent_engine9dashboard9websocket21send_protocol_messageNtB4_11InitPayloadE0B8_
FNDA:0,_RNCINvNtNtCs86Lp2I5pN1o_13intent_engine9dashboard9websocket21send_protocol_messageNtB4_11InitPayloadEs_0B8_
FNDA:0,_RNCINvNtNtCs86Lp2I5pN1o_13intent_engine9dashboard9websocket21send_protocol_messageNtB4_12EmptyPayloadE0B8_
FNDA:0,_RNCINvNtNtCs86Lp2I5pN1o_13intent_engine9dashboard9websocket21send_protocol_messageNtB4_12EmptyPayloadEs_0B8_
FNDA:0,_RNCINvNtNtCs86Lp2I5pN1o_13intent_engine9dashboard9websocket21send_protocol_messageNtB4_12ErrorPayloadE0B8_
FNDA:0,_RNCINvNtNtCs86Lp2I5pN1o_13intent_engine9dashboard9websocket21send_protocol_messageNtB4_12ErrorPayloadEs_0B8_
FNDA:0,_RNCINvNtNtCs86Lp2I5pN1o_13intent_engine9dashboard9websocket21send_protocol_messageNtB4_14WelcomePayloadE0B8_
FNDA:0,_RNCINvNtNtCs86Lp2I5pN1o_13intent_engine9dashboard9websocket21send_protocol_messageNtB4_14WelcomePayloadEs_0B8_
FNDA:0,_RNCINvNtNtCs86Lp2I5pN1o_13intent_engine9dashboard9websocket21send_protocol_messageNtB4_17RegisteredPayloadE0B8_
FNDA:0,_RNCINvNtNtCs86Lp2I5pN1o_13intent_engine9dashboard9websocket21send_protocol_messageNtB4_17RegisteredPayloadEs_0B8_
FNDA:0,_RNCNCNCNvNtNtCs86Lp2I5pN1o_13intent_engine9dashboard9websocket17handle_mcp_socket0s0_00Bb_
FNDA:0,_RNCNCNCNvNtNtCs86Lp2I5pN1o_13intent_engine9dashboard9websocket17handle_mcp_socket0s0_0s_0Bb_
FNDA:0,_RNCNCNvMs1_NtNtCs86Lp2I5pN1o_13intent_engine9dashboard9websocketNtB9_14WebSocketState32get_online_projects_with_current00Bd_
FNDA:0,_RNCNCNvMs1_NtNtCs86Lp2I5pN1o_13intent_engine9dashboard9websocketNtB9_14WebSocketState32get_online_projects_with_current0s_0Bd_
FNDA:0,_RNCNCNvNtNtCs86Lp2I5pN1o_13intent_engine9dashboard9websocket16handle_ui_socket00B9_
FNDA:0,_RNCNCNvNtNtCs86Lp2I5pN1o_13intent_engine9dashboard9websocket16handle_ui_socket0s0_0B9_
FNDA:0,_RNCNCNvNtNtCs86Lp2I5pN1o_13intent_engine9dashboard9websocket16handle_ui_socket0s_0B9_
FNDA:0,_RNCNCNvNtNtCs86Lp2I5pN1o_13intent_engine9dashboard9websocket17handle_mcp_socket00B9_
FNDA:0,_RNCNCNvNtNtCs86Lp2I5pN1o_13intent_engine9dashboard9websocket17handle_mcp_socket0s0_0B9_
FNDA:0,_RNCNCNvNtNtCs86Lp2I5pN1o_13intent_engine9dashboard9websocket17handle_mcp_socket0s_0B9_
FNDA:0,_RNCNCNvNtNtCs86Lp2I5pN1o_13intent_engine9dashboard9websocket19handle_ui_websocket00B9_
FNDA:0,_RNCNCNvNtNtCs86Lp2I5pN1o_13intent_engine9dashboard9websocket20handle_mcp_websocket00B9_
FNDA:0,_RNCNvMs1_NtNtCs86Lp2I5pN1o_13intent_engine9dashboard9websocketNtB7_14WebSocketState15broadcast_to_ui0Bb_
FNDA:0,_RNCNvMs1_NtNtCs86Lp2I5pN1o_13intent_engine9dashboard9websocketNtB7_14WebSocketState32get_online_projects_with_current0Bb_
FNDA:0,_RNCNvMs_NtNtCs86Lp2I5pN1o_13intent_engine9dashboard9websocketINtB6_15ProtocolMessageNtNtCs3Jf4Gf7dOlE_10serde_json5value5ValueE9from_json0Ba_
FNDA:0,_RNCNvNtNtCs86Lp2I5pN1o_13intent_engine9dashboard9websocket16handle_ui_socket0B7_
FNDA:0,_RNCNvNtNtCs86Lp2I5pN1o_13intent_engine9dashboard9websocket17handle_mcp_socket0B7_
FNDA:0,_RNCNvNtNtCs86Lp2I5pN1o_13intent_engine9dashboard9websocket19handle_ui_websocket0B7_
FNDA:0,_RNCNvNtNtCs86Lp2I5pN1o_13intent_engine9dashboard9websocket20handle_mcp_websocket0B7_
FNDA:0,_RNvMNtNtCs86Lp2I5pN1o_13intent_engine9dashboard9websocketINtB2_15ProtocolMessageNtB2_11InitPayloadE7to_jsonB6_
FNDA:0,_RNvMNtNtCs86Lp2I5pN1o_13intent_engine9dashboard9websocketINtB2_15ProtocolMessageNtB2_12EmptyPayloadE7to_jsonB6_
FNDA:0,_RNvMNtNtCs86Lp2I5pN1o_13intent_engine9dashboard9websocketINtB2_15ProtocolMessageNtB2_12ErrorPayloadE7to_jsonB6_
FNDA:0,_RNvMNtNtCs86Lp2I5pN1o_13intent_engine9dashboard9websocketINtB2_15ProtocolMessageNtB2_14WelcomePayloadE7to_jsonB6_
FNDA:0,_RNvMNtNtCs86Lp2I5pN1o_13intent_engine9dashboard9websocketINtB2_15ProtocolMessageNtB2_17RegisteredPayloadE7to_jsonB6_
FNDA:0,_RNvMNtNtCs86Lp2I5pN1o_13intent_engine9dashboard9websocketINtB2_15ProtocolMessageNtB2_20ProjectOnlinePayloadE7to_jsonB6_
FNDA:0,_RNvMNtNtCs86Lp2I5pN1o_13intent_engine9dashboard9websocketINtB2_15ProtocolMessageNtB2_21ProjectOfflinePayloadE7to_jsonB6_
FNDA:1,_RNvMNtNtCs86Lp2I5pN1o_13intent_engine9dashboard9websocketINtB2_15ProtocolMessageNtB2_24DatabaseOperationPayloadE7to_jsonB6_
FNDA:0,_RNvMs_NtNtCs86Lp2I5pN1o_13intent_engine9dashboard9websocketINtB4_15ProtocolMessageNtNtCs3Jf4Gf7dOlE_10serde_json5value5ValueE9from_jsonB8_
FNF:44
FNH:2
DA:39,1
DA:40,1
DA:41,1
DA:42,1
DA:43,1
DA:44,1
DA:45,1
DA:46,1
DA:49,1
DA:50,1
DA:51,1
DA:59,0
DA:60,0
DA:61,0
DA:64,0
DA:65,0
DA:67,0
DA:68,0
DA:69,0
DA:70,0
DA:71,0
DA:72,0
DA:74,0
DA:75,0
DA:117,0
DA:118,0
DA:119,0
DA:123,0
DA:124,0
DA:125,0
DA:126,0
DA:127,0
DA:128,0
DA:131,0
DA:132,0
DA:133,0
DA:134,0
DA:135,0
DA:136,0
DA:139,0
DA:141,0
DA:143,0
DA:144,0
DA:145,0
DA:146,0
DA:147,0
DA:148,0
DA:149,0
DA:150,0
DA:151,0
DA:156,0
DA:157,0
DA:158,0
DA:159,0
DA:160,0
DA:161,0
DA:162,0
DA:163,0
DA:164,0
DA:165,0
DA:167,0
DA:171,0
DA:172,0
DA:173,0
DA:176,0
DA:180,0
DA:182,0
DA:183,0
DA:184,0
DA:185,0
DA:186,0
DA:187,0
DA:188,0
DA:189,0
DA:193,0
DA:194,0
DA:195,0
DA:196,0
DA:198,0
DA:199,0
DA:200,0
DA:201,0
DA:202,0
DA:205,0
DA:206,0
DA:207,0
DA:208,0
DA:209,0
DA:210,0
DA:211,0
DA:214,0
DA:215,0
DA:327,0
DA:328,0
DA:329,0
DA:330,0
DA:331,0
DA:332,0
DA:333,0
DA:334,0
DA:335,0
DA:336,0
DA:337,0
DA:338,0
DA:339,0
DA:340,0
DA:341,0
DA:344,0
DA:345,0
DA:346,0
DA:347,0
DA:348,0
DA:349,0
DA:352,0
DA:353,0
DA:354,0
DA:356,0
DA:359,0
DA:360,0
DA:361,0
DA:362,0
DA:363,0
DA:364,0
DA:367,0
DA:368,0
DA:369,0
DA:371,0
DA:374,0
DA:375,0
DA:376,0
DA:379,0
DA:380,0
DA:381,0
DA:384,0
DA:385,0
DA:386,0
DA:387,0
DA:388,0
DA:389,0
DA:392,0
DA:393,0
DA:394,0
DA:396,0
DA:399,0
DA:400,0
DA:401,0
DA:402,0
DA:403,0
DA:404,0
DA:407,0
DA:408,0
DA:409,0
DA:411,0
DA:414,0
DA:415,0
DA:416,0
DA:424,0
DA:425,0
DA:426,0
DA:427,0
DA:428,0
DA:429,0
DA:430,0
DA:431,0
DA:432,0
DA:434,0
DA:435,0
DA:436,0
DA:439,0
DA:440,0
DA:441,0
DA:442,0
DA:443,0
DA:444,0
DA:446,0
DA:447,0
DA:448,0
DA:451,0
DA:452,0
DA:453,0
DA:454,0
DA:455,0
DA:457,0
DA:460,0
DA:461,0
DA:464,0
DA:467,0
DA:470,0
DA:471,0
DA:473,0
DA:476,0
DA:478,0
DA:480,0
DA:481,0
DA:482,0
DA:484,0
DA:487,0
DA:488,0
DA:489,0
DA:490,0
DA:492,0
DA:493,0
DA:494,0
DA:495,0
DA:498,0
DA:499,0
DA:501,0
DA:504,0
DA:505,0
DA:506,0
DA:507,0
DA:508,0
DA:510,0
DA:511,0
DA:515,0
DA:516,0
DA:518,0
DA:519,0
DA:520,0
DA:521,0
DA:522,0
DA:523,0
DA:527,0
DA:530,0
DA:531,0
DA:533,0
DA:537,0
DA:538,0
DA:539,0
DA:540,0
DA:542,0
DA:543,0
DA:544,0
DA:546,0
DA:549,0
DA:551,0
DA:552,0
DA:553,0
DA:555,0
DA:558,0
DA:559,0
DA:560,0
DA:561,0
DA:562,0
DA:563,0
DA:566,0
DA:568,0
DA:569,0
DA:573,0
DA:574,0
DA:575,0
DA:578,0
DA:579,0
DA:580,0
DA:581,0
DA:583,0
DA:584,0
DA:585,0
DA:590,0
DA:591,0
DA:592,0
DA:593,0
DA:594,0
DA:595,0
DA:598,0
DA:599,0
DA:600,0
DA:601,0
DA:602,0
DA:603,0
DA:604,0
DA:607,0
DA:608,0
DA:609,0
DA:610,0
DA:611,0
DA:613,0
DA:614,0
DA:615,0
DA:616,0
DA:617,0
DA:618,0
DA:620,0
DA:623,0
DA:624,0
DA:625,0
DA:626,0
DA:627,0
DA:630,0
DA:631,0
DA:632,0
DA:634,0
DA:635,0
DA:636,0
DA:638,0
DA:639,0
DA:640,0
DA:642,0
DA:644,0
DA:646,0
DA:648,0
DA:649,0
DA:651,0
DA:652,0
DA:654,0
DA:656,0
DA:658,0
DA:660,0
DA:663,0
DA:664,0
DA:666,0
DA:669,0
DA:674,0
DA:675,0
DA:677,0
DA:681,0
DA:682,0
DA:685,0
DA:686,0
DA:687,0
DA:688,0
DA:689,0
DA:690,0
DA:691,0
DA:692,0
DA:693,0
DA:695,0
DA:697,0
DA:700,0
DA:702,0
DA:704,0
DA:705,0
DA:706,0
DA:708,0
DA:709,0
DA:711,0
DA:712,0
DA:713,0
DA:714,0
DA:716,0
DA:719,0
DA:720,0
DA:721,0
DA:722,0
DA:723,0
DA:724,0
DA:726,0
DA:727,0
DA:728,0
DA:731,0
DA:732,0
DA:733,0
DA:734,0
DA:735,0
DA:737,0
DA:744,0
DA:745,0
DA:746,0
DA:747,0
DA:748,0
DA:749,0
DA:750,0
DA:751,0
DA:754,0
DA:757,0
DA:760,0
DA:763,0
DA:764,0
DA:766,0
DA:769,0
DA:770,0
DA:772,0
DA:773,0
DA:774,0
DA:776,0
DA:779,0
DA:780,0
DA:781,0
DA:782,0
DA:784,0
DA:785,0
DA:787,0
DA:788,0
DA:790,0
DA:791,0
DA:793,0
DA:794,0
DA:799,0
DA:800,0
DA:802,0
DA:806,0
DA:807,0
DA:808,0
DA:809,0
DA:811,0
DA:812,0
DA:816,0
DA:817,0
DA:818,0
DA:819,0
DA:820,0
DA:821,0
DA:822,0
DA:823,0
DA:824,0
DA:825,0
DA:826,0
DA:827,0
DA:828,0
DA:829,0
DA:831,0
DA:832,0
DA:833,0
DA:834,0
DA:835,0
DA:836,0
DA:837,0
DA:838,0
DA:840,0
DA:841,0
DA:843,0
DA:845,0
DA:846,0
DA:848,0
DA:849,0
DA:851,0
DA:853,0
DA:854,0
DA:857,0
DA:858,0
DA:865,0
DA:869,0
DA:872,0
DA:873,0
DA:875,0
DA:878,0
DA:881,0
DA:882,0
DA:883,0
DA:884,0
DA:885,0
DA:886,0
DA:887,0
DA:888,0
DA:889,0
DA:890,0
DA:891,0
DA:892,0
DA:893,0
DA:897,0
DA:898,0
DA:899,0
DA:900,0
DA:901,0
DA:902,0
DA:903,0
DA:904,0
BRF:0
BRH:0
LF:480
LH:11
end_of_record
SF:/mnt/d/prj/intent-engine/src/db/mod.rs
FN:7,_RNCNvNtCsjp9E11WtBq9_13intent_engine2db11create_pool0B5_
FN:22,_RNCNvNtCsjp9E11WtBq9_13intent_engine2db14run_migrations0B5_
FN:7,_RNvNtCsjp9E11WtBq9_13intent_engine2db11create_pool
FN:22,_RNvNtCsjp9E11WtBq9_13intent_engine2db14run_migrations
FN:7,_RNCNvNtCs86Lp2I5pN1o_13intent_engine2db11create_pool0B5_
FN:22,_RNCNvNtCs86Lp2I5pN1o_13intent_engine2db14run_migrations0B5_
FN:7,_RNvNtCs86Lp2I5pN1o_13intent_engine2db11create_pool
FN:22,_RNvNtCs86Lp2I5pN1o_13intent_engine2db14run_migrations
FN:411,_RNCNvNtNtCs86Lp2I5pN1o_13intent_engine2db5testss_22test_fts_triggers_work0B7_
FN:312,_RNCNvNtNtCs86Lp2I5pN1o_13intent_engine2db5testss_24test_create_pool_success0B7_
FN:461,_RNCNvNtNtCs86Lp2I5pN1o_13intent_engine2db5testss_27test_task_status_constraint0B7_
FN:630,_RNCNvNtNtCs86Lp2I5pN1o_13intent_engine2db5testss_28test_schema_version_tracking0B7_
FN:391,_RNCNvNtNtCs86Lp2I5pN1o_13intent_engine2db5testss_30test_run_migrations_idempotent0B7_
FN:481,_RNCNvNtNtCs86Lp2I5pN1o_13intent_engine2db5testss_31test_dependencies_table_created0B7_
FN:583,_RNCNvNtNtCs86Lp2I5pN1o_13intent_engine2db5testss_32test_dependencies_cascade_delete0B7_
FN:499,_RNCNvNtNtCs86Lp2I5pN1o_13intent_engine2db5testss_33test_dependencies_indexes_created0B7_
FN:647,_RNCNvNtNtCs86Lp2I5pN1o_13intent_engine2db5testss_33test_migration_idempotency_v0_2_00B7_
FN:328,_RNCNvNtNtCs86Lp2I5pN1o_13intent_engine2db5testss_34test_run_migrations_creates_tables0B7_
FN:546,_RNCNvNtNtCs86Lp2I5pN1o_13intent_engine2db5testss_35test_dependencies_unique_constraint0B7_
FN:368,_RNCNvNtNtCs86Lp2I5pN1o_13intent_engine2db5testss_36test_run_migrations_creates_triggers0B7_
FN:437,_RNCNvNtNtCs86Lp2I5pN1o_13intent_engine2db5testss_36test_workspace_state_table_structure0B7_
FN:348,_RNCNvNtNtCs86Lp2I5pN1o_13intent_engine2db5testss_38test_run_migrations_creates_fts_tables0B7_
FN:519,_RNCNvNtNtCs86Lp2I5pN1o_13intent_engine2db5testss_44test_dependencies_self_dependency_constraint0B7_
FN:411,_RNvNtNtCs86Lp2I5pN1o_13intent_engine2db5testss_22test_fts_triggers_work
FN:312,_RNvNtNtCs86Lp2I5pN1o_13intent_engine2db5testss_24test_create_pool_success
FN:461,_RNvNtNtCs86Lp2I5pN1o_13intent_engine2db5testss_27test_task_status_constraint
FN:630,_RNvNtNtCs86Lp2I5pN1o_13intent_engine2db5testss_28test_schema_version_tracking
FN:391,_RNvNtNtCs86Lp2I5pN1o_13intent_engine2db5testss_30test_run_migrations_idempotent
FN:481,_RNvNtNtCs86Lp2I5pN1o_13intent_engine2db5testss_31test_dependencies_table_created
FN:583,_RNvNtNtCs86Lp2I5pN1o_13intent_engine2db5testss_32test_dependencies_cascade_delete
FN:499,_RNvNtNtCs86Lp2I5pN1o_13intent_engine2db5testss_33test_dependencies_indexes_created
FN:647,_RNvNtNtCs86Lp2I5pN1o_13intent_engine2db5testss_33test_migration_idempotency_v0_2_0
FN:328,_RNvNtNtCs86Lp2I5pN1o_13intent_engine2db5testss_34test_run_migrations_creates_tables
FN:546,_RNvNtNtCs86Lp2I5pN1o_13intent_engine2db5testss_35test_dependencies_unique_constraint
FN:368,_RNvNtNtCs86Lp2I5pN1o_13intent_engine2db5testss_36test_run_migrations_creates_triggers
FN:437,_RNvNtNtCs86Lp2I5pN1o_13intent_engine2db5testss_36test_workspace_state_table_structure
FN:348,_RNvNtNtCs86Lp2I5pN1o_13intent_engine2db5testss_38test_run_migrations_creates_fts_tables
FN:519,_RNvNtNtCs86Lp2I5pN1o_13intent_engine2db5testss_44test_dependencies_self_dependency_constraint
FNDA:10,_RNCNvNtCsjp9E11WtBq9_13intent_engine2db11create_pool0B5_
FNDA:10,_RNCNvNtCsjp9E11WtBq9_13intent_engine2db14run_migrations0B5_
FNDA:10,_RNvNtCsjp9E11WtBq9_13intent_engine2db11create_pool
FNDA:10,_RNvNtCsjp9E11WtBq9_13intent_engine2db14run_migrations
FNDA:203,_RNCNvNtCs86Lp2I5pN1o_13intent_engine2db11create_pool0B5_
FNDA:205,_RNCNvNtCs86Lp2I5pN1o_13intent_engine2db14run_migrations0B5_
FNDA:203,_RNvNtCs86Lp2I5pN1o_13intent_engine2db11create_pool
FNDA:205,_RNvNtCs86Lp2I5pN1o_13intent_engine2db14run_migrations
FNDA:1,_RNCNvNtNtCs86Lp2I5pN1o_13intent_engine2db5testss_22test_fts_triggers_work0B7_
FNDA:1,_RNCNvNtNtCs86Lp2I5pN1o_13intent_engine2db5testss_24test_create_pool_success0B7_
FNDA:1,_RNCNvNtNtCs86Lp2I5pN1o_13intent_engine2db5testss_27test_task_status_constraint0B7_
FNDA:1,_RNCNvNtNtCs86Lp2I5pN1o_13intent_engine2db5testss_28test_schema_version_tracking0B7_
FNDA:1,_RNCNvNtNtCs86Lp2I5pN1o_13intent_engine2db5testss_30test_run_migrations_idempotent0B7_
FNDA:1,_RNCNvNtNtCs86Lp2I5pN1o_13intent_engine2db5testss_31test_dependencies_table_created0B7_
FNDA:1,_RNCNvNtNtCs86Lp2I5pN1o_13intent_engine2db5testss_32test_dependencies_cascade_delete0B7_
FNDA:1,_RNCNvNtNtCs86Lp2I5pN1o_13intent_engine2db5testss_33test_dependencies_indexes_created0B7_
FNDA:1,_RNCNvNtNtCs86Lp2I5pN1o_13intent_engine2db5testss_33test_migration_idempotency_v0_2_00B7_
FNDA:1,_RNCNvNtNtCs86Lp2I5pN1o_13intent_engine2db5testss_34test_run_migrations_creates_tables0B7_
FNDA:1,_RNCNvNtNtCs86Lp2I5pN1o_13intent_engine2db5testss_35test_dependencies_unique_constraint0B7_
FNDA:1,_RNCNvNtNtCs86Lp2I5pN1o_13intent_engine2db5testss_36test_run_migrations_creates_triggers0B7_
FNDA:1,_RNCNvNtNtCs86Lp2I5pN1o_13intent_engine2db5testss_36test_workspace_state_table_structure0B7_
FNDA:1,_RNCNvNtNtCs86Lp2I5pN1o_13intent_engine2db5testss_38test_run_migrations_creates_fts_tables0B7_
FNDA:1,_RNCNvNtNtCs86Lp2I5pN1o_13intent_engine2db5testss_44test_dependencies_self_dependency_constraint0B7_
FNDA:1,_RNvNtNtCs86Lp2I5pN1o_13intent_engine2db5testss_22test_fts_triggers_work
FNDA:1,_RNvNtNtCs86Lp2I5pN1o_13intent_engine2db5testss_24test_create_pool_success
FNDA:1,_RNvNtNtCs86Lp2I5pN1o_13intent_engine2db5testss_27test_task_status_constraint
FNDA:1,_RNvNtNtCs86Lp2I5pN1o_13intent_engine2db5testss_28test_schema_version_tracking
FNDA:1,_RNvNtNtCs86Lp2I5pN1o_13intent_engine2db5testss_30test_run_migrations_idempotent
FNDA:1,_RNvNtNtCs86Lp2I5pN1o_13intent_engine2db5testss_31test_dependencies_table_created
FNDA:1,_RNvNtNtCs86Lp2I5pN1o_13intent_engine2db5testss_32test_dependencies_cascade_delete
FNDA:1,_RNvNtNtCs86Lp2I5pN1o_13intent_engine2db5testss_33test_dependencies_indexes_created
FNDA:1,_RNvNtNtCs86Lp2I5pN1o_13intent_engine2db5testss_33test_migration_idempotency_v0_2_0
FNDA:1,_RNvNtNtCs86Lp2I5pN1o_13intent_engine2db5testss_34test_run_migrations_creates_tables
FNDA:1,_RNvNtNtCs86Lp2I5pN1o_13intent_engine2db5testss_35test_dependencies_unique_constraint
FNDA:1,_RNvNtNtCs86Lp2I5pN1o_13intent_engine2db5testss_36test_run_migrations_creates_triggers
FNDA:1,_RNvNtNtCs86Lp2I5pN1o_13intent_engine2db5testss_36test_workspace_state_table_structure
FNDA:1,_RNvNtNtCs86Lp2I5pN1o_13intent_engine2db5testss_38test_run_migrations_creates_fts_tables
FNDA:1,_RNvNtNtCs86Lp2I5pN1o_13intent_engine2db5testss_44test_dependencies_self_dependency_constraint
FNF:34
FNH:34
DA:7,213
DA:8,213
DA:9,213
DA:10,213
DA:11,213
DA:12,213
DA:14,213
DA:15,213
DA:16,213
DA:17,213
DA:19,213
DA:20,213
DA:22,215
DA:24,215
DA:25,215
DA:26,215
DA:29,215
DA:30,215
DA:31,215
DA:32,215
DA:33,215
DA:34,215
DA:35,215
DA:36,215
DA:37,215
DA:38,215
DA:39,215
DA:40,215
DA:41,215
DA:42,215
DA:43,215
DA:44,215
DA:45,215
DA:46,215
DA:47,215
DA:48,215
DA:49,215
DA:53,215
DA:54,215
DA:55,215
DA:59,215
DA:60,215
DA:61,215
DA:63,215
DA:64,215
DA:65,215
DA:66,215
DA:67,215
DA:68,215
DA:69,215
DA:70,215
DA:71,215
DA:72,215
DA:73,215
DA:74,215
DA:75,215
DA:78,215
DA:79,215
DA:80,215
DA:81,215
DA:82,215
DA:83,215
DA:84,215
DA:85,215
DA:86,215
DA:88,215
DA:89,215
DA:90,215
DA:91,215
DA:92,215
DA:93,215
DA:94,215
DA:95,215
DA:96,215
DA:101,215
DA:102,215
DA:103,215
DA:105,215
DA:106,215
DA:107,215
DA:108,215
DA:109,215
DA:110,215
DA:111,215
DA:112,215
DA:113,215
DA:114,215
DA:117,215
DA:118,215
DA:119,215
DA:120,215
DA:121,215
DA:122,215
DA:123,215
DA:124,215
DA:127,215
DA:128,215
DA:129,215
DA:130,215
DA:131,215
DA:132,215
DA:133,215
DA:134,215
DA:135,215
DA:136,215
DA:137,215
DA:138,215
DA:139,215
DA:140,215
DA:143,215
DA:144,215
DA:145,215
DA:146,215
DA:147,215
DA:148,215
DA:149,215
DA:152,215
DA:153,215
DA:154,215
DA:155,215
DA:156,215
DA:157,215
DA:158,215
DA:159,215
DA:160,215
DA:161,215
DA:162,215
DA:165,215
DA:166,215
DA:167,215
DA:168,215
DA:169,215
DA:170,215
DA:171,215
DA:172,215
DA:173,215
DA:175,215
DA:176,215
DA:177,215
DA:178,215
DA:179,215
DA:180,215
DA:181,215
DA:182,215
DA:183,215
DA:186,215
DA:187,215
DA:188,215
DA:190,215
DA:191,215
DA:192,215
DA:193,215
DA:194,215
DA:195,215
DA:196,215
DA:197,215
DA:198,215
DA:199,215
DA:202,215
DA:203,215
DA:204,215
DA:205,215
DA:206,215
DA:207,215
DA:208,215
DA:209,215
DA:210,215
DA:211,215
DA:214,215
DA:215,215
DA:216,215
DA:217,215
DA:218,215
DA:219,215
DA:220,215
DA:221,215
DA:222,215
DA:223,215
DA:224,215
DA:225,215
DA:226,215
DA:227,215
DA:228,215
DA:229,215
DA:232,215
DA:233,215
DA:234,215
DA:235,215
DA:236,215
DA:237,215
DA:238,215
DA:239,215
DA:241,215
DA:242,215
DA:243,215
DA:244,215
DA:245,215
DA:246,215
DA:247,215
DA:248,215
DA:251,215
DA:252,215
DA:253,215
DA:254,215
DA:255,215
DA:256,215
DA:257,215
DA:258,215
DA:262,215
DA:263,215
DA:264,215
DA:265,215
DA:266,215
DA:267,215
DA:268,215
DA:269,215
DA:272,215
DA:273,215
DA:274,215
DA:275,215
DA:276,215
DA:277,215
DA:278,215
DA:279,215
DA:282,215
DA:283,215
DA:284,215
DA:285,215
DA:286,215
DA:287,215
DA:288,215
DA:289,215
DA:290,215
DA:293,215
DA:294,215
DA:295,215
DA:296,215
DA:297,215
DA:298,215
DA:299,215
DA:300,215
DA:301,215
DA:303,215
DA:304,215
DA:312,1
DA:313,1
DA:314,1
DA:316,1
DA:319,1
DA:320,1
DA:321,1
DA:322,1
DA:324,1
DA:325,1
DA:328,1
DA:329,1
DA:330,1
DA:331,1
DA:333,1
DA:336,1
DA:337,1
DA:338,1
DA:339,1
DA:340,1
DA:342,1
DA:343,1
DA:344,1
DA:345,1
DA:348,1
DA:349,1
DA:350,1
DA:351,1
DA:353,1
DA:356,1
DA:357,1
DA:358,1
DA:359,1
DA:360,1
DA:361,1
DA:363,1
DA:364,1
DA:365,1
DA:368,1
DA:369,1
DA:370,1
DA:371,1
DA:373,1
DA:376,1
DA:377,1
DA:378,1
DA:379,1
DA:380,1
DA:382,1
DA:383,1
DA:384,1
DA:385,1
DA:386,1
DA:387,1
DA:388,1
DA:391,1
DA:392,1
DA:393,1
DA:394,1
DA:397,1
DA:398,1
DA:401,1
DA:402,1
DA:403,1
DA:404,1
DA:405,1
DA:407,1
DA:408,1
DA:411,1
DA:412,1
DA:413,1
DA:414,1
DA:415,1
DA:418,1
DA:419,1
DA:420,1
DA:421,1
DA:422,1
DA:423,1
DA:424,1
DA:427,1
DA:428,1
DA:429,1
DA:430,1
DA:431,1
DA:433,1
DA:434,1
DA:437,1
DA:438,1
DA:439,1
DA:440,1
DA:441,1
DA:444,1
DA:445,1
DA:446,1
DA:447,1
DA:448,1
DA:449,1
DA:451,1
DA:452,1
DA:453,1
DA:454,1
DA:455,1
DA:457,1
DA:458,1
DA:461,1
DA:462,1
DA:463,1
DA:464,1
DA:465,1
DA:468,1
DA:469,1
DA:470,1
DA:471,1
DA:472,1
DA:475,1
DA:476,1
DA:481,1
DA:482,1
DA:483,1
DA:484,1
DA:485,1
DA:488,1
DA:489,1
DA:490,1
DA:491,1
DA:492,1
DA:493,1
DA:495,1
DA:496,1
DA:499,1
DA:500,1
DA:501,1
DA:502,1
DA:503,1
DA:506,1
DA:507,1
DA:508,1
DA:509,1
DA:510,1
DA:511,1
DA:513,1
DA:514,1
DA:515,1
DA:516,1
DA:519,1
DA:520,1
DA:521,1
DA:522,1
DA:523,1
DA:526,1
DA:527,1
DA:528,1
DA:529,1
DA:530,1
DA:531,1
DA:534,1
DA:535,1
DA:536,1
DA:537,1
DA:538,1
DA:539,1
DA:540,1
DA:542,1
DA:543,1
DA:546,1
DA:547,1
DA:548,1
DA:549,1
DA:550,1
DA:553,3
DA:554,2
DA:555,2
DA:556,2
DA:557,2
DA:558,2
DA:559,2
DA:563,1
DA:564,1
DA:565,1
DA:566,1
DA:567,1
DA:568,1
DA:571,1
DA:572,1
DA:573,1
DA:574,1
DA:575,1
DA:576,1
DA:577,1
DA:579,1
DA:580,1
DA:583,1
DA:584,1
DA:585,1
DA:586,1
DA:587,1
DA:590,3
DA:591,2
DA:592,2
DA:593,2
DA:594,2
DA:595,2
DA:596,2
DA:600,1
DA:601,1
DA:602,1
DA:603,1
DA:604,1
DA:605,1
DA:608,1
DA:609,1
DA:610,1
DA:611,1
DA:612,1
DA:615,1
DA:616,1
DA:617,1
DA:618,1
DA:619,1
DA:622,1
DA:623,1
DA:624,1
DA:625,1
DA:626,1
DA:627,1
DA:630,1
DA:631,1
DA:632,1
DA:633,1
DA:634,1
DA:637,1
DA:638,1
DA:639,1
DA:640,1
DA:641,1
DA:643,1
DA:644,1
DA:647,1
DA:648,1
DA:649,1
DA:650,1
DA:653,1
DA:654,1
DA:655,1
DA:658,1
DA:659,1
DA:660,1
DA:661,1
DA:662,1
DA:663,1
DA:665,1
DA:668,1
DA:669,1
DA:670,1
DA:671,1
DA:672,1
DA:674,1
DA:675,1
BRF:0
BRH:0
LF:535
LH:535
end_of_record
SF:/mnt/d/prj/intent-engine/src/db/models.rs
FN:318,_RNvMNtNtCsjp9E11WtBq9_13intent_engine2db6modelsNtB2_16PickNextResponse14format_as_text
FN:276,_RNvMNtNtCsjp9E11WtBq9_13intent_engine2db6modelsNtB2_16PickNextResponse14top_level_task
FN:266,_RNvMNtNtCsjp9E11WtBq9_13intent_engine2db6modelsNtB2_16PickNextResponse15focused_subtask
FN:308,_RNvMNtNtCsjp9E11WtBq9_13intent_engine2db6modelsNtB2_16PickNextResponse18no_available_todos
FN:298,_RNvMNtNtCsjp9E11WtBq9_13intent_engine2db6modelsNtB2_16PickNextResponse19all_tasks_completed
FN:286,_RNvMNtNtCsjp9E11WtBq9_13intent_engine2db6modelsNtB2_16PickNextResponse19no_tasks_in_project
FN:318,_RNvMNtNtCs86Lp2I5pN1o_13intent_engine2db6modelsNtB2_16PickNextResponse14format_as_text
FN:276,_RNvMNtNtCs86Lp2I5pN1o_13intent_engine2db6modelsNtB2_16PickNextResponse14top_level_task
FN:266,_RNvMNtNtCs86Lp2I5pN1o_13intent_engine2db6modelsNtB2_16PickNextResponse15focused_subtask
FN:308,_RNvMNtNtCs86Lp2I5pN1o_13intent_engine2db6modelsNtB2_16PickNextResponse18no_available_todos
FN:298,_RNvMNtNtCs86Lp2I5pN1o_13intent_engine2db6modelsNtB2_16PickNextResponse19all_tasks_completed
FN:286,_RNvMNtNtCs86Lp2I5pN1o_13intent_engine2db6modelsNtB2_16PickNextResponse19no_tasks_in_project
FN:381,_RNvNtNtNtCs86Lp2I5pN1o_13intent_engine2db6models5tests16create_test_task
FN:512,_RNvNtNtNtCs86Lp2I5pN1o_13intent_engine2db6models5testss_33test_error_response_serialization
FN:467,_RNvNtNtNtCs86Lp2I5pN1o_13intent_engine2db6models5testss_34test_format_as_text_top_level_task
FN:454,_RNvNtNtNtCs86Lp2I5pN1o_13intent_engine2db6models5testss_35test_format_as_text_focused_subtask
FN:551,_RNvNtNtNtCs86Lp2I5pN1o_13intent_engine2db6models5testss_35test_report_summary_with_date_range
FN:536,_RNvNtNtNtCs86Lp2I5pN1o_13intent_engine2db6models5testss_35test_task_with_events_serialization
FN:501,_RNvNtNtNtCs86Lp2I5pN1o_13intent_engine2db6models5testss_38test_format_as_text_no_available_todos
FN:410,_RNvNtNtNtCs86Lp2I5pN1o_13intent_engine2db6models5testss_38test_pick_next_response_top_level_task
FN:491,_RNvNtNtNtCs86Lp2I5pN1o_13intent_engine2db6models5testss_39test_format_as_text_all_tasks_completed
FN:480,_RNvNtNtNtCs86Lp2I5pN1o_13intent_engine2db6models5testss_39test_format_as_text_no_tasks_in_project
FN:523,_RNvNtNtNtCs86Lp2I5pN1o_13intent_engine2db6models5testss_39test_next_step_suggestion_serialization
FN:398,_RNvNtNtNtCs86Lp2I5pN1o_13intent_engine2db6models5testss_39test_pick_next_response_focused_subtask
FN:444,_RNvNtNtNtCs86Lp2I5pN1o_13intent_engine2db6models5testss_42test_pick_next_response_no_available_todos
FN:433,_RNvNtNtNtCs86Lp2I5pN1o_13intent_engine2db6models5testss_43test_pick_next_response_all_tasks_completed
FN:422,_RNvNtNtNtCs86Lp2I5pN1o_13intent_engine2db6models5testss_43test_pick_next_response_no_tasks_in_project
FNDA:0,_RNvMNtNtCsjp9E11WtBq9_13intent_engine2db6modelsNtB2_16PickNextResponse14format_as_text
FNDA:0,_RNvMNtNtCsjp9E11WtBq9_13intent_engine2db6modelsNtB2_16PickNextResponse14top_level_task
FNDA:0,_RNvMNtNtCsjp9E11WtBq9_13intent_engine2db6modelsNtB2_16PickNextResponse15focused_subtask
FNDA:0,_RNvMNtNtCsjp9E11WtBq9_13intent_engine2db6modelsNtB2_16PickNextResponse18no_available_todos
FNDA:0,_RNvMNtNtCsjp9E11WtBq9_13intent_engine2db6modelsNtB2_16PickNextResponse19all_tasks_completed
FNDA:0,_RNvMNtNtCsjp9E11WtBq9_13intent_engine2db6modelsNtB2_16PickNextResponse19no_tasks_in_project
FNDA:5,_RNvMNtNtCs86Lp2I5pN1o_13intent_engine2db6modelsNtB2_16PickNextResponse14format_as_text
FNDA:7,_RNvMNtNtCs86Lp2I5pN1o_13intent_engine2db6modelsNtB2_16PickNextResponse14top_level_task
FNDA:5,_RNvMNtNtCs86Lp2I5pN1o_13intent_engine2db6modelsNtB2_16PickNextResponse15focused_subtask
FNDA:2,_RNvMNtNtCs86Lp2I5pN1o_13intent_engine2db6modelsNtB2_16PickNextResponse18no_available_todos
FNDA:3,_RNvMNtNtCs86Lp2I5pN1o_13intent_engine2db6modelsNtB2_16PickNextResponse19all_tasks_completed
FNDA:3,_RNvMNtNtCs86Lp2I5pN1o_13intent_engine2db6modelsNtB2_16PickNextResponse19no_tasks_in_project
FNDA:5,_RNvNtNtNtCs86Lp2I5pN1o_13intent_engine2db6models5tests16create_test_task
FNDA:1,_RNvNtNtNtCs86Lp2I5pN1o_13intent_engine2db6models5testss_33test_error_response_serialization
FNDA:1,_RNvNtNtNtCs86Lp2I5pN1o_13intent_engine2db6models5testss_34test_format_as_text_top_level_task
FNDA:1,_RNvNtNtNtCs86Lp2I5pN1o_13intent_engine2db6models5testss_35test_format_as_text_focused_subtask
FNDA:1,_RNvNtNtNtCs86Lp2I5pN1o_13intent_engine2db6models5testss_35test_report_summary_with_date_range
FNDA:1,_RNvNtNtNtCs86Lp2I5pN1o_13intent_engine2db6models5testss_35test_task_with_events_serialization
FNDA:1,_RNvNtNtNtCs86Lp2I5pN1o_13intent_engine2db6models5testss_38test_format_as_text_no_available_todos
FNDA:1,_RNvNtNtNtCs86Lp2I5pN1o_13intent_engine2db6models5testss_38test_pick_next_response_top_level_task
FNDA:1,_RNvNtNtNtCs86Lp2I5pN1o_13intent_engine2db6models5testss_39test_format_as_text_all_tasks_completed
FNDA:1,_RNvNtNtNtCs86Lp2I5pN1o_13intent_engine2db6models5testss_39test_format_as_text_no_tasks_in_project
FNDA:1,_RNvNtNtNtCs86Lp2I5pN1o_13intent_engine2db6models5testss_39test_next_step_suggestion_serialization
FNDA:1,_RNvNtNtNtCs86Lp2I5pN1o_13intent_engine2db6models5testss_39test_pick_next_response_focused_subtask
FNDA:1,_RNvNtNtNtCs86Lp2I5pN1o_13intent_engine2db6models5testss_42test_pick_next_response_no_available_todos
FNDA:1,_RNvNtNtNtCs86Lp2I5pN1o_13intent_engine2db6models5testss_43test_pick_next_response_all_tasks_completed
FNDA:1,_RNvNtNtNtCs86Lp2I5pN1o_13intent_engine2db6models5testss_43test_pick_next_response_no_tasks_in_project
FNF:21
FNH:21
DA:266,5
DA:267,5
DA:268,5
DA:269,5
DA:270,5
DA:271,5
DA:272,5
DA:273,5
DA:276,7
DA:277,7
DA:278,7
DA:279,7
DA:280,7
DA:281,7
DA:282,7
DA:283,7
DA:286,3
DA:287,3
DA:288,3
DA:289,3
DA:290,3
DA:291,3
DA:292,3
DA:293,3
DA:294,3
DA:295,3
DA:298,3
DA:299,3
DA:300,3
DA:301,3
DA:302,3
DA:303,3
DA:304,3
DA:305,3
DA:308,2
DA:309,2
DA:310,2
DA:311,2
DA:312,2
DA:313,2
DA:314,2
DA:315,2
DA:318,5
DA:319,5
DA:320,5
DA:321,2
DA:322,2
DA:323,2
DA:324,2
DA:325,2
DA:326,2
DA:328,2
DA:334,0
DA:337,3
DA:338,3
DA:339,3
DA:341,3
DA:342,3
DA:343,1
DA:344,1
DA:345,1
DA:346,1
DA:350,2
DA:351,1
DA:352,1
DA:353,1
DA:354,1
DA:358,1
DA:359,1
DA:360,1
DA:361,1
DA:362,1
DA:363,1
DA:364,1
DA:365,1
DA:369,0
DA:372,0
DA:374,5
DA:381,5
DA:382,5
DA:383,5
DA:384,5
DA:385,5
DA:386,5
DA:387,5
DA:388,5
DA:389,5
DA:390,5
DA:391,5
DA:392,5
DA:393,5
DA:394,5
DA:395,5
DA:398,1
DA:399,1
DA:400,1
DA:402,1
DA:403,1
DA:404,1
DA:405,1
DA:406,1
DA:407,1
DA:410,1
DA:411,1
DA:412,1
DA:414,1
DA:415,1
DA:416,1
DA:417,1
DA:418,1
DA:419,1
DA:422,1
DA:423,1
DA:425,1
DA:426,1
DA:427,1
DA:428,1
DA:429,1
DA:430,1
DA:433,1
DA:434,1
DA:436,1
DA:437,1
DA:438,1
DA:439,1
DA:440,1
DA:441,1
DA:444,1
DA:445,1
DA:447,1
DA:448,1
DA:449,1
DA:450,1
DA:451,1
DA:454,1
DA:455,1
DA:456,1
DA:457,1
DA:459,1
DA:460,1
DA:461,1
DA:462,1
DA:463,1
DA:464,1
DA:467,1
DA:468,1
DA:469,1
DA:470,1
DA:472,1
DA:473,1
DA:474,1
DA:475,1
DA:476,1
DA:477,1
DA:480,1
DA:481,1
DA:482,1
DA:484,1
DA:485,1
DA:486,1
DA:487,1
DA:488,1
DA:491,1
DA:492,1
DA:493,1
DA:495,1
DA:496,1
DA:497,1
DA:498,1
DA:501,1
DA:502,1
DA:503,1
DA:505,1
DA:506,1
DA:507,1
DA:508,1
DA:509,1
DA:512,1
DA:515,1
DA:516,1
DA:518,1
DA:519,1
DA:520,1
DA:523,1
DA:524,1
DA:525,1
DA:526,1
DA:527,1
DA:528,1
DA:530,1
DA:531,1
DA:532,1
DA:533,1
DA:536,1
DA:537,1
DA:538,1
DA:539,1
DA:540,1
DA:541,1
DA:543,1
DA:544,1
DA:545,1
DA:547,1
DA:548,1
DA:551,1
DA:552,1
DA:553,1
DA:555,1
DA:556,1
DA:557,1
DA:558,1
DA:559,1
DA:560,1
DA:561,1
DA:562,1
DA:563,1
DA:564,1
DA:566,1
DA:567,1
DA:568,1
DA:569,1
DA:570,1
BRF:0
BRH:0
LF:222
LH:219
end_of_record
SF:/mnt/d/prj/intent-engine/src/dependencies.rs
FN:101,_RNvNtCsjp9E11WtBq9_13intent_engine12dependencies14add_dependency
FN:44,_RNvNtCsjp9E11WtBq9_13intent_engine12dependencies25check_circular_dependency
FN:171,_RNvNtCsjp9E11WtBq9_13intent_engine12dependencies29get_incomplete_blocking_tasks
FN:105,_RNCNvNtCsjp9E11WtBq9_13intent_engine12dependencies14add_dependency0B5_
FN:48,_RNCNvNtCsjp9E11WtBq9_13intent_engine12dependencies25check_circular_dependency0B5_
FN:174,_RNCNvNtCsjp9E11WtBq9_13intent_engine12dependencies29get_incomplete_blocking_tasks0B5_
FN:201,_RNvNtNtCs86Lp2I5pN1o_13intent_engine12dependencies5tests13setup_test_db
FN:209,_RNvNtNtCs86Lp2I5pN1o_13intent_engine12dependencies5tests16create_test_task
FN:349,_RNvNtNtCs86Lp2I5pN1o_13intent_engine12dependencies5testss_27test_add_dependency_success
FN:361,_RNvNtNtCs86Lp2I5pN1o_13intent_engine12dependencies5testss_34test_add_dependency_circular_error
FN:378,_RNvNtNtCs86Lp2I5pN1o_13intent_engine12dependencies5testss_34test_add_dependency_task_not_found
FN:219,_RNvNtNtCs86Lp2I5pN1o_13intent_engine12dependencies5testss_35test_check_circular_dependency_self
FN:282,_RNvNtNtCs86Lp2I5pN1o_13intent_engine12dependencies5testss_39test_check_circular_dependency_no_cycle
FN:304,_RNvNtNtCs86Lp2I5pN1o_13intent_engine12dependencies5testss_41test_check_circular_dependency_deep_chain
FN:388,_RNvNtNtCs86Lp2I5pN1o_13intent_engine12dependencies5testss_42test_get_incomplete_blocking_tasks_blocked
FN:231,_RNvNtNtCs86Lp2I5pN1o_13intent_engine12dependencies5testss_43test_check_circular_dependency_direct_cycle
FN:402,_RNvNtNtCs86Lp2I5pN1o_13intent_engine12dependencies5testss_46test_get_incomplete_blocking_tasks_not_blocked
FN:253,_RNvNtNtCs86Lp2I5pN1o_13intent_engine12dependencies5testss_47test_check_circular_dependency_transitive_cycle
FN:105,_RNCNvNtCs86Lp2I5pN1o_13intent_engine12dependencies14add_dependency0B5_
FN:48,_RNCNvNtCs86Lp2I5pN1o_13intent_engine12dependencies25check_circular_dependency0B5_
FN:174,_RNCNvNtCs86Lp2I5pN1o_13intent_engine12dependencies29get_incomplete_blocking_tasks0B5_
FN:201,_RNCNvNtNtCs86Lp2I5pN1o_13intent_engine12dependencies5tests13setup_test_db0B7_
FN:209,_RNCNvNtNtCs86Lp2I5pN1o_13intent_engine12dependencies5tests16create_test_task0B7_
FN:349,_RNCNvNtNtCs86Lp2I5pN1o_13intent_engine12dependencies5testss_27test_add_dependency_success0B7_
FN:361,_RNCNvNtNtCs86Lp2I5pN1o_13intent_engine12dependencies5testss_34test_add_dependency_circular_error0B7_
FN:378,_RNCNvNtNtCs86Lp2I5pN1o_13intent_engine12dependencies5testss_34test_add_dependency_task_not_found0B7_
FN:219,_RNCNvNtNtCs86Lp2I5pN1o_13intent_engine12dependencies5testss_35test_check_circular_dependency_self0B7_
FN:282,_RNCNvNtNtCs86Lp2I5pN1o_13intent_engine12dependencies5testss_39test_check_circular_dependency_no_cycle0B7_
FN:304,_RNCNvNtNtCs86Lp2I5pN1o_13intent_engine12dependencies5testss_41test_check_circular_dependency_deep_chain0B7_
FN:388,_RNCNvNtNtCs86Lp2I5pN1o_13intent_engine12dependencies5testss_42test_get_incomplete_blocking_tasks_blocked0B7_
FN:231,_RNCNvNtNtCs86Lp2I5pN1o_13intent_engine12dependencies5testss_43test_check_circular_dependency_direct_cycle0B7_
FN:402,_RNCNvNtNtCs86Lp2I5pN1o_13intent_engine12dependencies5testss_46test_get_incomplete_blocking_tasks_not_blocked0B7_
FN:253,_RNCNvNtNtCs86Lp2I5pN1o_13intent_engine12dependencies5testss_47test_check_circular_dependency_transitive_cycle0B7_
FN:101,_RNvNtCs86Lp2I5pN1o_13intent_engine12dependencies14add_dependency
FN:44,_RNvNtCs86Lp2I5pN1o_13intent_engine12dependencies25check_circular_dependency
FN:171,_RNvNtCs86Lp2I5pN1o_13intent_engine12dependencies29get_incomplete_blocking_tasks
FNDA:0,_RNvNtCsjp9E11WtBq9_13intent_engine12dependencies14add_dependency
FNDA:0,_RNvNtCsjp9E11WtBq9_13intent_engine12dependencies25check_circular_dependency
FNDA:0,_RNvNtCsjp9E11WtBq9_13intent_engine12dependencies29get_incomplete_blocking_tasks
FNDA:0,_RNCNvNtCsjp9E11WtBq9_13intent_engine12dependencies14add_dependency0B5_
FNDA:0,_RNCNvNtCsjp9E11WtBq9_13intent_engine12dependencies25check_circular_dependency0B5_
FNDA:0,_RNCNvNtCsjp9E11WtBq9_13intent_engine12dependencies29get_incomplete_blocking_tasks0B5_
FNDA:10,_RNvNtNtCs86Lp2I5pN1o_13intent_engine12dependencies5tests13setup_test_db
FNDA:23,_RNvNtNtCs86Lp2I5pN1o_13intent_engine12dependencies5tests16create_test_task
FNDA:1,_RNvNtNtCs86Lp2I5pN1o_13intent_engine12dependencies5testss_27test_add_dependency_success
FNDA:1,_RNvNtNtCs86Lp2I5pN1o_13intent_engine12dependencies5testss_34test_add_dependency_circular_error
FNDA:1,_RNvNtNtCs86Lp2I5pN1o_13intent_engine12dependencies5testss_34test_add_dependency_task_not_found
FNDA:1,_RNvNtNtCs86Lp2I5pN1o_13intent_engine12dependencies5testss_35test_check_circular_dependency_self
FNDA:1,_RNvNtNtCs86Lp2I5pN1o_13intent_engine12dependencies5testss_39test_check_circular_dependency_no_cycle
FNDA:1,_RNvNtNtCs86Lp2I5pN1o_13intent_engine12dependencies5testss_41test_check_circular_dependency_deep_chain
FNDA:1,_RNvNtNtCs86Lp2I5pN1o_13intent_engine12dependencies5testss_42test_get_incomplete_blocking_tasks_blocked
FNDA:1,_RNvNtNtCs86Lp2I5pN1o_13intent_engine12dependencies5testss_43test_check_circular_dependency_direct_cycle
FNDA:1,_RNvNtNtCs86Lp2I5pN1o_13intent_engine12dependencies5testss_46test_get_incomplete_blocking_tasks_not_blocked
FNDA:1,_RNvNtNtCs86Lp2I5pN1o_13intent_engine12dependencies5testss_47test_check_circular_dependency_transitive_cycle
FNDA:7,_RNCNvNtCs86Lp2I5pN1o_13intent_engine12dependencies14add_dependency0B5_
FNDA:11,_RNCNvNtCs86Lp2I5pN1o_13intent_engine12dependencies25check_circular_dependency0B5_
FNDA:45,_RNCNvNtCs86Lp2I5pN1o_13intent_engine12dependencies29get_incomplete_blocking_tasks0B5_
FNDA:10,_RNCNvNtNtCs86Lp2I5pN1o_13intent_engine12dependencies5tests13setup_test_db0B7_
FNDA:23,_RNCNvNtNtCs86Lp2I5pN1o_13intent_engine12dependencies5tests16create_test_task0B7_
FNDA:1,_RNCNvNtNtCs86Lp2I5pN1o_13intent_engine12dependencies5testss_27test_add_dependency_success0B7_
FNDA:1,_RNCNvNtNtCs86Lp2I5pN1o_13intent_engine12dependencies5testss_34test_add_dependency_circular_error0B7_
FNDA:1,_RNCNvNtNtCs86Lp2I5pN1o_13intent_engine12dependencies5testss_34test_add_dependency_task_not_found0B7_
FNDA:1,_RNCNvNtNtCs86Lp2I5pN1o_13intent_engine12dependencies5testss_35test_check_circular_dependency_self0B7_
FNDA:1,_RNCNvNtNtCs86Lp2I5pN1o_13intent_engine12dependencies5testss_39test_check_circular_dependency_no_cycle0B7_
FNDA:1,_RNCNvNtNtCs86Lp2I5pN1o_13intent_engine12dependencies5testss_41test_check_circular_dependency_deep_chain0B7_
FNDA:1,_RNCNvNtNtCs86Lp2I5pN1o_13intent_engine12dependencies5testss_42test_get_incomplete_blocking_tasks_blocked0B7_
FNDA:1,_RNCNvNtNtCs86Lp2I5pN1o_13intent_engine12dependencies5testss_43test_check_circular_dependency_direct_cycle0B7_
FNDA:1,_RNCNvNtNtCs86Lp2I5pN1o_13intent_engine12dependencies5testss_46test_get_incomplete_blocking_tasks_not_blocked0B7_
FNDA:1,_RNCNvNtNtCs86Lp2I5pN1o_13intent_engine12dependencies5testss_47test_check_circular_dependency_transitive_cycle0B7_
FNDA:7,_RNvNtCs86Lp2I5pN1o_13intent_engine12dependencies14add_dependency
FNDA:11,_RNvNtCs86Lp2I5pN1o_13intent_engine12dependencies25check_circular_dependency
FNDA:45,_RNvNtCs86Lp2I5pN1o_13intent_engine12dependencies29get_incomplete_blocking_tasks
FNF:30
FNH:30
DA:44,11
DA:45,11
DA:46,11
DA:47,11
DA:48,11
DA:50,11
DA:51,1
DA:52,10
DA:56,10
DA:57,10
DA:58,10
DA:59,10
DA:60,10
DA:61,10
DA:62,10
DA:63,10
DA:64,10
DA:65,10
DA:66,10
DA:67,10
DA:68,10
DA:69,10
DA:70,10
DA:71,10
DA:72,10
DA:73,10
DA:74,10
DA:75,10
DA:76,10
DA:77,10
DA:78,10
DA:80,10
DA:81,11
DA:101,7
DA:102,7
DA:103,7
DA:104,7
DA:105,7
DA:107,7
DA:108,7
DA:109,7
DA:110,7
DA:112,7
DA:113,1
DA:114,6
DA:116,6
DA:117,6
DA:118,6
DA:119,6
DA:121,6
DA:122,0
DA:123,6
DA:126,6
DA:127,1
DA:128,1
DA:129,1
DA:130,1
DA:131,5
DA:134,5
DA:135,5
DA:136,5
DA:137,5
DA:138,5
DA:139,5
DA:140,5
DA:141,5
DA:142,5
DA:143,5
DA:145,5
DA:148,5
DA:149,5
DA:150,5
DA:151,5
DA:152,5
DA:153,5
DA:155,5
DA:156,7
DA:171,45
DA:172,45
DA:173,45
DA:174,45
DA:175,45
DA:176,45
DA:177,45
DA:178,45
DA:179,45
DA:180,45
DA:181,45
DA:182,45
DA:183,45
DA:184,45
DA:185,45
DA:186,45
DA:188,45
DA:189,44
DA:191,1
DA:193,45
DA:201,10
DA:202,10
DA:203,10
DA:204,10
DA:205,10
DA:206,10
DA:207,10
DA:209,23
DA:210,23
DA:211,23
DA:212,23
DA:213,23
DA:214,23
DA:215,23
DA:216,23
DA:219,1
DA:220,1
DA:221,1
DA:224,1
DA:225,1
DA:226,1
DA:227,1
DA:228,1
DA:231,1
DA:232,1
DA:233,1
DA:234,1
DA:237,1
DA:238,1
DA:239,1
DA:240,1
DA:241,1
DA:242,1
DA:246,1
DA:247,1
DA:248,1
DA:249,1
DA:250,1
DA:253,1
DA:254,1
DA:255,1
DA:256,1
DA:257,1
DA:260,1
DA:261,1
DA:262,1
DA:263,1
DA:264,1
DA:265,1
DA:267,1
DA:268,1
DA:269,1
DA:270,1
DA:271,1
DA:272,1
DA:275,1
DA:276,1
DA:277,1
DA:278,1
DA:279,1
DA:282,1
DA:283,1
DA:284,1
DA:285,1
DA:286,1
DA:289,1
DA:290,1
DA:291,1
DA:292,1
DA:293,1
DA:294,1
DA:297,1
DA:298,1
DA:299,1
DA:300,1
DA:301,1
DA:304,1
DA:305,1
DA:306,1
DA:307,1
DA:308,1
DA:309,1
DA:310,1
DA:313,1
DA:314,1
DA:315,1
DA:316,1
DA:317,1
DA:318,1
DA:320,1
DA:321,1
DA:322,1
DA:323,1
DA:324,1
DA:325,1
DA:327,1
DA:328,1
DA:329,1
DA:330,1
DA:331,1
DA:332,1
DA:334,1
DA:335,1
DA:336,1
DA:337,1
DA:338,1
DA:339,1
DA:342,1
DA:343,1
DA:344,1
DA:345,1
DA:346,1
DA:349,1
DA:350,1
DA:351,1
DA:352,1
DA:354,1
DA:356,1
DA:357,1
DA:358,1
DA:361,1
DA:362,1
DA:363,1
DA:364,1
DA:367,1
DA:370,1
DA:371,1
DA:372,1
DA:373,1
DA:374,1
DA:375,1
DA:378,1
DA:379,1
DA:380,1
DA:383,1
DA:384,1
DA:385,1
DA:388,1
DA:389,1
DA:390,1
DA:391,1
DA:394,1
DA:396,1
DA:397,1
DA:398,1
DA:399,1
DA:402,1
DA:403,1
DA:404,1
DA:405,1
DA:408,1
DA:409,1
DA:410,1
DA:411,1
DA:412,1
DA:413,1
DA:415,1
DA:416,1
DA:417,1
BRF:0
BRH:0
LF:282
LH:281
end_of_record
SF:/mnt/d/prj/intent-engine/src/error.rs
FN:53,_RNvMNtCsjp9E11WtBq9_13intent_engine5errorNtB2_11IntentError13to_error_code
FN:67,_RNvMNtCsjp9E11WtBq9_13intent_engine5errorNtB2_11IntentError17to_error_response
FN:166,_RNvNtNtCs86Lp2I5pN1o_13intent_engine5error5testss_24test_database_error_code
FN:89,_RNvNtNtCs86Lp2I5pN1o_13intent_engine5error5testss_24test_invalid_input_error
FN:132,_RNvNtNtCs86Lp2I5pN1o_13intent_engine5error5testss_24test_io_error_conversion
FN:122,_RNvNtNtCs86Lp2I5pN1o_13intent_engine5error5testss_24test_not_a_project_error
FN:82,_RNvNtNtCs86Lp2I5pN1o_13intent_engine5error5testss_25test_task_not_found_error
FN:139,_RNvNtNtCs86Lp2I5pN1o_13intent_engine5error5testss_26test_json_error_conversion
FN:175,_RNvNtNtCs86Lp2I5pN1o_13intent_engine5error5testss_28test_internal_error_fallback
FN:108,_RNvNtNtCs86Lp2I5pN1o_13intent_engine5error5testss_29test_action_not_allowed_error
FN:147,_RNvNtNtCs86Lp2I5pN1o_13intent_engine5error5testss_29test_error_response_structure
FN:96,_RNvNtNtCs86Lp2I5pN1o_13intent_engine5error5testss_30test_circular_dependency_error
FN:115,_RNvNtNtCs86Lp2I5pN1o_13intent_engine5error5testss_31test_uncompleted_children_error
FN:156,_RNvNtNtCs86Lp2I5pN1o_13intent_engine5error5testss_33test_error_response_serialization
FN:53,_RNvMNtCs86Lp2I5pN1o_13intent_engine5errorNtB2_11IntentError13to_error_code
FN:67,_RNvMNtCs86Lp2I5pN1o_13intent_engine5errorNtB2_11IntentError17to_error_response
FNDA:0,_RNvMNtCsjp9E11WtBq9_13intent_engine5errorNtB2_11IntentError13to_error_code
FNDA:0,_RNvMNtCsjp9E11WtBq9_13intent_engine5errorNtB2_11IntentError17to_error_response
FNDA:1,_RNvNtNtCs86Lp2I5pN1o_13intent_engine5error5testss_24test_database_error_code
FNDA:1,_RNvNtNtCs86Lp2I5pN1o_13intent_engine5error5testss_24test_invalid_input_error
FNDA:1,_RNvNtNtCs86Lp2I5pN1o_13intent_engine5error5testss_24test_io_error_conversion
FNDA:1,_RNvNtNtCs86Lp2I5pN1o_13intent_engine5error5testss_24test_not_a_project_error
FNDA:1,_RNvNtNtCs86Lp2I5pN1o_13intent_engine5error5testss_25test_task_not_found_error
FNDA:1,_RNvNtNtCs86Lp2I5pN1o_13intent_engine5error5testss_26test_json_error_conversion
FNDA:1,_RNvNtNtCs86Lp2I5pN1o_13intent_engine5error5testss_28test_internal_error_fallback
FNDA:1,_RNvNtNtCs86Lp2I5pN1o_13intent_engine5error5testss_29test_action_not_allowed_error
FNDA:1,_RNvNtNtCs86Lp2I5pN1o_13intent_engine5error5testss_29test_error_response_structure
FNDA:1,_RNvNtNtCs86Lp2I5pN1o_13intent_engine5error5testss_30test_circular_dependency_error
FNDA:1,_RNvNtNtCs86Lp2I5pN1o_13intent_engine5error5testss_31test_uncompleted_children_error
FNDA:1,_RNvNtNtCs86Lp2I5pN1o_13intent_engine5error5testss_33test_error_response_serialization
FNDA:10,_RNvMNtCs86Lp2I5pN1o_13intent_engine5errorNtB2_11IntentError13to_error_code
FNDA:3,_RNvMNtCs86Lp2I5pN1o_13intent_engine5errorNtB2_11IntentError17to_error_response
FNF:14
FNH:14
DA:53,10
DA:54,10
DA:55,3
DA:56,0
DA:57,2
DA:58,1
DA:59,0
DA:60,1
DA:61,1
DA:62,1
DA:63,1
DA:65,10
DA:67,3
DA:68,3
DA:69,3
DA:70,3
DA:71,3
DA:72,3
DA:82,1
DA:83,1
DA:84,1
DA:85,1
DA:86,1
DA:89,1
DA:90,1
DA:91,1
DA:92,1
DA:93,1
DA:96,1
DA:97,1
DA:98,1
DA:99,1
DA:100,1
DA:101,1
DA:102,1
DA:103,1
DA:104,1
DA:105,1
DA:108,1
DA:109,1
DA:110,1
DA:111,1
DA:112,1
DA:115,1
DA:116,1
DA:117,1
DA:118,1
DA:119,1
DA:122,1
DA:123,1
DA:124,1
DA:125,1
DA:128,1
DA:129,1
DA:132,1
DA:133,1
DA:134,1
DA:135,1
DA:136,1
DA:139,1
DA:140,1
DA:141,1
DA:142,1
DA:143,1
DA:144,1
DA:147,1
DA:148,1
DA:149,1
DA:151,1
DA:152,1
DA:153,1
DA:156,1
DA:157,1
DA:158,1
DA:159,1
DA:161,1
DA:162,1
DA:163,1
DA:166,1
DA:168,1
DA:169,1
DA:170,0
DA:171,1
DA:172,1
DA:175,1
DA:177,1
DA:178,1
DA:179,1
DA:180,1
BRF:0
BRH:0
LF:89
LH:86
end_of_record
SF:/mnt/d/prj/intent-engine/src/events.rs
FN:310,_RNCNvMNtCsjp9E11WtBq9_13intent_engine6eventsNtB4_12EventManager18search_events_fts50B6_
FN:232,_RNvMNtCsjp9E11WtBq9_13intent_engine6eventsNtB2_12EventManager11list_events
FN:201,_RNvMNtCsjp9E11WtBq9_13intent_engine6eventsNtB2_12EventManager12delete_event
FN:151,_RNvMNtCsjp9E11WtBq9_13intent_engine6eventsNtB2_12EventManager12update_event
FN:36,_RNvMNtCsjp9E11WtBq9_13intent_engine6eventsNtB2_12EventManager14with_websocket
FN:23,_RNvMNtCsjp9E11WtBq9_13intent_engine6eventsNtB2_12EventManager17with_mcp_notifier
FN:306,_RNvMNtCsjp9E11WtBq9_13intent_engine6eventsNtB2_12EventManager18search_events_fts5
FN:49,_RNvMNtCsjp9E11WtBq9_13intent_engine6eventsNtB2_12EventManager20notify_event_created
FN:91,_RNvMNtCsjp9E11WtBq9_13intent_engine6eventsNtB2_12EventManager20notify_event_deleted
FN:70,_RNvMNtCsjp9E11WtBq9_13intent_engine6eventsNtB2_12EventManager20notify_event_updated
FN:14,_RNvMNtCsjp9E11WtBq9_13intent_engine6eventsNtB2_12EventManager3new
FN:103,_RNvMNtCsjp9E11WtBq9_13intent_engine6eventsNtB2_12EventManager9add_event
FN:238,_RNCNvMNtCsjp9E11WtBq9_13intent_engine6eventsNtB4_12EventManager11list_events0B6_
FN:201,_RNCNvMNtCsjp9E11WtBq9_13intent_engine6eventsNtB4_12EventManager12delete_event0B6_
FN:156,_RNCNvMNtCsjp9E11WtBq9_13intent_engine6eventsNtB4_12EventManager12update_event0B6_
FN:49,_RNCNvMNtCsjp9E11WtBq9_13intent_engine6eventsNtB4_12EventManager20notify_event_created0B6_
FN:91,_RNCNvMNtCsjp9E11WtBq9_13intent_engine6eventsNtB4_12EventManager20notify_event_deleted0B6_
FN:70,_RNCNvMNtCsjp9E11WtBq9_13intent_engine6eventsNtB4_12EventManager20notify_event_updated0B6_
FN:108,_RNCNvMNtCsjp9E11WtBq9_13intent_engine6eventsNtB4_12EventManager9add_event0B6_
FN:310,_RNCNvMNtCs86Lp2I5pN1o_13intent_engine6eventsNtB4_12EventManager18search_events_fts50B6_
FN:306,_RNvMNtCs86Lp2I5pN1o_13intent_engine6eventsNtB2_12EventManager18search_events_fts5
FN:370,_RNvNtNtCs86Lp2I5pN1o_13intent_engine6events5testss_14test_add_event
FN:396,_RNvNtNtCs86Lp2I5pN1o_13intent_engine6events5testss_16test_list_events
FN:536,_RNvNtNtCs86Lp2I5pN1o_13intent_engine6events5testss_17test_delete_event
FN:477,_RNvNtNtCs86Lp2I5pN1o_13intent_engine6events5testss_17test_update_event
FN:462,_RNvNtNtCs86Lp2I5pN1o_13intent_engine6events5testss_22test_list_events_empty
FN:601,_RNvNtNtCs86Lp2I5pN1o_13intent_engine6events5testss_23test_list_events_global
FN:501,_RNvNtNtCs86Lp2I5pN1o_13intent_engine6events5testss_25test_update_event_partial
FN:430,_RNvNtNtCs86Lp2I5pN1o_13intent_engine6events5testss_27test_list_events_with_limit
FN:559,_RNvNtNtCs86Lp2I5pN1o_13intent_engine6events5testss_29test_delete_event_nonexistent
FN:523,_RNvNtNtCs86Lp2I5pN1o_13intent_engine6events5testss_29test_update_event_nonexistent
FN:387,_RNvNtNtCs86Lp2I5pN1o_13intent_engine6events5testss_31test_add_event_nonexistent_task
FN:569,_RNvNtNtCs86Lp2I5pN1o_13intent_engine6events5testss_31test_list_events_filter_by_type
FN:453,_RNvNtNtCs86Lp2I5pN1o_13intent_engine6events5testss_33test_list_events_nonexistent_task
FN:232,_RNvMNtCs86Lp2I5pN1o_13intent_engine6eventsNtB2_12EventManager11list_events
FN:201,_RNvMNtCs86Lp2I5pN1o_13intent_engine6eventsNtB2_12EventManager12delete_event
FN:151,_RNvMNtCs86Lp2I5pN1o_13intent_engine6eventsNtB2_12EventManager12update_event
FN:36,_RNvMNtCs86Lp2I5pN1o_13intent_engine6eventsNtB2_12EventManager14with_websocket
FN:23,_RNvMNtCs86Lp2I5pN1o_13intent_engine6eventsNtB2_12EventManager17with_mcp_notifier
FN:49,_RNvMNtCs86Lp2I5pN1o_13intent_engine6eventsNtB2_12EventManager20notify_event_created
FN:91,_RNvMNtCs86Lp2I5pN1o_13intent_engine6eventsNtB2_12EventManager20notify_event_deleted
FN:70,_RNvMNtCs86Lp2I5pN1o_13intent_engine6eventsNtB2_12EventManager20notify_event_updated
FN:14,_RNvMNtCs86Lp2I5pN1o_13intent_engine6eventsNtB2_12EventManager3new
FN:103,_RNvMNtCs86Lp2I5pN1o_13intent_engine6eventsNtB2_12EventManager9add_event
FN:623,_RNCNCNvNtNtCs86Lp2I5pN1o_13intent_engine6events5testss_23test_list_events_global00B9_
FN:624,_RNCNCNvNtNtCs86Lp2I5pN1o_13intent_engine6events5testss_23test_list_events_global0s_0B9_
FN:597,_RNCNCNvNtNtCs86Lp2I5pN1o_13intent_engine6events5testss_31test_list_events_filter_by_type00B9_
FN:370,_RNCNvNtNtCs86Lp2I5pN1o_13intent_engine6events5testss_14test_add_event0B7_
FN:396,_RNCNvNtNtCs86Lp2I5pN1o_13intent_engine6events5testss_16test_list_events0B7_
FN:536,_RNCNvNtNtCs86Lp2I5pN1o_13intent_engine6events5testss_17test_delete_event0B7_
FN:477,_RNCNvNtNtCs86Lp2I5pN1o_13intent_engine6events5testss_17test_update_event0B7_
FN:462,_RNCNvNtNtCs86Lp2I5pN1o_13intent_engine6events5testss_22test_list_events_empty0B7_
FN:601,_RNCNvNtNtCs86Lp2I5pN1o_13intent_engine6events5testss_23test_list_events_global0B7_
FN:501,_RNCNvNtNtCs86Lp2I5pN1o_13intent_engine6events5testss_25test_update_event_partial0B7_
FN:430,_RNCNvNtNtCs86Lp2I5pN1o_13intent_engine6events5testss_27test_list_events_with_limit0B7_
FN:559,_RNCNvNtNtCs86Lp2I5pN1o_13intent_engine6events5testss_29test_delete_event_nonexistent0B7_
FN:523,_RNCNvNtNtCs86Lp2I5pN1o_13intent_engine6events5testss_29test_update_event_nonexistent0B7_
FN:387,_RNCNvNtNtCs86Lp2I5pN1o_13intent_engine6events5testss_31test_add_event_nonexistent_task0B7_
FN:569,_RNCNvNtNtCs86Lp2I5pN1o_13intent_engine6events5testss_31test_list_events_filter_by_type0B7_
FN:453,_RNCNvNtNtCs86Lp2I5pN1o_13intent_engine6events5testss_33test_list_events_nonexistent_task0B7_
FN:238,_RNCNvMNtCs86Lp2I5pN1o_13intent_engine6eventsNtB4_12EventManager11list_events0B6_
FN:201,_RNCNvMNtCs86Lp2I5pN1o_13intent_engine6eventsNtB4_12EventManager12delete_event0B6_
FN:156,_RNCNvMNtCs86Lp2I5pN1o_13intent_engine6eventsNtB4_12EventManager12update_event0B6_
FN:49,_RNCNvMNtCs86Lp2I5pN1o_13intent_engine6eventsNtB4_12EventManager20notify_event_created0B6_
FN:91,_RNCNvMNtCs86Lp2I5pN1o_13intent_engine6eventsNtB4_12EventManager20notify_event_deleted0B6_
FN:70,_RNCNvMNtCs86Lp2I5pN1o_13intent_engine6eventsNtB4_12EventManager20notify_event_updated0B6_
FN:108,_RNCNvMNtCs86Lp2I5pN1o_13intent_engine6eventsNtB4_12EventManager9add_event0B6_
FNDA:0,_RNCNvMNtCsjp9E11WtBq9_13intent_engine6eventsNtB4_12EventManager18search_events_fts50B6_
FNDA:0,_RNvMNtCsjp9E11WtBq9_13intent_engine6eventsNtB2_12EventManager11list_events
FNDA:0,_RNvMNtCsjp9E11WtBq9_13intent_engine6eventsNtB2_12EventManager12delete_event
FNDA:0,_RNvMNtCsjp9E11WtBq9_13intent_engine6eventsNtB2_12EventManager12update_event
FNDA:0,_RNvMNtCsjp9E11WtBq9_13intent_engine6eventsNtB2_12EventManager14with_websocket
FNDA:0,_RNvMNtCsjp9E11WtBq9_13intent_engine6eventsNtB2_12EventManager17with_mcp_notifier
FNDA:0,_RNvMNtCsjp9E11WtBq9_13intent_engine6eventsNtB2_12EventManager18search_events_fts5
FNDA:0,_RNvMNtCsjp9E11WtBq9_13intent_engine6eventsNtB2_12EventManager20notify_event_created
FNDA:0,_RNvMNtCsjp9E11WtBq9_13intent_engine6eventsNtB2_12EventManager20notify_event_deleted
FNDA:0,_RNvMNtCsjp9E11WtBq9_13intent_engine6eventsNtB2_12EventManager20notify_event_updated
FNDA:0,_RNvMNtCsjp9E11WtBq9_13intent_engine6eventsNtB2_12EventManager3new
FNDA:0,_RNvMNtCsjp9E11WtBq9_13intent_engine6eventsNtB2_12EventManager9add_event
FNDA:0,_RNCNvMNtCsjp9E11WtBq9_13intent_engine6eventsNtB4_12EventManager11list_events0B6_
FNDA:0,_RNCNvMNtCsjp9E11WtBq9_13intent_engine6eventsNtB4_12EventManager12delete_event0B6_
FNDA:0,_RNCNvMNtCsjp9E11WtBq9_13intent_engine6eventsNtB4_12EventManager12update_event0B6_
FNDA:0,_RNCNvMNtCsjp9E11WtBq9_13intent_engine6eventsNtB4_12EventManager20notify_event_created0B6_
FNDA:0,_RNCNvMNtCsjp9E11WtBq9_13intent_engine6eventsNtB4_12EventManager20notify_event_deleted0B6_
FNDA:0,_RNCNvMNtCsjp9E11WtBq9_13intent_engine6eventsNtB4_12EventManager20notify_event_updated0B6_
FNDA:0,_RNCNvMNtCsjp9E11WtBq9_13intent_engine6eventsNtB4_12EventManager9add_event0B6_
FNDA:0,_RNCNvMNtCs86Lp2I5pN1o_13intent_engine6eventsNtB4_12EventManager18search_events_fts50B6_
FNDA:0,_RNvMNtCs86Lp2I5pN1o_13intent_engine6eventsNtB2_12EventManager18search_events_fts5
FNDA:1,_RNvNtNtCs86Lp2I5pN1o_13intent_engine6events5testss_14test_add_event
FNDA:1,_RNvNtNtCs86Lp2I5pN1o_13intent_engine6events5testss_16test_list_events
FNDA:1,_RNvNtNtCs86Lp2I5pN1o_13intent_engine6events5testss_17test_delete_event
FNDA:1,_RNvNtNtCs86Lp2I5pN1o_13intent_engine6events5testss_17test_update_event
FNDA:1,_RNvNtNtCs86Lp2I5pN1o_13intent_engine6events5testss_22test_list_events_empty
FNDA:1,_RNvNtNtCs86Lp2I5pN1o_13intent_engine6events5testss_23test_list_events_global
FNDA:1,_RNvNtNtCs86Lp2I5pN1o_13intent_engine6events5testss_25test_update_event_partial
FNDA:1,_RNvNtNtCs86Lp2I5pN1o_13intent_engine6events5testss_27test_list_events_with_limit
FNDA:1,_RNvNtNtCs86Lp2I5pN1o_13intent_engine6events5testss_29test_delete_event_nonexistent
FNDA:1,_RNvNtNtCs86Lp2I5pN1o_13intent_engine6events5testss_29test_update_event_nonexistent
FNDA:1,_RNvNtNtCs86Lp2I5pN1o_13intent_engine6events5testss_31test_add_event_nonexistent_task
FNDA:1,_RNvNtNtCs86Lp2I5pN1o_13intent_engine6events5testss_31test_list_events_filter_by_type
FNDA:1,_RNvNtNtCs86Lp2I5pN1o_13intent_engine6events5testss_33test_list_events_nonexistent_task
FNDA:15,_RNvMNtCs86Lp2I5pN1o_13intent_engine6eventsNtB2_12EventManager11list_events
FNDA:2,_RNvMNtCs86Lp2I5pN1o_13intent_engine6eventsNtB2_12EventManager12delete_event
FNDA:3,_RNvMNtCs86Lp2I5pN1o_13intent_engine6eventsNtB2_12EventManager12update_event
FNDA:0,_RNvMNtCs86Lp2I5pN1o_13intent_engine6eventsNtB2_12EventManager14with_websocket
FNDA:0,_RNvMNtCs86Lp2I5pN1o_13intent_engine6eventsNtB2_12EventManager17with_mcp_notifier
FNDA:73,_RNvMNtCs86Lp2I5pN1o_13intent_engine6eventsNtB2_12EventManager20notify_event_created
FNDA:1,_RNvMNtCs86Lp2I5pN1o_13intent_engine6eventsNtB2_12EventManager20notify_event_deleted
FNDA:2,_RNvMNtCs86Lp2I5pN1o_13intent_engine6eventsNtB2_12EventManager20notify_event_updated
FNDA:34,_RNvMNtCs86Lp2I5pN1o_13intent_engine6eventsNtB2_12EventManager3new
FNDA:74,_RNvMNtCs86Lp2I5pN1o_13intent_engine6eventsNtB2_12EventManager9add_event
FNDA:2,_RNCNCNvNtNtCs86Lp2I5pN1o_13intent_engine6events5testss_23test_list_events_global00B9_
FNDA:2,_RNCNCNvNtNtCs86Lp2I5pN1o_13intent_engine6events5testss_23test_list_events_global0s_0B9_
FNDA:2,_RNCNCNvNtNtCs86Lp2I5pN1o_13intent_engine6events5testss_31test_list_events_filter_by_type00B9_
FNDA:1,_RNCNvNtNtCs86Lp2I5pN1o_13intent_engine6events5testss_14test_add_event0B7_
FNDA:1,_RNCNvNtNtCs86Lp2I5pN1o_13intent_engine6events5testss_16test_list_events0B7_
FNDA:1,_RNCNvNtNtCs86Lp2I5pN1o_13intent_engine6events5testss_17test_delete_event0B7_
FNDA:1,_RNCNvNtNtCs86Lp2I5pN1o_13intent_engine6events5testss_17test_update_event0B7_
FNDA:1,_RNCNvNtNtCs86Lp2I5pN1o_13intent_engine6events5testss_22test_list_events_empty0B7_
FNDA:1,_RNCNvNtNtCs86Lp2I5pN1o_13intent_engine6events5testss_23test_list_events_global0B7_
FNDA:1,_RNCNvNtNtCs86Lp2I5pN1o_13intent_engine6events5testss_25test_update_event_partial0B7_
FNDA:1,_RNCNvNtNtCs86Lp2I5pN1o_13intent_engine6events5testss_27test_list_events_with_limit0B7_
FNDA:1,_RNCNvNtNtCs86Lp2I5pN1o_13intent_engine6events5testss_29test_delete_event_nonexistent0B7_
FNDA:1,_RNCNvNtNtCs86Lp2I5pN1o_13intent_engine6events5testss_29test_update_event_nonexistent0B7_
FNDA:1,_RNCNvNtNtCs86Lp2I5pN1o_13intent_engine6events5testss_31test_add_event_nonexistent_task0B7_
FNDA:1,_RNCNvNtNtCs86Lp2I5pN1o_13intent_engine6events5testss_31test_list_events_filter_by_type0B7_
FNDA:1,_RNCNvNtNtCs86Lp2I5pN1o_13intent_engine6events5testss_33test_list_events_nonexistent_task0B7_
FNDA:15,_RNCNvMNtCs86Lp2I5pN1o_13intent_engine6eventsNtB4_12EventManager11list_events0B6_
FNDA:2,_RNCNvMNtCs86Lp2I5pN1o_13intent_engine6eventsNtB4_12EventManager12delete_event0B6_
FNDA:3,_RNCNvMNtCs86Lp2I5pN1o_13intent_engine6eventsNtB4_12EventManager12update_event0B6_
FNDA:73,_RNCNvMNtCs86Lp2I5pN1o_13intent_engine6eventsNtB4_12EventManager20notify_event_created0B6_
FNDA:1,_RNCNvMNtCs86Lp2I5pN1o_13intent_engine6eventsNtB4_12EventManager20notify_event_deleted0B6_
FNDA:2,_RNCNvMNtCs86Lp2I5pN1o_13intent_engine6eventsNtB4_12EventManager20notify_event_updated0B6_
FNDA:74,_RNCNvMNtCs86Lp2I5pN1o_13intent_engine6eventsNtB4_12EventManager9add_event0B6_
FNF:48
FNH:44
DA:14,34
DA:15,34
DA:16,34
DA:17,34
DA:18,34
DA:19,34
DA:20,34
DA:23,0
DA:24,0
DA:25,0
DA:26,0
DA:27,0
DA:28,0
DA:29,0
DA:30,0
DA:31,0
DA:32,0
DA:33,0
DA:36,0
DA:37,0
DA:38,0
DA:39,0
DA:40,0
DA:41,0
DA:42,0
DA:43,0
DA:44,0
DA:45,0
DA:46,0
DA:49,73
DA:52,73
DA:53,73
DA:56,0
DA:57,0
DA:58,0
DA:59,0
DA:60,0
DA:64,0
DA:65,0
DA:66,0
DA:67,73
DA:70,2
DA:73,2
DA:74,2
DA:77,0
DA:78,0
DA:79,0
DA:80,0
DA:81,0
DA:85,0
DA:86,0
DA:87,0
DA:88,2
DA:91,1
DA:94,1
DA:95,1
DA:98,0
DA:99,0
DA:100,1
DA:103,74
DA:104,74
DA:105,74
DA:106,74
DA:107,74
DA:108,74
DA:110,74
DA:111,74
DA:112,74
DA:113,74
DA:115,74
DA:116,1
DA:117,73
DA:119,73
DA:121,73
DA:122,73
DA:123,73
DA:124,73
DA:125,73
DA:126,73
DA:127,73
DA:128,73
DA:129,73
DA:130,73
DA:131,73
DA:132,73
DA:134,73
DA:136,73
DA:137,73
DA:138,73
DA:139,73
DA:140,73
DA:141,73
DA:142,73
DA:145,73
DA:147,73
DA:148,74
DA:151,3
DA:152,3
DA:153,3
DA:154,3
DA:155,3
DA:156,3
DA:158,3
DA:159,3
DA:160,3
DA:161,3
DA:162,3
DA:164,3
DA:165,3
DA:166,3
DA:167,3
DA:170,2
DA:171,2
DA:173,2
DA:174,2
DA:175,2
DA:176,2
DA:177,2
DA:178,2
DA:179,2
DA:180,2
DA:181,2
DA:182,2
DA:183,2
DA:184,2
DA:186,2
DA:187,2
DA:188,2
DA:189,2
DA:190,2
DA:191,2
DA:192,2
DA:195,2
DA:197,2
DA:198,3
DA:201,2
DA:203,2
DA:204,2
DA:205,2
DA:206,2
DA:208,2
DA:209,2
DA:210,2
DA:211,2
DA:214,1
DA:215,1
DA:216,1
DA:217,1
DA:220,1
DA:221,1
DA:222,1
DA:223,1
DA:226,1
DA:228,1
DA:229,2
DA:232,15
DA:233,15
DA:234,15
DA:235,15
DA:236,15
DA:237,15
DA:238,15
DA:240,15
DA:241,13
DA:242,13
DA:243,13
DA:244,13
DA:246,13
DA:247,1
DA:248,12
DA:249,2
DA:251,14
DA:254,14
DA:255,0
DA:257,14
DA:261,14
DA:262,14
DA:264,14
DA:265,12
DA:266,12
DA:268,14
DA:269,2
DA:270,12
DA:272,14
DA:273,0
DA:274,14
DA:276,14
DA:277,12
DA:278,12
DA:279,12
DA:281,14
DA:284,14
DA:286,14
DA:287,12
DA:288,12
DA:290,14
DA:291,2
DA:292,12
DA:294,14
DA:295,0
DA:296,14
DA:298,14
DA:300,14
DA:302,14
DA:303,15
DA:306,0
DA:307,0
DA:308,0
DA:309,0
DA:310,0
DA:311,0
DA:314,0
DA:315,0
DA:316,0
DA:317,0
DA:318,0
DA:319,0
DA:320,0
DA:321,0
DA:322,0
DA:323,0
DA:324,0
DA:325,0
DA:326,0
DA:327,0
DA:328,0
DA:329,0
DA:330,0
DA:331,0
DA:332,0
DA:333,0
DA:335,0
DA:336,0
DA:337,0
DA:338,0
DA:339,0
DA:340,0
DA:341,0
DA:342,0
DA:343,0
DA:344,0
DA:345,0
DA:346,0
DA:347,0
DA:348,0
DA:349,0
DA:350,0
DA:352,0
DA:353,0
DA:370,1
DA:371,1
DA:372,1
DA:373,1
DA:375,1
DA:376,1
DA:377,1
DA:378,1
DA:379,1
DA:381,1
DA:382,1
DA:383,1
DA:384,1
DA:387,1
DA:388,1
DA:389,1
DA:391,1
DA:392,1
DA:393,1
DA:396,1
DA:397,1
DA:398,1
DA:399,1
DA:401,1
DA:404,1
DA:405,1
DA:406,1
DA:407,1
DA:408,1
DA:409,1
DA:410,1
DA:411,1
DA:412,1
DA:413,1
DA:414,1
DA:415,1
DA:417,1
DA:418,1
DA:419,1
DA:420,1
DA:421,1
DA:424,1
DA:425,1
DA:426,1
DA:427,1
DA:430,1
DA:431,1
DA:432,1
DA:433,1
DA:435,1
DA:438,6
DA:439,5
DA:440,5
DA:441,5
DA:442,5
DA:445,1
DA:446,1
DA:447,1
DA:448,1
DA:449,1
DA:450,1
DA:453,1
DA:454,1
DA:455,1
DA:457,1
DA:458,1
DA:459,1
DA:462,1
DA:463,1
DA:464,1
DA:465,1
DA:467,1
DA:469,1
DA:470,1
DA:471,1
DA:472,1
DA:473,1
DA:474,1
DA:477,1
DA:478,1
DA:479,1
DA:480,1
DA:482,1
DA:483,1
DA:484,1
DA:485,1
DA:486,1
DA:489,1
DA:490,1
DA:491,1
DA:492,1
DA:494,1
DA:495,1
DA:496,1
DA:497,1
DA:498,1
DA:501,1
DA:502,1
DA:503,1
DA:504,1
DA:506,1
DA:507,1
DA:508,1
DA:509,1
DA:510,1
DA:513,1
DA:514,1
DA:515,1
DA:516,1
DA:518,1
DA:519,1
DA:520,1
DA:523,1
DA:524,1
DA:525,1
DA:527,1
DA:528,1
DA:529,1
DA:531,1
DA:532,1
DA:533,1
DA:536,1
DA:537,1
DA:538,1
DA:539,1
DA:541,1
DA:542,1
DA:543,1
DA:544,1
DA:545,1
DA:548,1
DA:551,1
DA:552,1
DA:553,1
DA:554,1
DA:555,1
DA:556,1
DA:559,1
DA:560,1
DA:561,1
DA:563,1
DA:564,1
DA:565,1
DA:566,1
DA:569,1
DA:570,1
DA:571,1
DA:572,1
DA:574,1
DA:577,1
DA:578,1
DA:579,1
DA:580,1
DA:581,1
DA:582,1
DA:583,1
DA:584,1
DA:585,1
DA:586,1
DA:587,1
DA:588,1
DA:591,1
DA:592,1
DA:593,1
DA:594,1
DA:596,1
DA:597,2
DA:598,1
DA:601,1
DA:602,1
DA:603,1
DA:604,1
DA:606,1
DA:607,1
DA:610,1
DA:611,1
DA:612,1
DA:613,1
DA:614,1
DA:615,1
DA:616,1
DA:617,1
DA:620,1
DA:622,1
DA:623,2
DA:624,2
DA:626,1
DA:627,1
DA:628,1
BRF:0
BRH:0
LF:475
LH:387
end_of_record
SF:/mnt/d/prj/intent-engine/src/logging.rs
FN:133,_RNCNvNtCsjp9E11WtBq9_13intent_engine7logging12init_logging0B5_
FN:144,_RNCNvNtCsjp9E11WtBq9_13intent_engine7logging12init_loggings0_0B5_
FN:140,_RNCNvNtCsjp9E11WtBq9_13intent_engine7logging12init_loggings_0B5_
FN:50,_RNvMs_NtCsjp9E11WtBq9_13intent_engine7loggingNtB4_13LoggingConfig8for_mode
FN:92,_RNvMs_NtCsjp9E11WtBq9_13intent_engine7loggingNtB4_13LoggingConfig9from_args
FN:131,_RNvNtCsjp9E11WtBq9_13intent_engine7logging12init_logging
FN:203,_RNvNtCsjp9E11WtBq9_13intent_engine7logging13init_from_env
FN:402,_RNvNtCsjp9E11WtBq9_13intent_engine7logging13log_file_path
FN:238,_RNvNtCsjp9E11WtBq9_13intent_engine7logging16cleanup_old_logs
FN:35,_RNvXNtCsjp9E11WtBq9_13intent_engine7loggingNtB2_13LoggingConfigNtNtCs4Vq2ZLagKfv_4core7default7Default7default
FN:133,_RNCNvNtCs86Lp2I5pN1o_13intent_engine7logging12init_logging0B5_
FN:144,_RNCNvNtCs86Lp2I5pN1o_13intent_engine7logging12init_loggings0_0B5_
FN:140,_RNCNvNtCs86Lp2I5pN1o_13intent_engine7logging12init_loggings_0B5_
FN:131,_RNvNtCs86Lp2I5pN1o_13intent_engine7logging12init_logging
FN:203,_RNvNtCs86Lp2I5pN1o_13intent_engine7logging13init_from_env
FN:50,_RNvMs_NtCs86Lp2I5pN1o_13intent_engine7loggingNtB4_13LoggingConfig8for_mode
FN:92,_RNvMs_NtCs86Lp2I5pN1o_13intent_engine7loggingNtB4_13LoggingConfig9from_args
FN:402,_RNvNtCs86Lp2I5pN1o_13intent_engine7logging13log_file_path
FN:238,_RNvNtCs86Lp2I5pN1o_13intent_engine7logging16cleanup_old_logs
FN:35,_RNvXNtCs86Lp2I5pN1o_13intent_engine7loggingNtB2_13LoggingConfigNtNtCs4Vq2ZLagKfv_4core7default7Default7default
FN:550,_RNvNtNtCs86Lp2I5pN1o_13intent_engine7logging5testss_22test_log_file_path_cli
FN:556,_RNvNtNtCs86Lp2I5pN1o_13intent_engine7logging5testss_23test_log_file_path_test
FN:427,_RNvNtNtCs86Lp2I5pN1o_13intent_engine7logging5testss_27test_logging_config_default
FN:536,_RNvNtNtCs86Lp2I5pN1o_13intent_engine7logging5testss_28test_log_file_path_dashboard
FN:544,_RNvNtNtCs86Lp2I5pN1o_13intent_engine7logging5testss_29test_log_file_path_mcp_server
FN:574,_RNvNtNtCs86Lp2I5pN1o_13intent_engine7logging5testss_31test_cleanup_old_logs_empty_dir
FN:466,_RNvNtNtCs86Lp2I5pN1o_13intent_engine7logging5testss_32test_logging_config_for_mode_cli
FN:479,_RNvNtNtCs86Lp2I5pN1o_13intent_engine7logging5testss_33test_logging_config_for_mode_test
FN:513,_RNvNtNtCs86Lp2I5pN1o_13intent_engine7logging5testss_34test_logging_config_from_args_json
FN:503,_RNvNtNtCs86Lp2I5pN1o_13intent_engine7logging5testss_35test_logging_config_from_args_quiet
FN:523,_RNvNtNtCs86Lp2I5pN1o_13intent_engine7logging5testss_36test_logging_config_from_args_normal
FN:564,_RNvNtNtCs86Lp2I5pN1o_13intent_engine7logging5testss_37test_cleanup_old_logs_nonexistent_dir
FN:492,_RNvNtNtCs86Lp2I5pN1o_13intent_engine7logging5testss_37test_logging_config_from_args_verbose
FN:453,_RNvNtNtCs86Lp2I5pN1o_13intent_engine7logging5testss_38test_logging_config_for_mode_dashboard
FN:440,_RNvNtNtCs86Lp2I5pN1o_13intent_engine7logging5testss_39test_logging_config_for_mode_mcp_server
FN:582,_RNvNtNtCs86Lp2I5pN1o_13intent_engine7logging5testss_40test_cleanup_old_logs_keeps_current_logs
FN:643,_RNvNtNtCs86Lp2I5pN1o_13intent_engine7logging5testss_43test_cleanup_old_logs_ignores_non_log_files
FN:666,_RNvNtNtCs86Lp2I5pN1o_13intent_engine7logging5testss_44test_cleanup_old_logs_ignores_subdirectories
FN:596,_RNvNtNtCs86Lp2I5pN1o_13intent_engine7logging5testss_47test_cleanup_old_logs_removes_old_rotated_files
FN:618,_RNvNtNtCs86Lp2I5pN1o_13intent_engine7logging5testss_48test_cleanup_old_logs_keeps_recent_rotated_files
FNDA:0,_RNCNvNtCsjp9E11WtBq9_13intent_engine7logging12init_logging0B5_
FNDA:0,_RNCNvNtCsjp9E11WtBq9_13intent_engine7logging12init_loggings0_0B5_
FNDA:0,_RNCNvNtCsjp9E11WtBq9_13intent_engine7logging12init_loggings_0B5_
FNDA:0,_RNvMs_NtCsjp9E11WtBq9_13intent_engine7loggingNtB4_13LoggingConfig8for_mode
FNDA:0,_RNvMs_NtCsjp9E11WtBq9_13intent_engine7loggingNtB4_13LoggingConfig9from_args
FNDA:0,_RNvNtCsjp9E11WtBq9_13intent_engine7logging12init_logging
FNDA:0,_RNvNtCsjp9E11WtBq9_13intent_engine7logging13init_from_env
FNDA:0,_RNvNtCsjp9E11WtBq9_13intent_engine7logging13log_file_path
FNDA:0,_RNvNtCsjp9E11WtBq9_13intent_engine7logging16cleanup_old_logs
FNDA:0,_RNvXNtCsjp9E11WtBq9_13intent_engine7loggingNtB2_13LoggingConfigNtNtCs4Vq2ZLagKfv_4core7default7Default7default
FNDA:0,_RNCNvNtCs86Lp2I5pN1o_13intent_engine7logging12init_logging0B5_
FNDA:0,_RNCNvNtCs86Lp2I5pN1o_13intent_engine7logging12init_loggings0_0B5_
FNDA:0,_RNCNvNtCs86Lp2I5pN1o_13intent_engine7logging12init_loggings_0B5_
FNDA:0,_RNvNtCs86Lp2I5pN1o_13intent_engine7logging12init_logging
FNDA:0,_RNvNtCs86Lp2I5pN1o_13intent_engine7logging13init_from_env
FNDA:4,_RNvMs_NtCs86Lp2I5pN1o_13intent_engine7loggingNtB4_13LoggingConfig8for_mode
FNDA:4,_RNvMs_NtCs86Lp2I5pN1o_13intent_engine7loggingNtB4_13LoggingConfig9from_args
FNDA:4,_RNvNtCs86Lp2I5pN1o_13intent_engine7logging13log_file_path
FNDA:7,_RNvNtCs86Lp2I5pN1o_13intent_engine7logging16cleanup_old_logs
FNDA:1,_RNvXNtCs86Lp2I5pN1o_13intent_engine7loggingNtB2_13LoggingConfigNtNtCs4Vq2ZLagKfv_4core7default7Default7default
FNDA:1,_RNvNtNtCs86Lp2I5pN1o_13intent_engine7logging5testss_22test_log_file_path_cli
FNDA:1,_RNvNtNtCs86Lp2I5pN1o_13intent_engine7logging5testss_23test_log_file_path_test
FNDA:1,_RNvNtNtCs86Lp2I5pN1o_13intent_engine7logging5testss_27test_logging_config_default
FNDA:1,_RNvNtNtCs86Lp2I5pN1o_13intent_engine7logging5testss_28test_log_file_path_dashboard
FNDA:1,_RNvNtNtCs86Lp2I5pN1o_13intent_engine7logging5testss_29test_log_file_path_mcp_server
FNDA:1,_RNvNtNtCs86Lp2I5pN1o_13intent_engine7logging5testss_31test_cleanup_old_logs_empty_dir
FNDA:1,_RNvNtNtCs86Lp2I5pN1o_13intent_engine7logging5testss_32test_logging_config_for_mode_cli
FNDA:1,_RNvNtNtCs86Lp2I5pN1o_13intent_engine7logging5testss_33test_logging_config_for_mode_test
FNDA:1,_RNvNtNtCs86Lp2I5pN1o_13intent_engine7logging5testss_34test_logging_config_from_args_json
FNDA:1,_RNvNtNtCs86Lp2I5pN1o_13intent_engine7logging5testss_35test_logging_config_from_args_quiet
FNDA:1,_RNvNtNtCs86Lp2I5pN1o_13intent_engine7logging5testss_36test_logging_config_from_args_normal
FNDA:1,_RNvNtNtCs86Lp2I5pN1o_13intent_engine7logging5testss_37test_cleanup_old_logs_nonexistent_dir
FNDA:1,_RNvNtNtCs86Lp2I5pN1o_13intent_engine7logging5testss_37test_logging_config_from_args_verbose
FNDA:1,_RNvNtNtCs86Lp2I5pN1o_13intent_engine7logging5testss_38test_logging_config_for_mode_dashboard
FNDA:1,_RNvNtNtCs86Lp2I5pN1o_13intent_engine7logging5testss_39test_logging_config_for_mode_mcp_server
FNDA:1,_RNvNtNtCs86Lp2I5pN1o_13intent_engine7logging5testss_40test_cleanup_old_logs_keeps_current_logs
FNDA:1,_RNvNtNtCs86Lp2I5pN1o_13intent_engine7logging5testss_43test_cleanup_old_logs_ignores_non_log_files
FNDA:1,_RNvNtNtCs86Lp2I5pN1o_13intent_engine7logging5testss_44test_cleanup_old_logs_ignores_subdirectories
FNDA:1,_RNvNtNtCs86Lp2I5pN1o_13intent_engine7logging5testss_47test_cleanup_old_logs_removes_old_rotated_files
FNDA:1,_RNvNtNtCs86Lp2I5pN1o_13intent_engine7logging5testss_48test_cleanup_old_logs_keeps_recent_rotated_files
FNF:30
FNH:25
DA:35,1
DA:36,1
DA:37,1
DA:38,1
DA:39,1
DA:40,1
DA:41,1
DA:42,1
DA:43,1
DA:44,1
DA:45,1
DA:50,4
DA:51,4
DA:52,1
DA:53,1
DA:54,1
DA:55,1
DA:56,1
DA:57,1
DA:58,1
DA:59,1
DA:60,1
DA:61,1
DA:62,1
DA:63,1
DA:64,1
DA:65,1
DA:66,1
DA:67,1
DA:68,1
DA:69,1
DA:70,1
DA:71,1
DA:72,1
DA:73,1
DA:74,1
DA:75,1
DA:76,1
DA:77,1
DA:78,1
DA:79,1
DA:80,1
DA:81,1
DA:82,1
DA:83,1
DA:84,1
DA:85,1
DA:86,1
DA:87,1
DA:89,4
DA:92,4
DA:93,4
DA:94,1
DA:95,3
DA:96,1
DA:98,2
DA:102,4
DA:103,4
DA:104,4
DA:105,4
DA:106,4
DA:107,4
DA:108,4
DA:110,4
DA:131,0
DA:132,0
DA:133,0
DA:135,0
DA:137,0
DA:138,0
DA:139,0
DA:140,0
DA:142,0
DA:143,0
DA:144,0
DA:147,0
DA:150,0
DA:152,0
DA:153,0
DA:154,0
DA:155,0
DA:156,0
DA:157,0
DA:158,0
DA:159,0
DA:160,0
DA:161,0
DA:162,0
DA:163,0
DA:164,0
DA:166,0
DA:167,0
DA:168,0
DA:169,0
DA:170,0
DA:171,0
DA:172,0
DA:173,0
DA:175,0
DA:176,0
DA:177,0
DA:178,0
DA:179,0
DA:180,0
DA:181,0
DA:182,0
DA:183,0
DA:184,0
DA:185,0
DA:186,0
DA:187,0
DA:189,0
DA:190,0
DA:191,0
DA:192,0
DA:193,0
DA:194,0
DA:195,0
DA:196,0
DA:199,0
DA:200,0
DA:203,0
DA:204,0
DA:205,0
DA:206,0
DA:207,0
DA:208,0
DA:209,0
DA:210,0
DA:213,0
DA:214,0
DA:215,0
DA:217,0
DA:218,0
DA:219,0
DA:238,7
DA:242,7
DA:243,1
DA:244,6
DA:246,6
DA:247,6
DA:249,6
DA:250,6
DA:252,6
DA:253,5
DA:254,5
DA:258,5
DA:259,5
DA:260,3
DA:261,2
DA:263,2
DA:264,2
DA:266,2
DA:267,2
DA:268,1
DA:269,1
DA:271,1
DA:272,1
DA:273,1
DA:274,0
DA:275,0
DA:276,0
DA:280,0
DA:281,0
DA:284,1
DA:285,0
DA:288,6
DA:289,1
DA:290,0
DA:294,5
DA:296,6
DA:297,7
DA:402,4
DA:403,4
DA:404,4
DA:407,4
DA:409,4
DA:410,1
DA:411,1
DA:412,1
DA:413,1
DA:415,4
DA:427,1
DA:428,1
DA:430,1
DA:431,1
DA:432,1
DA:433,1
DA:434,1
DA:435,1
DA:436,1
DA:437,1
DA:440,1
DA:441,1
DA:443,1
DA:444,1
DA:445,1
DA:446,1
DA:447,1
DA:448,1
DA:449,1
DA:450,1
DA:453,1
DA:454,1
DA:456,1
DA:457,1
DA:458,1
DA:459,1
DA:460,1
DA:461,1
DA:462,1
DA:463,1
DA:466,1
DA:467,1
DA:469,1
DA:470,1
DA:471,1
DA:472,1
DA:473,1
DA:474,1
DA:475,1
DA:476,1
DA:479,1
DA:480,1
DA:482,1
DA:483,1
DA:484,1
DA:485,1
DA:486,1
DA:487,1
DA:488,1
DA:489,1
DA:492,1
DA:493,1
DA:495,1
DA:496,1
DA:497,1
DA:498,1
DA:499,1
DA:500,1
DA:503,1
DA:504,1
DA:506,1
DA:507,1
DA:508,1
DA:509,1
DA:510,1
DA:513,1
DA:514,1
DA:516,1
DA:517,1
DA:518,1
DA:519,1
DA:520,1
DA:523,1
DA:524,1
DA:526,1
DA:527,1
DA:528,1
DA:529,1
DA:530,1
DA:531,1
DA:536,1
DA:537,1
DA:538,1
DA:539,1
DA:540,1
DA:541,1
DA:544,1
DA:545,1
DA:546,1
DA:547,1
DA:550,1
DA:551,1
DA:552,1
DA:553,1
DA:556,1
DA:557,1
DA:558,1
DA:559,1
DA:564,1
DA:565,1
DA:566,1
DA:569,1
DA:570,1
DA:571,1
DA:574,1
DA:575,1
DA:577,1
DA:578,1
DA:579,1
DA:582,1
DA:583,1
DA:586,1
DA:587,1
DA:590,1
DA:592,1
DA:593,1
DA:596,1
DA:597,1
DA:600,1
DA:601,1
DA:604,1
DA:605,1
DA:606,1
DA:607,1
DA:608,1
DA:611,1
DA:614,1
DA:615,1
DA:618,1
DA:619,1
DA:622,1
DA:623,1
DA:626,1
DA:627,1
DA:628,1
DA:629,1
DA:630,1
DA:631,1
DA:633,1
DA:636,1
DA:639,1
DA:640,1
DA:643,1
DA:644,1
DA:647,1
DA:648,1
DA:650,1
DA:651,1
DA:652,1
DA:653,1
DA:654,1
DA:655,1
DA:657,1
DA:660,1
DA:662,1
DA:663,1
DA:666,1
DA:667,1
DA:670,1
DA:671,1
DA:674,1
DA:675,1
DA:676,1
DA:677,1
BRF:0
BRH:0
LF:349
LH:268
end_of_record
SF:/mnt/d/prj/intent-engine/src/logs.rs
FN:160,_RNvNtCsjp9E11WtBq9_13intent_engine4logs10query_logs
FN:290,_RNvNtCsjp9E11WtBq9_13intent_engine4logs11follow_logs
FN:65,_RNvNtCsjp9E11WtBq9_13intent_engine4logs14list_log_files
FN:233,_RNvNtCsjp9E11WtBq9_13intent_engine4logs14parse_duration
FN:90,_RNvNtCsjp9E11WtBq9_13intent_engine4logs14parse_log_line
FN:285,_RNvNtCsjp9E11WtBq9_13intent_engine4logs17format_entry_json
FN:263,_RNvNtCsjp9E11WtBq9_13intent_engine4logs17format_entry_text
FN:54,_RNvNtCsjp9E11WtBq9_13intent_engine4logs17log_file_for_mode
FN:46,_RNvNtCsjp9E11WtBq9_13intent_engine4logs7log_dir
FN:34,_RNvXNtCsjp9E11WtBq9_13intent_engine4logsNtB2_8LogQueryNtNtCs4Vq2ZLagKfv_4core7default7Default7default
FN:174,_RNCNCNvNtCsjp9E11WtBq9_13intent_engine4logs10query_logss0_00B7_
FN:175,_RNCNCNvNtCsjp9E11WtBq9_13intent_engine4logs10query_logss0_0s_0B7_
FN:98,_RNCNCNvNtCsjp9E11WtBq9_13intent_engine4logs14parse_log_lines0_00B7_
FN:164,_RNCNvNtCsjp9E11WtBq9_13intent_engine4logs10query_logs0B5_
FN:172,_RNCNvNtCsjp9E11WtBq9_13intent_engine4logs10query_logss0_0B5_
FN:190,_RNCNvNtCsjp9E11WtBq9_13intent_engine4logs10query_logss1_0B5_
FN:165,_RNCNvNtCsjp9E11WtBq9_13intent_engine4logs10query_logss_0B5_
FN:304,_RNCNvNtCsjp9E11WtBq9_13intent_engine4logs11follow_logs0B5_
FN:336,_RNCNvNtCsjp9E11WtBq9_13intent_engine4logs11follow_logss_0B5_
FN:77,_RNCNvNtCsjp9E11WtBq9_13intent_engine4logs14list_log_files0B5_
FN:96,_RNCNvNtCsjp9E11WtBq9_13intent_engine4logs14parse_log_line0B5_
FN:98,_RNCNvNtCsjp9E11WtBq9_13intent_engine4logs14parse_log_lines0_0B5_
FN:105,_RNCNvNtCsjp9E11WtBq9_13intent_engine4logs14parse_log_lines1_0B5_
FN:106,_RNCNvNtCsjp9E11WtBq9_13intent_engine4logs14parse_log_lines2_0B5_
FN:107,_RNCNvNtCsjp9E11WtBq9_13intent_engine4logs14parse_log_lines3_0B5_
FN:111,_RNCNvNtCsjp9E11WtBq9_13intent_engine4logs14parse_log_lines4_0B5_
FN:116,_RNCNvNtCsjp9E11WtBq9_13intent_engine4logs14parse_log_lines5_0B5_
FN:97,_RNCNvNtCsjp9E11WtBq9_13intent_engine4logs14parse_log_lines_0B5_
FN:286,_RNCNvNtCsjp9E11WtBq9_13intent_engine4logs17format_entry_json0B5_
FN:174,_RNCNCNvNtCs86Lp2I5pN1o_13intent_engine4logs10query_logss0_00B7_
FN:175,_RNCNCNvNtCs86Lp2I5pN1o_13intent_engine4logs10query_logss0_0s_0B7_
FN:164,_RNCNvNtCs86Lp2I5pN1o_13intent_engine4logs10query_logs0B5_
FN:172,_RNCNvNtCs86Lp2I5pN1o_13intent_engine4logs10query_logss0_0B5_
FN:190,_RNCNvNtCs86Lp2I5pN1o_13intent_engine4logs10query_logss1_0B5_
FN:165,_RNCNvNtCs86Lp2I5pN1o_13intent_engine4logs10query_logss_0B5_
FN:304,_RNCNvNtCs86Lp2I5pN1o_13intent_engine4logs11follow_logs0B5_
FN:336,_RNCNvNtCs86Lp2I5pN1o_13intent_engine4logs11follow_logss_0B5_
FN:77,_RNCNvNtCs86Lp2I5pN1o_13intent_engine4logs14list_log_files0B5_
FN:160,_RNvNtCs86Lp2I5pN1o_13intent_engine4logs10query_logs
FN:290,_RNvNtCs86Lp2I5pN1o_13intent_engine4logs11follow_logs
FN:65,_RNvNtCs86Lp2I5pN1o_13intent_engine4logs14list_log_files
FN:368,_RNvNtNtCs86Lp2I5pN1o_13intent_engine4logs5testss_19test_parse_duration
FN:556,_RNvNtNtCs86Lp2I5pN1o_13intent_engine4logs5testss_22test_format_entry_json
FN:509,_RNvNtNtCs86Lp2I5pN1o_13intent_engine4logs5testss_22test_log_query_default
FN:432,_RNvNtNtCs86Lp2I5pN1o_13intent_engine4logs5testss_24test_parse_log_line_json
FN:422,_RNvNtNtCs86Lp2I5pN1o_13intent_engine4logs5testss_24test_parse_log_line_text
FN:469,_RNvNtNtCs86Lp2I5pN1o_13intent_engine4logs5testss_27test_parse_log_line_invalid
FN:487,_RNvNtNtCs86Lp2I5pN1o_13intent_engine4logs5testss_28test_log_file_for_mode_valid
FN:401,_RNvNtNtCs86Lp2I5pN1o_13intent_engine4logs5testss_29test_parse_duration_all_units
FN:499,_RNvNtNtCs86Lp2I5pN1o_13intent_engine4logs5testss_30test_log_file_for_mode_invalid
FN:378,_RNvNtNtCs86Lp2I5pN1o_13intent_engine4logs5testss_30test_parse_duration_edge_cases
FN:521,_RNvNtNtCs86Lp2I5pN1o_13intent_engine4logs5testss_34test_format_entry_text_with_target
FN:440,_RNvNtNtCs86Lp2I5pN1o_13intent_engine4logs5testss_34test_parse_log_line_text_no_target
FN:572,_RNvNtNtCs86Lp2I5pN1o_13intent_engine4logs5testss_35test_log_entry_fields_serialization
FN:450,_RNvNtNtCs86Lp2I5pN1o_13intent_engine4logs5testss_36test_parse_log_line_json_with_fields
FN:538,_RNvNtNtCs86Lp2I5pN1o_13intent_engine4logs5testss_37test_format_entry_text_without_target
FN:588,_RNvNtNtCs86Lp2I5pN1o_13intent_engine4logs5testss_38test_log_entry_no_fields_serialization
FN:459,_RNvNtNtCs86Lp2I5pN1o_13intent_engine4logs5testss_39test_parse_log_line_json_missing_fields
FN:233,_RNvNtCs86Lp2I5pN1o_13intent_engine4logs14parse_duration
FN:90,_RNvNtCs86Lp2I5pN1o_13intent_engine4logs14parse_log_line
FN:285,_RNvNtCs86Lp2I5pN1o_13intent_engine4logs17format_entry_json
FN:263,_RNvNtCs86Lp2I5pN1o_13intent_engine4logs17format_entry_text
FN:54,_RNvNtCs86Lp2I5pN1o_13intent_engine4logs17log_file_for_mode
FN:46,_RNvNtCs86Lp2I5pN1o_13intent_engine4logs7log_dir
FN:34,_RNvXNtCs86Lp2I5pN1o_13intent_engine4logsNtB2_8LogQueryNtNtCs4Vq2ZLagKfv_4core7default7Default7default
FN:98,_RNCNCNvNtCs86Lp2I5pN1o_13intent_engine4logs14parse_log_lines0_00B7_
FN:96,_RNCNvNtCs86Lp2I5pN1o_13intent_engine4logs14parse_log_line0B5_
FN:98,_RNCNvNtCs86Lp2I5pN1o_13intent_engine4logs14parse_log_lines0_0B5_
FN:105,_RNCNvNtCs86Lp2I5pN1o_13intent_engine4logs14parse_log_lines1_0B5_
FN:106,_RNCNvNtCs86Lp2I5pN1o_13intent_engine4logs14parse_log_lines2_0B5_
FN:107,_RNCNvNtCs86Lp2I5pN1o_13intent_engine4logs14parse_log_lines3_0B5_
FN:111,_RNCNvNtCs86Lp2I5pN1o_13intent_engine4logs14parse_log_lines4_0B5_
FN:116,_RNCNvNtCs86Lp2I5pN1o_13intent_engine4logs14parse_log_lines5_0B5_
FN:97,_RNCNvNtCs86Lp2I5pN1o_13intent_engine4logs14parse_log_lines_0B5_
FN:286,_RNCNvNtCs86Lp2I5pN1o_13intent_engine4logs17format_entry_json0B5_
FNDA:0,_RNvNtCsjp9E11WtBq9_13intent_engine4logs10query_logs
FNDA:0,_RNvNtCsjp9E11WtBq9_13intent_engine4logs11follow_logs
FNDA:0,_RNvNtCsjp9E11WtBq9_13intent_engine4logs14list_log_files
FNDA:0,_RNvNtCsjp9E11WtBq9_13intent_engine4logs14parse_duration
FNDA:0,_RNvNtCsjp9E11WtBq9_13intent_engine4logs14parse_log_line
FNDA:0,_RNvNtCsjp9E11WtBq9_13intent_engine4logs17format_entry_json
FNDA:0,_RNvNtCsjp9E11WtBq9_13intent_engine4logs17format_entry_text
FNDA:0,_RNvNtCsjp9E11WtBq9_13intent_engine4logs17log_file_for_mode
FNDA:0,_RNvNtCsjp9E11WtBq9_13intent_engine4logs7log_dir
FNDA:0,_RNvXNtCsjp9E11WtBq9_13intent_engine4logsNtB2_8LogQueryNtNtCs4Vq2ZLagKfv_4core7default7Default7default
FNDA:0,_RNCNCNvNtCsjp9E11WtBq9_13intent_engine4logs10query_logss0_00B7_
FNDA:0,_RNCNCNvNtCsjp9E11WtBq9_13intent_engine4logs10query_logss0_0s_0B7_
FNDA:0,_RNCNCNvNtCsjp9E11WtBq9_13intent_engine4logs14parse_log_lines0_00B7_
FNDA:0,_RNCNvNtCsjp9E11WtBq9_13intent_engine4logs10query_logs0B5_
FNDA:0,_RNCNvNtCsjp9E11WtBq9_13intent_engine4logs10query_logss0_0B5_
FNDA:0,_RNCNvNtCsjp9E11WtBq9_13intent_engine4logs10query_logss1_0B5_
FNDA:0,_RNCNvNtCsjp9E11WtBq9_13intent_engine4logs10query_logss_0B5_
FNDA:0,_RNCNvNtCsjp9E11WtBq9_13intent_engine4logs11follow_logs0B5_
FNDA:0,_RNCNvNtCsjp9E11WtBq9_13intent_engine4logs11follow_logss_0B5_
FNDA:0,_RNCNvNtCsjp9E11WtBq9_13intent_engine4logs14list_log_files0B5_
FNDA:0,_RNCNvNtCsjp9E11WtBq9_13intent_engine4logs14parse_log_line0B5_
FNDA:0,_RNCNvNtCsjp9E11WtBq9_13intent_engine4logs14parse_log_lines0_0B5_
FNDA:0,_RNCNvNtCsjp9E11WtBq9_13intent_engine4logs14parse_log_lines1_0B5_
FNDA:0,_RNCNvNtCsjp9E11WtBq9_13intent_engine4logs14parse_log_lines2_0B5_
FNDA:0,_RNCNvNtCsjp9E11WtBq9_13intent_engine4logs14parse_log_lines3_0B5_
FNDA:0,_RNCNvNtCsjp9E11WtBq9_13intent_engine4logs14parse_log_lines4_0B5_
FNDA:0,_RNCNvNtCsjp9E11WtBq9_13intent_engine4logs14parse_log_lines5_0B5_
FNDA:0,_RNCNvNtCsjp9E11WtBq9_13intent_engine4logs14parse_log_lines_0B5_
FNDA:0,_RNCNvNtCsjp9E11WtBq9_13intent_engine4logs17format_entry_json0B5_
FNDA:0,_RNCNCNvNtCs86Lp2I5pN1o_13intent_engine4logs10query_logss0_00B7_
FNDA:0,_RNCNCNvNtCs86Lp2I5pN1o_13intent_engine4logs10query_logss0_0s_0B7_
FNDA:0,_RNCNvNtCs86Lp2I5pN1o_13intent_engine4logs10query_logs0B5_
FNDA:0,_RNCNvNtCs86Lp2I5pN1o_13intent_engine4logs10query_logss0_0B5_
FNDA:0,_RNCNvNtCs86Lp2I5pN1o_13intent_engine4logs10query_logss1_0B5_
FNDA:0,_RNCNvNtCs86Lp2I5pN1o_13intent_engine4logs10query_logss_0B5_
FNDA:0,_RNCNvNtCs86Lp2I5pN1o_13intent_engine4logs11follow_logs0B5_
FNDA:0,_RNCNvNtCs86Lp2I5pN1o_13intent_engine4logs11follow_logss_0B5_
FNDA:0,_RNCNvNtCs86Lp2I5pN1o_13intent_engine4logs14list_log_files0B5_
FNDA:0,_RNvNtCs86Lp2I5pN1o_13intent_engine4logs10query_logs
FNDA:0,_RNvNtCs86Lp2I5pN1o_13intent_engine4logs11follow_logs
FNDA:0,_RNvNtCs86Lp2I5pN1o_13intent_engine4logs14list_log_files
FNDA:1,_RNvNtNtCs86Lp2I5pN1o_13intent_engine4logs5testss_19test_parse_duration
FNDA:1,_RNvNtNtCs86Lp2I5pN1o_13intent_engine4logs5testss_22test_format_entry_json
FNDA:1,_RNvNtNtCs86Lp2I5pN1o_13intent_engine4logs5testss_22test_log_query_default
FNDA:1,_RNvNtNtCs86Lp2I5pN1o_13intent_engine4logs5testss_24test_parse_log_line_json
FNDA:1,_RNvNtNtCs86Lp2I5pN1o_13intent_engine4logs5testss_24test_parse_log_line_text
FNDA:1,_RNvNtNtCs86Lp2I5pN1o_13intent_engine4logs5testss_27test_parse_log_line_invalid
FNDA:1,_RNvNtNtCs86Lp2I5pN1o_13intent_engine4logs5testss_28test_log_file_for_mode_valid
FNDA:1,_RNvNtNtCs86Lp2I5pN1o_13intent_engine4logs5testss_29test_parse_duration_all_units
FNDA:1,_RNvNtNtCs86Lp2I5pN1o_13intent_engine4logs5testss_30test_log_file_for_mode_invalid
FNDA:1,_RNvNtNtCs86Lp2I5pN1o_13intent_engine4logs5testss_30test_parse_duration_edge_cases
FNDA:1,_RNvNtNtCs86Lp2I5pN1o_13intent_engine4logs5testss_34test_format_entry_text_with_target
FNDA:1,_RNvNtNtCs86Lp2I5pN1o_13intent_engine4logs5testss_34test_parse_log_line_text_no_target
FNDA:1,_RNvNtNtCs86Lp2I5pN1o_13intent_engine4logs5testss_35test_log_entry_fields_serialization
FNDA:1,_RNvNtNtCs86Lp2I5pN1o_13intent_engine4logs5testss_36test_parse_log_line_json_with_fields
FNDA:1,_RNvNtNtCs86Lp2I5pN1o_13intent_engine4logs5testss_37test_format_entry_text_without_target
FNDA:1,_RNvNtNtCs86Lp2I5pN1o_13intent_engine4logs5testss_38test_log_entry_no_fields_serialization
FNDA:1,_RNvNtNtCs86Lp2I5pN1o_13intent_engine4logs5testss_39test_parse_log_line_json_missing_fields
FNDA:24,_RNvNtCs86Lp2I5pN1o_13intent_engine4logs14parse_duration
FNDA:10,_RNvNtCs86Lp2I5pN1o_13intent_engine4logs14parse_log_line
FNDA:3,_RNvNtCs86Lp2I5pN1o_13intent_engine4logs17format_entry_json
FNDA:2,_RNvNtCs86Lp2I5pN1o_13intent_engine4logs17format_entry_text
FNDA:6,_RNvNtCs86Lp2I5pN1o_13intent_engine4logs17log_file_for_mode
FNDA:6,_RNvNtCs86Lp2I5pN1o_13intent_engine4logs7log_dir
FNDA:1,_RNvXNtCs86Lp2I5pN1o_13intent_engine4logsNtB2_8LogQueryNtNtCs4Vq2ZLagKfv_4core7default7Default7default
FNDA:1,_RNCNCNvNtCs86Lp2I5pN1o_13intent_engine4logs14parse_log_lines0_00B7_
FNDA:1,_RNCNvNtCs86Lp2I5pN1o_13intent_engine4logs14parse_log_line0B5_
FNDA:2,_RNCNvNtCs86Lp2I5pN1o_13intent_engine4logs14parse_log_lines0_0B5_
FNDA:3,_RNCNvNtCs86Lp2I5pN1o_13intent_engine4logs14parse_log_lines1_0B5_
FNDA:3,_RNCNvNtCs86Lp2I5pN1o_13intent_engine4logs14parse_log_lines2_0B5_
FNDA:3,_RNCNvNtCs86Lp2I5pN1o_13intent_engine4logs14parse_log_lines3_0B5_
FNDA:2,_RNCNvNtCs86Lp2I5pN1o_13intent_engine4logs14parse_log_lines4_0B5_
FNDA:2,_RNCNvNtCs86Lp2I5pN1o_13intent_engine4logs14parse_log_lines5_0B5_
FNDA:1,_RNCNvNtCs86Lp2I5pN1o_13intent_engine4logs14parse_log_lines_0B5_
FNDA:0,_RNCNvNtCs86Lp2I5pN1o_13intent_engine4logs17format_entry_json0B5_
FNF:46
FNH:33
DA:34,1
DA:35,1
DA:36,1
DA:37,1
DA:38,1
DA:39,1
DA:40,1
DA:41,1
DA:42,1
DA:46,6
DA:47,6
DA:48,6
DA:49,6
DA:50,6
DA:51,6
DA:54,6
DA:55,6
DA:56,6
DA:57,6
DA:58,5
DA:59,4
DA:60,3
DA:62,6
DA:65,0
DA:66,0
DA:67,0
DA:68,0
DA:69,0
DA:71,0
DA:72,0
DA:73,0
DA:74,0
DA:76,0
DA:77,0
DA:78,0
DA:79,0
DA:80,0
DA:81,0
DA:82,0
DA:85,0
DA:86,0
DA:87,0
DA:90,10
DA:92,10
DA:94,3
DA:95,3
DA:96,3
DA:97,3
DA:98,3
DA:99,3
DA:100,3
DA:103,3
DA:104,3
DA:105,3
DA:106,3
DA:107,3
DA:108,3
DA:109,3
DA:110,3
DA:111,3
DA:112,3
DA:113,3
DA:114,3
DA:115,3
DA:116,3
DA:117,3
DA:118,3
DA:119,3
DA:120,3
DA:122,7
DA:126,7
DA:127,7
DA:128,3
DA:129,2
DA:132,2
DA:133,2
DA:134,2
DA:135,2
DA:138,2
DA:139,1
DA:140,1
DA:142,1
DA:145,2
DA:146,2
DA:147,2
DA:148,2
DA:149,2
DA:150,2
DA:151,2
DA:152,2
DA:153,1
DA:154,4
DA:156,5
DA:157,10
DA:160,0
DA:161,0
DA:162,0
DA:163,0
DA:164,0
DA:165,0
DA:167,0
DA:169,0
DA:170,0
DA:171,0
DA:172,0
DA:173,0
DA:174,0
DA:175,0
DA:176,0
DA:177,0
DA:178,0
DA:180,0
DA:183,0
DA:184,0
DA:185,0
DA:186,0
DA:188,0
DA:189,0
DA:190,0
DA:191,0
DA:193,0
DA:194,0
DA:196,0
DA:197,0
DA:198,0
DA:200,0
DA:201,0
DA:202,0
DA:203,0
DA:204,0
DA:205,0
DA:206,0
DA:207,0
DA:210,0
DA:211,0
DA:212,0
DA:213,0
DA:214,0
DA:216,0
DA:217,0
DA:222,0
DA:225,0
DA:226,0
DA:227,0
DA:229,0
DA:230,0
DA:233,24
DA:234,24
DA:235,24
DA:236,2
DA:237,22
DA:239,22
DA:240,3
DA:241,19
DA:242,3
DA:243,16
DA:244,8
DA:245,8
DA:246,6
DA:248,2
DA:251,20
DA:253,17
DA:254,3
DA:255,3
DA:256,6
DA:257,5
DA:258,0
DA:260,24
DA:263,2
DA:264,2
DA:265,1
DA:266,1
DA:267,1
DA:274,1
DA:275,1
DA:276,1
DA:282,2
DA:285,3
DA:286,3
DA:287,3
DA:290,0
DA:294,0
DA:295,0
DA:296,0
DA:298,0
DA:301,0
DA:304,0
DA:307,0
DA:308,0
DA:309,0
DA:310,0
DA:313,0
DA:316,0
DA:317,0
DA:318,0
DA:319,0
DA:321,0
DA:322,0
DA:324,0
DA:325,0
DA:326,0
DA:327,0
DA:329,0
DA:330,0
DA:331,0
DA:332,0
DA:334,0
DA:335,0
DA:336,0
DA:337,0
DA:339,0
DA:340,0
DA:341,0
DA:343,0
DA:344,0
DA:345,0
DA:346,0
DA:347,0
DA:349,0
DA:350,0
DA:353,0
DA:354,0
DA:357,0
DA:359,0
DA:368,1
DA:369,1
DA:370,1
DA:371,1
DA:372,1
DA:373,1
DA:374,1
DA:375,1
DA:378,1
DA:380,1
DA:381,1
DA:384,1
DA:385,1
DA:388,1
DA:389,1
DA:392,1
DA:393,1
DA:396,1
DA:397,1
DA:398,1
DA:401,1
DA:403,1
DA:404,1
DA:407,1
DA:408,1
DA:411,1
DA:412,1
DA:415,1
DA:416,1
DA:417,1
DA:422,1
DA:423,1
DA:424,1
DA:425,1
DA:426,1
DA:427,1
DA:428,1
DA:429,1
DA:432,1
DA:433,1
DA:434,1
DA:435,1
DA:436,1
DA:437,1
DA:440,1
DA:441,1
DA:442,1
DA:443,1
DA:444,1
DA:445,1
DA:446,1
DA:447,1
DA:450,1
DA:451,1
DA:452,1
DA:453,1
DA:454,1
DA:455,1
DA:456,1
DA:459,1
DA:461,1
DA:462,1
DA:463,1
DA:464,1
DA:465,1
DA:466,1
DA:469,1
DA:471,1
DA:474,1
DA:475,1
DA:478,1
DA:481,1
DA:482,1
DA:487,1
DA:488,1
DA:489,1
DA:491,1
DA:492,1
DA:494,1
DA:495,1
DA:496,1
DA:499,1
DA:501,1
DA:502,1
DA:503,1
DA:504,1
DA:509,1
DA:510,1
DA:511,1
DA:512,1
DA:513,1
DA:514,1
DA:515,1
DA:516,1
DA:521,1
DA:522,1
DA:523,1
DA:524,1
DA:525,1
DA:526,1
DA:527,1
DA:528,1
DA:529,1
DA:530,1
DA:531,1
DA:532,1
DA:533,1
DA:534,1
DA:535,1
DA:538,1
DA:539,1
DA:540,1
DA:541,1
DA:542,1
DA:543,1
DA:544,1
DA:545,1
DA:546,1
DA:547,1
DA:548,1
DA:549,1
DA:550,1
DA:552,1
DA:553,1
DA:556,1
DA:557,1
DA:558,1
DA:559,1
DA:560,1
DA:561,1
DA:562,1
DA:563,1
DA:564,1
DA:565,1
DA:566,1
DA:567,1
DA:568,1
DA:569,1
DA:572,1
DA:573,1
DA:574,1
DA:575,1
DA:576,1
DA:577,1
DA:578,1
DA:579,1
DA:580,1
DA:581,1
DA:582,1
DA:583,1
DA:584,1
DA:585,1
DA:588,1
DA:589,1
DA:590,1
DA:591,1
DA:592,1
DA:593,1
DA:594,1
DA:595,1
DA:596,1
DA:597,1
DA:599,1
DA:600,1
BRF:0
BRH:0
LF:407
LH:281
end_of_record
SF:/mnt/d/prj/intent-engine/src/main.rs
FN:163,_RNCNCNvCs7pYv648K87W_2ie3run00B5_
FN:300,_RNCNCNvCs7pYv648K87W_2ie3run0s0_0B5_
FN:340,_RNCNCNvCs7pYv648K87W_2ie3run0s1_0B5_
FN:250,_RNCNCNvCs7pYv648K87W_2ie3run0s_0B5_
FN:59,_RNCNCNvCs7pYv648K87W_2ie4main00B5_
FN:99,_RNCNCNvCs7pYv648K87W_2ie4main0s0_0B5_
FN:93,_RNCNCNvCs7pYv648K87W_2ie4main0s_0B5_
FN:114,_RNCNvCs7pYv648K87W_2ie3run0B3_
FN:17,_RNCNvCs7pYv648K87W_2ie4main0B3_
FN:114,_RNvCs7pYv648K87W_2ie3run
FN:17,_RNvCs7pYv648K87W_2ie4main
FNDA:0,_RNCNCNvCs7pYv648K87W_2ie3run00B5_
FNDA:0,_RNCNCNvCs7pYv648K87W_2ie3run0s0_0B5_
FNDA:0,_RNCNCNvCs7pYv648K87W_2ie3run0s1_0B5_
FNDA:0,_RNCNCNvCs7pYv648K87W_2ie3run0s_0B5_
FNDA:0,_RNCNCNvCs7pYv648K87W_2ie4main00B5_
FNDA:0,_RNCNCNvCs7pYv648K87W_2ie4main0s0_0B5_
FNDA:0,_RNCNCNvCs7pYv648K87W_2ie4main0s_0B5_
FNDA:0,_RNCNvCs7pYv648K87W_2ie3run0B3_
FNDA:0,_RNCNvCs7pYv648K87W_2ie4main0B3_
FNDA:0,_RNvCs7pYv648K87W_2ie3run
FNDA:0,_RNvCs7pYv648K87W_2ie4main
FNF:11
FNH:0
DA:17,0
DA:29,0
DA:32,0
DA:37,0
DA:38,0
DA:39,0
DA:40,0
DA:41,0
DA:42,0
DA:43,0
DA:44,0
DA:45,0
DA:46,0
DA:47,0
DA:48,0
DA:49,0
DA:50,0
DA:51,0
DA:52,0
DA:53,0
DA:54,0
DA:55,0
DA:56,0
DA:57,0
DA:58,0
DA:59,0
DA:60,0
DA:61,0
DA:62,0
DA:63,0
DA:64,0
DA:65,0
DA:66,0
DA:67,0
DA:68,0
DA:69,0
DA:70,0
DA:71,0
DA:72,0
DA:73,0
DA:74,0
DA:75,0
DA:76,0
DA:77,0
DA:78,0
DA:79,0
DA:80,0
DA:81,0
DA:82,0
DA:83,0
DA:84,0
DA:85,0
DA:86,0
DA:87,0
DA:88,0
DA:89,0
DA:90,0
DA:91,0
DA:92,0
DA:93,0
DA:94,0
DA:95,0
DA:96,0
DA:97,0
DA:98,0
DA:99,0
DA:100,0
DA:101,0
DA:102,0
DA:103,0
DA:104,0
DA:105,0
DA:106,0
DA:107,0
DA:108,0
DA:109,0
DA:110,0
DA:111,0
DA:112,0
DA:114,0
DA:115,0
DA:116,0
DA:117,0
DA:119,0
DA:120,0
DA:121,0
DA:122,0
DA:124,0
DA:125,0
DA:126,0
DA:128,0
DA:129,0
DA:130,0
DA:131,0
DA:132,0
DA:133,0
DA:134,0
DA:135,0
DA:136,0
DA:137,0
DA:140,0
DA:143,0
DA:144,0
DA:146,0
DA:149,0
DA:150,0
DA:151,0
DA:152,0
DA:154,0
DA:157,0
DA:159,0
DA:162,0
DA:163,0
DA:166,0
DA:167,0
DA:168,0
DA:171,0
DA:172,0
DA:175,0
DA:176,0
DA:177,0
DA:178,0
DA:179,0
DA:180,0
DA:181,0
DA:182,0
DA:183,0
DA:184,0
DA:185,0
DA:187,0
DA:188,0
DA:189,0
DA:190,0
DA:191,0
DA:200,0
DA:201,0
DA:202,0
DA:203,0
DA:205,0
DA:206,0
DA:207,0
DA:210,0
DA:212,0
DA:214,0
DA:215,0
DA:216,0
DA:217,0
DA:219,0
DA:222,0
DA:223,0
DA:224,0
DA:225,0
DA:226,0
DA:230,0
DA:231,0
DA:232,0
DA:233,0
DA:237,0
DA:238,0
DA:239,0
DA:241,0
DA:242,0
DA:243,0
DA:246,0
DA:247,0
DA:249,0
DA:250,0
DA:251,0
DA:252,0
DA:253,0
DA:254,0
DA:255,0
DA:258,0
DA:259,0
DA:260,0
DA:261,0
DA:264,0
DA:265,0
DA:266,0
DA:267,0
DA:269,0
DA:270,0
DA:271,0
DA:272,0
DA:273,0
DA:274,0
DA:275,0
DA:277,0
DA:278,0
DA:279,0
DA:280,0
DA:281,0
DA:283,0
DA:284,0
DA:285,0
DA:286,0
DA:291,0
DA:292,0
DA:293,0
DA:294,0
DA:295,0
DA:297,0
DA:298,0
DA:300,0
DA:301,0
DA:302,0
DA:304,0
DA:306,0
DA:310,0
DA:311,0
DA:312,0
DA:313,0
DA:314,0
DA:315,0
DA:316,0
DA:317,0
DA:318,0
DA:319,0
DA:320,0
DA:324,0
DA:325,0
DA:326,0
DA:327,0
DA:330,0
DA:331,0
DA:332,0
DA:333,0
DA:336,0
DA:337,0
DA:339,0
DA:340,0
DA:341,0
DA:342,0
DA:343,0
DA:344,0
DA:345,0
DA:348,0
DA:349,0
DA:352,0
DA:353,0
DA:354,0
DA:356,0
DA:357,0
DA:358,0
DA:360,0
DA:361,0
DA:366,0
DA:367,0
DA:368,0
DA:369,0
DA:370,0
DA:371,0
DA:372,0
DA:374,0
DA:378,0
DA:379,0
BRF:0
BRH:0
LF:313
LH:0
end_of_record
SF:/mnt/d/prj/intent-engine/src/mcp/server.rs
FN:871,_RNCNCNvNtNtCsjp9E11WtBq9_13intent_engine3mcp6server11handle_plan00B9_
FN:881,_RNCNCNvNtNtCsjp9E11WtBq9_13intent_engine3mcp6server11handle_plan0s0_0B9_
FN:883,_RNCNCNvNtNtCsjp9E11WtBq9_13intent_engine3mcp6server11handle_plan0s1_0B9_
FN:875,_RNCNCNvNtNtCsjp9E11WtBq9_13intent_engine3mcp6server11handle_plan0s_0B9_
FN:328,_RNCNCNvNtNtCsjp9E11WtBq9_13intent_engine3mcp6server15handle_task_add00B9_
FN:333,_RNCNCNvNtNtCsjp9E11WtBq9_13intent_engine3mcp6server15handle_task_add0s0_0B9_
FN:347,_RNCNCNvNtNtCsjp9E11WtBq9_13intent_engine3mcp6server15handle_task_add0s1_0B9_
FN:349,_RNCNCNvNtNtCsjp9E11WtBq9_13intent_engine3mcp6server15handle_task_add0s2_0B9_
FN:329,_RNCNCNvNtNtCsjp9E11WtBq9_13intent_engine3mcp6server15handle_task_add0s_0B9_
FN:596,_RNCNCNvNtNtCsjp9E11WtBq9_13intent_engine3mcp6server15handle_task_get00B9_
FN:606,_RNCNCNvNtNtCsjp9E11WtBq9_13intent_engine3mcp6server15handle_task_get0s0_0B9_
FN:622,_RNCNCNvNtNtCsjp9E11WtBq9_13intent_engine3mcp6server15handle_task_get0s1_0B9_
FN:623,_RNCNCNvNtNtCsjp9E11WtBq9_13intent_engine3mcp6server15handle_task_get0s2_0B9_
FN:628,_RNCNCNvNtNtCsjp9E11WtBq9_13intent_engine3mcp6server15handle_task_get0s3_0B9_
FN:629,_RNCNCNvNtNtCsjp9E11WtBq9_13intent_engine3mcp6server15handle_task_get0s4_0B9_
FN:601,_RNCNCNvNtNtCsjp9E11WtBq9_13intent_engine3mcp6server15handle_task_get0s_0B9_
FN:707,_RNCNCNvNtNtCsjp9E11WtBq9_13intent_engine3mcp6server16handle_event_add00B9_
FN:716,_RNCNCNvNtNtCsjp9E11WtBq9_13intent_engine3mcp6server16handle_event_add0s0_0B9_
FN:721,_RNCNCNvNtNtCsjp9E11WtBq9_13intent_engine3mcp6server16handle_event_add0s1_0B9_
FN:732,_RNCNCNvNtNtCsjp9E11WtBq9_13intent_engine3mcp6server16handle_event_add0s2_0B9_
FN:735,_RNCNCNvNtNtCsjp9E11WtBq9_13intent_engine3mcp6server16handle_event_add0s3_0B9_
FN:736,_RNCNCNvNtNtCsjp9E11WtBq9_13intent_engine3mcp6server16handle_event_add0s4_0B9_
FN:756,_RNCNCNvNtNtCsjp9E11WtBq9_13intent_engine3mcp6server16handle_event_add0s5_0B9_
FN:758,_RNCNCNvNtNtCsjp9E11WtBq9_13intent_engine3mcp6server16handle_event_add0s6_0B9_
FN:711,_RNCNCNvNtNtCsjp9E11WtBq9_13intent_engine3mcp6server16handle_event_add0s_0B9_
FN:462,_RNCNCNvNtNtCsjp9E11WtBq9_13intent_engine3mcp6server16handle_task_done00B9_
FN:484,_RNCNCNvNtNtCsjp9E11WtBq9_13intent_engine3mcp6server16handle_task_done0s0_0B9_
FN:490,_RNCNCNvNtNtCsjp9E11WtBq9_13intent_engine3mcp6server16handle_task_done0s1_0B9_
FN:492,_RNCNCNvNtNtCsjp9E11WtBq9_13intent_engine3mcp6server16handle_task_done0s2_0B9_
FN:466,_RNCNCNvNtNtCsjp9E11WtBq9_13intent_engine3mcp6server16handle_task_done0s_0B9_
FN:541,_RNCNCNvNtNtCsjp9E11WtBq9_13intent_engine3mcp6server16handle_task_list00B9_
FN:544,_RNCNCNvNtNtCsjp9E11WtBq9_13intent_engine3mcp6server16handle_task_list0s0_0B9_
FN:555,_RNCNCNvNtNtCsjp9E11WtBq9_13intent_engine3mcp6server16handle_task_list0s1_0B9_
FN:556,_RNCNCNvNtNtCsjp9E11WtBq9_13intent_engine3mcp6server16handle_task_list0s2_0B9_
FN:569,_RNCNCNvNtNtCsjp9E11WtBq9_13intent_engine3mcp6server16handle_task_list0s3_0B9_
FN:570,_RNCNCNvNtNtCsjp9E11WtBq9_13intent_engine3mcp6server16handle_task_list0s4_0B9_
FN:574,_RNCNCNvNtNtCsjp9E11WtBq9_13intent_engine3mcp6server16handle_task_list0s5_0B9_
FN:588,_RNCNCNvNtNtCsjp9E11WtBq9_13intent_engine3mcp6server16handle_task_list0s6_0B9_
FN:590,_RNCNCNvNtNtCsjp9E11WtBq9_13intent_engine3mcp6server16handle_task_list0s7_0B9_
FN:542,_RNCNCNvNtNtCsjp9E11WtBq9_13intent_engine3mcp6server16handle_task_list0s_0B9_
FN:276,_RNCNCNvNtNtCsjp9E11WtBq9_13intent_engine3mcp6server16handle_tool_call00B9_
FN:303,_RNCNCNvNtNtCsjp9E11WtBq9_13intent_engine3mcp6server16handle_tool_call0s_0B9_
FN:762,_RNCNCNvNtNtCsjp9E11WtBq9_13intent_engine3mcp6server17handle_event_list00B9_
FN:767,_RNCNCNvNtNtCsjp9E11WtBq9_13intent_engine3mcp6server17handle_event_list0s0_0B9_
FN:768,_RNCNCNvNtNtCsjp9E11WtBq9_13intent_engine3mcp6server17handle_event_list0s1_0B9_
FN:771,_RNCNCNvNtNtCsjp9E11WtBq9_13intent_engine3mcp6server17handle_event_list0s2_0B9_
FN:772,_RNCNCNvNtNtCsjp9E11WtBq9_13intent_engine3mcp6server17handle_event_list0s3_0B9_
FN:776,_RNCNCNvNtNtCsjp9E11WtBq9_13intent_engine3mcp6server17handle_event_list0s4_0B9_
FN:782,_RNCNCNvNtNtCsjp9E11WtBq9_13intent_engine3mcp6server17handle_event_list0s5_0B9_
FN:784,_RNCNCNvNtNtCsjp9E11WtBq9_13intent_engine3mcp6server17handle_event_list0s6_0B9_
FN:764,_RNCNCNvNtNtCsjp9E11WtBq9_13intent_engine3mcp6server17handle_event_list0s_0B9_
FN:378,_RNCNCNvNtNtCsjp9E11WtBq9_13intent_engine3mcp6server17handle_task_start00B9_
FN:388,_RNCNCNvNtNtCsjp9E11WtBq9_13intent_engine3mcp6server17handle_task_start0s0_0B9_
FN:402,_RNCNCNvNtNtCsjp9E11WtBq9_13intent_engine3mcp6server17handle_task_start0s1_0B9_
FN:404,_RNCNCNvNtNtCsjp9E11WtBq9_13intent_engine3mcp6server17handle_task_start0s2_0B9_
FN:383,_RNCNCNvNtNtCsjp9E11WtBq9_13intent_engine3mcp6server17handle_task_start0s_0B9_
FN:682,_RNCNCNvNtNtCsjp9E11WtBq9_13intent_engine3mcp6server18handle_task_delete00B9_
FN:701,_RNCNCNvNtNtCsjp9E11WtBq9_13intent_engine3mcp6server18handle_task_delete0s0_0B9_
FN:687,_RNCNCNvNtNtCsjp9E11WtBq9_13intent_engine3mcp6server18handle_task_delete0s_0B9_
FN:498,_RNCNCNvNtNtCsjp9E11WtBq9_13intent_engine3mcp6server18handle_task_update00B9_
FN:502,_RNCNCNvNtNtCsjp9E11WtBq9_13intent_engine3mcp6server18handle_task_update0s0_0B9_
FN:503,_RNCNCNvNtNtCsjp9E11WtBq9_13intent_engine3mcp6server18handle_task_update0s1_0B9_
FN:506,_RNCNCNvNtNtCsjp9E11WtBq9_13intent_engine3mcp6server18handle_task_update0s2_0B9_
FN:507,_RNCNCNvNtNtCsjp9E11WtBq9_13intent_engine3mcp6server18handle_task_update0s3_0B9_
FN:508,_RNCNCNvNtNtCsjp9E11WtBq9_13intent_engine3mcp6server18handle_task_update0s4_0B9_
FN:511,_RNCNCNvNtNtCsjp9E11WtBq9_13intent_engine3mcp6server18handle_task_update0s5_0B9_
FN:515,_RNCNCNvNtNtCsjp9E11WtBq9_13intent_engine3mcp6server18handle_task_update0s6_0B9_
FN:519,_RNCNCNvNtNtCsjp9E11WtBq9_13intent_engine3mcp6server18handle_task_update0s7_0B9_
FN:533,_RNCNCNvNtNtCsjp9E11WtBq9_13intent_engine3mcp6server18handle_task_update0s8_0B9_
FN:535,_RNCNCNvNtNtCsjp9E11WtBq9_13intent_engine3mcp6server18handle_task_update0s9_0B9_
FN:501,_RNCNCNvNtNtCsjp9E11WtBq9_13intent_engine3mcp6server18handle_task_update0s_0B9_
FN:635,_RNCNCNvNtNtCsjp9E11WtBq9_13intent_engine3mcp6server19handle_task_context00B9_
FN:647,_RNCNCNvNtNtCsjp9E11WtBq9_13intent_engine3mcp6server19handle_task_context0s0_0B9_
FN:650,_RNCNCNvNtNtCsjp9E11WtBq9_13intent_engine3mcp6server19handle_task_context0s1_0B9_
FN:651,_RNCNCNvNtNtCsjp9E11WtBq9_13intent_engine3mcp6server19handle_task_context0s2_0B9_
FN:660,_RNCNCNvNtNtCsjp9E11WtBq9_13intent_engine3mcp6server19handle_task_context0s3_0B9_
FN:674,_RNCNCNvNtNtCsjp9E11WtBq9_13intent_engine3mcp6server19handle_task_context0s4_0B9_
FN:676,_RNCNCNvNtNtCsjp9E11WtBq9_13intent_engine3mcp6server19handle_task_context0s5_0B9_
FN:641,_RNCNCNvNtNtCsjp9E11WtBq9_13intent_engine3mcp6server19handle_task_context0s_0B9_
FN:408,_RNCNCNvNtNtCsjp9E11WtBq9_13intent_engine3mcp6server21handle_task_pick_next00B9_
FN:413,_RNCNCNvNtNtCsjp9E11WtBq9_13intent_engine3mcp6server21handle_task_pick_next0s0_0B9_
FN:427,_RNCNCNvNtNtCsjp9E11WtBq9_13intent_engine3mcp6server21handle_task_pick_next0s1_0B9_
FN:429,_RNCNCNvNtNtCsjp9E11WtBq9_13intent_engine3mcp6server21handle_task_pick_next0s2_0B9_
FN:409,_RNCNCNvNtNtCsjp9E11WtBq9_13intent_engine3mcp6server21handle_task_pick_next0s_0B9_
FN:792,_RNCNCNvNtNtCsjp9E11WtBq9_13intent_engine3mcp6server21handle_unified_search00B9_
FN:802,_RNCNCNvNtNtCsjp9E11WtBq9_13intent_engine3mcp6server21handle_unified_search0s0_0B9_
FN:805,_RNCNCNvNtNtCsjp9E11WtBq9_13intent_engine3mcp6server21handle_unified_search0s1_0B9_
FN:807,_RNCNCNvNtNtCsjp9E11WtBq9_13intent_engine3mcp6server21handle_unified_search0s2_0B9_
FN:811,_RNCNCNvNtNtCsjp9E11WtBq9_13intent_engine3mcp6server21handle_unified_search0s3_0B9_
FN:817,_RNCNCNvNtNtCsjp9E11WtBq9_13intent_engine3mcp6server21handle_unified_search0s4_0B9_
FN:819,_RNCNCNvNtNtCsjp9E11WtBq9_13intent_engine3mcp6server21handle_unified_search0s5_0B9_
FN:797,_RNCNCNvNtNtCsjp9E11WtBq9_13intent_engine3mcp6server21handle_unified_search0s_0B9_
FN:837,_RNCNCNvNtNtCsjp9E11WtBq9_13intent_engine3mcp6server22handle_report_generate00B9_
FN:844,_RNCNCNvNtNtCsjp9E11WtBq9_13intent_engine3mcp6server22handle_report_generate0s0_0B9_
FN:848,_RNCNCNvNtNtCsjp9E11WtBq9_13intent_engine3mcp6server22handle_report_generate0s1_0B9_
FN:852,_RNCNCNvNtNtCsjp9E11WtBq9_13intent_engine3mcp6server22handle_report_generate0s2_0B9_
FN:857,_RNCNCNvNtNtCsjp9E11WtBq9_13intent_engine3mcp6server22handle_report_generate0s3_0B9_
FN:863,_RNCNCNvNtNtCsjp9E11WtBq9_13intent_engine3mcp6server22handle_report_generate0s4_0B9_
FN:865,_RNCNCNvNtNtCsjp9E11WtBq9_13intent_engine3mcp6server22handle_report_generate0s5_0B9_
FN:840,_RNCNCNvNtNtCsjp9E11WtBq9_13intent_engine3mcp6server22handle_report_generate0s_0B9_
FN:825,_RNCNCNvNtNtCsjp9E11WtBq9_13intent_engine3mcp6server23handle_current_task_get00B9_
FN:833,_RNCNCNvNtNtCsjp9E11WtBq9_13intent_engine3mcp6server23handle_current_task_get0s0_0B9_
FN:831,_RNCNCNvNtNtCsjp9E11WtBq9_13intent_engine3mcp6server23handle_current_task_get0s_0B9_
FN:435,_RNCNCNvNtNtCsjp9E11WtBq9_13intent_engine3mcp6server25handle_task_spawn_subtask00B9_
FN:442,_RNCNCNvNtNtCsjp9E11WtBq9_13intent_engine3mcp6server25handle_task_spawn_subtask0s0_0B9_
FN:456,_RNCNCNvNtNtCsjp9E11WtBq9_13intent_engine3mcp6server25handle_task_spawn_subtask0s1_0B9_
FN:458,_RNCNCNvNtNtCsjp9E11WtBq9_13intent_engine3mcp6server25handle_task_spawn_subtask0s2_0B9_
FN:438,_RNCNCNvNtNtCsjp9E11WtBq9_13intent_engine3mcp6server25handle_task_spawn_subtask0s_0B9_
FN:355,_RNCNCNvNtNtCsjp9E11WtBq9_13intent_engine3mcp6server26handle_task_add_dependency00B9_
FN:365,_RNCNCNvNtNtCsjp9E11WtBq9_13intent_engine3mcp6server26handle_task_add_dependency0s0_0B9_
FN:370,_RNCNCNvNtNtCsjp9E11WtBq9_13intent_engine3mcp6server26handle_task_add_dependency0s1_0B9_
FN:372,_RNCNCNvNtNtCsjp9E11WtBq9_13intent_engine3mcp6server26handle_task_add_dependency0s2_0B9_
FN:360,_RNCNCNvNtNtCsjp9E11WtBq9_13intent_engine3mcp6server26handle_task_add_dependency0s_0B9_
FN:976,_RNCNCNvNtNtCsjp9E11WtBq9_13intent_engine3mcp6server26start_dashboard_background00B9_
FN:87,_RNCNCNvNtNtCsjp9E11WtBq9_13intent_engine3mcp6server3run00B9_
FN:96,_RNCNCNvNtNtCsjp9E11WtBq9_13intent_engine3mcp6server3run0s0_0B9_
FN:104,_RNCNCNvNtNtCsjp9E11WtBq9_13intent_engine3mcp6server3run0s1_0B9_
FN:122,_RNCNCNvNtNtCsjp9E11WtBq9_13intent_engine3mcp6server3run0s2_0B9_
FN:91,_RNCNCNvNtNtCsjp9E11WtBq9_13intent_engine3mcp6server3run0s_0B9_
FN:152,_RNCNvNtNtCsjp9E11WtBq9_13intent_engine3mcp6server10run_server0B7_
FN:868,_RNCNvNtNtCsjp9E11WtBq9_13intent_engine3mcp6server11handle_plan0B7_
FN:207,_RNCNvNtNtCsjp9E11WtBq9_13intent_engine3mcp6server14handle_request0B7_
FN:310,_RNCNvNtNtCsjp9E11WtBq9_13intent_engine3mcp6server15handle_task_add0B7_
FN:593,_RNCNvNtNtCsjp9E11WtBq9_13intent_engine3mcp6server15handle_task_get0B7_
FN:706,_RNCNvNtNtCsjp9E11WtBq9_13intent_engine3mcp6server16handle_event_add0B7_
FN:461,_RNCNvNtNtCsjp9E11WtBq9_13intent_engine3mcp6server16handle_task_done0B7_
FN:538,_RNCNvNtNtCsjp9E11WtBq9_13intent_engine3mcp6server16handle_task_list0B7_
FN:274,_RNCNvNtNtCsjp9E11WtBq9_13intent_engine3mcp6server16handle_tool_call0B7_
FN:761,_RNCNvNtNtCsjp9E11WtBq9_13intent_engine3mcp6server17handle_event_list0B7_
FN:375,_RNCNvNtNtCsjp9E11WtBq9_13intent_engine3mcp6server17handle_task_start0B7_
FN:267,_RNCNvNtNtCsjp9E11WtBq9_13intent_engine3mcp6server17handle_tools_list0B7_
FN:679,_RNCNvNtNtCsjp9E11WtBq9_13intent_engine3mcp6server18handle_task_delete0B7_
FN:495,_RNCNvNtNtCsjp9E11WtBq9_13intent_engine3mcp6server18handle_task_update0B7_
FN:194,_RNCNvNtNtCsjp9E11WtBq9_13intent_engine3mcp6server19handle_notification0B7_
FN:633,_RNCNvNtNtCsjp9E11WtBq9_13intent_engine3mcp6server19handle_task_context0B7_
FN:935,_RNCNvNtNtCsjp9E11WtBq9_13intent_engine3mcp6server20is_dashboard_running0B7_
FN:407,_RNCNvNtNtCsjp9E11WtBq9_13intent_engine3mcp6server21handle_task_pick_next0B7_
FN:787,_RNCNvNtNtCsjp9E11WtBq9_13intent_engine3mcp6server21handle_unified_search0B7_
FN:836,_RNCNvNtNtCsjp9E11WtBq9_13intent_engine3mcp6server22handle_report_generate0B7_
FN:822,_RNCNvNtNtCsjp9E11WtBq9_13intent_engine3mcp6server23handle_current_task_get0B7_
FN:896,_RNCNvNtNtCsjp9E11WtBq9_13intent_engine3mcp6server23register_mcp_connection0B7_
FN:903,_RNCNvNtNtCsjp9E11WtBq9_13intent_engine3mcp6server23register_mcp_connections_0B7_
FN:432,_RNCNvNtNtCsjp9E11WtBq9_13intent_engine3mcp6server25handle_task_spawn_subtask0B7_
FN:925,_RNCNvNtNtCsjp9E11WtBq9_13intent_engine3mcp6server25unregister_mcp_connection0B7_
FN:352,_RNCNvNtNtCsjp9E11WtBq9_13intent_engine3mcp6server26handle_task_add_dependency0B7_
FN:953,_RNCNvNtNtCsjp9E11WtBq9_13intent_engine3mcp6server26start_dashboard_background0B7_
FN:61,_RNCNvNtNtCsjp9E11WtBq9_13intent_engine3mcp6server3run0B7_
FN:152,_RNvNtNtCsjp9E11WtBq9_13intent_engine3mcp6server10run_server
FN:868,_RNvNtNtCsjp9E11WtBq9_13intent_engine3mcp6server11handle_plan
FN:207,_RNvNtNtCsjp9E11WtBq9_13intent_engine3mcp6server14handle_request
FN:310,_RNvNtNtCsjp9E11WtBq9_13intent_engine3mcp6server15handle_task_add
FN:593,_RNvNtNtCsjp9E11WtBq9_13intent_engine3mcp6server15handle_task_get
FN:706,_RNvNtNtCsjp9E11WtBq9_13intent_engine3mcp6server16handle_event_add
FN:461,_RNvNtNtCsjp9E11WtBq9_13intent_engine3mcp6server16handle_task_done
FN:538,_RNvNtNtCsjp9E11WtBq9_13intent_engine3mcp6server16handle_task_list
FN:274,_RNvNtNtCsjp9E11WtBq9_13intent_engine3mcp6server16handle_tool_call
FN:761,_RNvNtNtCsjp9E11WtBq9_13intent_engine3mcp6server17handle_event_list
FN:248,_RNvNtNtCsjp9E11WtBq9_13intent_engine3mcp6server17handle_initialize
FN:375,_RNvNtNtCsjp9E11WtBq9_13intent_engine3mcp6server17handle_task_start
FN:265,_RNvNtNtCsjp9E11WtBq9_13intent_engine3mcp6server17handle_tools_list
FN:679,_RNvNtNtCsjp9E11WtBq9_13intent_engine3mcp6server18handle_task_delete
FN:495,_RNvNtNtCsjp9E11WtBq9_13intent_engine3mcp6server18handle_task_update
FN:194,_RNvNtNtCsjp9E11WtBq9_13intent_engine3mcp6server19handle_notification
FN:633,_RNvNtNtCsjp9E11WtBq9_13intent_engine3mcp6server19handle_task_context
FN:935,_RNvNtNtCsjp9E11WtBq9_13intent_engine3mcp6server20is_dashboard_running
FN:407,_RNvNtNtCsjp9E11WtBq9_13intent_engine3mcp6server21handle_task_pick_next
FN:787,_RNvNtNtCsjp9E11WtBq9_13intent_engine3mcp6server21handle_unified_search
FN:836,_RNvNtNtCsjp9E11WtBq9_13intent_engine3mcp6server22handle_report_generate
FN:822,_RNvNtNtCsjp9E11WtBq9_13intent_engine3mcp6server23handle_current_task_get
FN:892,_RNvNtNtCsjp9E11WtBq9_13intent_engine3mcp6server23register_mcp_connection
FN:432,_RNvNtNtCsjp9E11WtBq9_13intent_engine3mcp6server25handle_task_spawn_subtask
FN:921,_RNvNtNtCsjp9E11WtBq9_13intent_engine3mcp6server25unregister_mcp_connection
FN:352,_RNvNtNtCsjp9E11WtBq9_13intent_engine3mcp6server26handle_task_add_dependency
FN:953,_RNvNtNtCsjp9E11WtBq9_13intent_engine3mcp6server26start_dashboard_background
FN:61,_RNvNtNtCsjp9E11WtBq9_13intent_engine3mcp6server3run
FN:61,_RNvNtNtCs86Lp2I5pN1o_13intent_engine3mcp6server3run
FN:871,_RNCNCNvNtNtCs86Lp2I5pN1o_13intent_engine3mcp6server11handle_plan00B9_
FN:881,_RNCNCNvNtNtCs86Lp2I5pN1o_13intent_engine3mcp6server11handle_plan0s0_0B9_
FN:883,_RNCNCNvNtNtCs86Lp2I5pN1o_13intent_engine3mcp6server11handle_plan0s1_0B9_
FN:875,_RNCNCNvNtNtCs86Lp2I5pN1o_13intent_engine3mcp6server11handle_plan0s_0B9_
FN:328,_RNCNCNvNtNtCs86Lp2I5pN1o_13intent_engine3mcp6server15handle_task_add00B9_
FN:333,_RNCNCNvNtNtCs86Lp2I5pN1o_13intent_engine3mcp6server15handle_task_add0s0_0B9_
FN:347,_RNCNCNvNtNtCs86Lp2I5pN1o_13intent_engine3mcp6server15handle_task_add0s1_0B9_
FN:349,_RNCNCNvNtNtCs86Lp2I5pN1o_13intent_engine3mcp6server15handle_task_add0s2_0B9_
FN:329,_RNCNCNvNtNtCs86Lp2I5pN1o_13intent_engine3mcp6server15handle_task_add0s_0B9_
FN:596,_RNCNCNvNtNtCs86Lp2I5pN1o_13intent_engine3mcp6server15handle_task_get00B9_
FN:606,_RNCNCNvNtNtCs86Lp2I5pN1o_13intent_engine3mcp6server15handle_task_get0s0_0B9_
FN:622,_RNCNCNvNtNtCs86Lp2I5pN1o_13intent_engine3mcp6server15handle_task_get0s1_0B9_
FN:623,_RNCNCNvNtNtCs86Lp2I5pN1o_13intent_engine3mcp6server15handle_task_get0s2_0B9_
FN:628,_RNCNCNvNtNtCs86Lp2I5pN1o_13intent_engine3mcp6server15handle_task_get0s3_0B9_
FN:629,_RNCNCNvNtNtCs86Lp2I5pN1o_13intent_engine3mcp6server15handle_task_get0s4_0B9_
FN:601,_RNCNCNvNtNtCs86Lp2I5pN1o_13intent_engine3mcp6server15handle_task_get0s_0B9_
FN:707,_RNCNCNvNtNtCs86Lp2I5pN1o_13intent_engine3mcp6server16handle_event_add00B9_
FN:716,_RNCNCNvNtNtCs86Lp2I5pN1o_13intent_engine3mcp6server16handle_event_add0s0_0B9_
FN:721,_RNCNCNvNtNtCs86Lp2I5pN1o_13intent_engine3mcp6server16handle_event_add0s1_0B9_
FN:732,_RNCNCNvNtNtCs86Lp2I5pN1o_13intent_engine3mcp6server16handle_event_add0s2_0B9_
FN:735,_RNCNCNvNtNtCs86Lp2I5pN1o_13intent_engine3mcp6server16handle_event_add0s3_0B9_
FN:736,_RNCNCNvNtNtCs86Lp2I5pN1o_13intent_engine3mcp6server16handle_event_add0s4_0B9_
FN:756,_RNCNCNvNtNtCs86Lp2I5pN1o_13intent_engine3mcp6server16handle_event_add0s5_0B9_
FN:758,_RNCNCNvNtNtCs86Lp2I5pN1o_13intent_engine3mcp6server16handle_event_add0s6_0B9_
FN:711,_RNCNCNvNtNtCs86Lp2I5pN1o_13intent_engine3mcp6server16handle_event_add0s_0B9_
FN:462,_RNCNCNvNtNtCs86Lp2I5pN1o_13intent_engine3mcp6server16handle_task_done00B9_
FN:484,_RNCNCNvNtNtCs86Lp2I5pN1o_13intent_engine3mcp6server16handle_task_done0s0_0B9_
FN:490,_RNCNCNvNtNtCs86Lp2I5pN1o_13intent_engine3mcp6server16handle_task_done0s1_0B9_
FN:492,_RNCNCNvNtNtCs86Lp2I5pN1o_13intent_engine3mcp6server16handle_task_done0s2_0B9_
FN:466,_RNCNCNvNtNtCs86Lp2I5pN1o_13intent_engine3mcp6server16handle_task_done0s_0B9_
FN:541,_RNCNCNvNtNtCs86Lp2I5pN1o_13intent_engine3mcp6server16handle_task_list00B9_
FN:544,_RNCNCNvNtNtCs86Lp2I5pN1o_13intent_engine3mcp6server16handle_task_list0s0_0B9_
FN:555,_RNCNCNvNtNtCs86Lp2I5pN1o_13intent_engine3mcp6server16handle_task_list0s1_0B9_
FN:556,_RNCNCNvNtNtCs86Lp2I5pN1o_13intent_engine3mcp6server16handle_task_list0s2_0B9_
FN:569,_RNCNCNvNtNtCs86Lp2I5pN1o_13intent_engine3mcp6server16handle_task_list0s3_0B9_
FN:570,_RNCNCNvNtNtCs86Lp2I5pN1o_13intent_engine3mcp6server16handle_task_list0s4_0B9_
FN:574,_RNCNCNvNtNtCs86Lp2I5pN1o_13intent_engine3mcp6server16handle_task_list0s5_0B9_
FN:588,_RNCNCNvNtNtCs86Lp2I5pN1o_13intent_engine3mcp6server16handle_task_list0s6_0B9_
FN:590,_RNCNCNvNtNtCs86Lp2I5pN1o_13intent_engine3mcp6server16handle_task_list0s7_0B9_
FN:542,_RNCNCNvNtNtCs86Lp2I5pN1o_13intent_engine3mcp6server16handle_task_list0s_0B9_
FN:276,_RNCNCNvNtNtCs86Lp2I5pN1o_13intent_engine3mcp6server16handle_tool_call00B9_
FN:303,_RNCNCNvNtNtCs86Lp2I5pN1o_13intent_engine3mcp6server16handle_tool_call0s_0B9_
FN:762,_RNCNCNvNtNtCs86Lp2I5pN1o_13intent_engine3mcp6server17handle_event_list00B9_
FN:767,_RNCNCNvNtNtCs86Lp2I5pN1o_13intent_engine3mcp6server17handle_event_list0s0_0B9_
FN:768,_RNCNCNvNtNtCs86Lp2I5pN1o_13intent_engine3mcp6server17handle_event_list0s1_0B9_
FN:771,_RNCNCNvNtNtCs86Lp2I5pN1o_13intent_engine3mcp6server17handle_event_list0s2_0B9_
FN:772,_RNCNCNvNtNtCs86Lp2I5pN1o_13intent_engine3mcp6server17handle_event_list0s3_0B9_
FN:776,_RNCNCNvNtNtCs86Lp2I5pN1o_13intent_engine3mcp6server17handle_event_list0s4_0B9_
FN:782,_RNCNCNvNtNtCs86Lp2I5pN1o_13intent_engine3mcp6server17handle_event_list0s5_0B9_
FN:784,_RNCNCNvNtNtCs86Lp2I5pN1o_13intent_engine3mcp6server17handle_event_list0s6_0B9_
FN:764,_RNCNCNvNtNtCs86Lp2I5pN1o_13intent_engine3mcp6server17handle_event_list0s_0B9_
FN:378,_RNCNCNvNtNtCs86Lp2I5pN1o_13intent_engine3mcp6server17handle_task_start00B9_
FN:388,_RNCNCNvNtNtCs86Lp2I5pN1o_13intent_engine3mcp6server17handle_task_start0s0_0B9_
FN:402,_RNCNCNvNtNtCs86Lp2I5pN1o_13intent_engine3mcp6server17handle_task_start0s1_0B9_
FN:404,_RNCNCNvNtNtCs86Lp2I5pN1o_13intent_engine3mcp6server17handle_task_start0s2_0B9_
FN:383,_RNCNCNvNtNtCs86Lp2I5pN1o_13intent_engine3mcp6server17handle_task_start0s_0B9_
FN:682,_RNCNCNvNtNtCs86Lp2I5pN1o_13intent_engine3mcp6server18handle_task_delete00B9_
FN:701,_RNCNCNvNtNtCs86Lp2I5pN1o_13intent_engine3mcp6server18handle_task_delete0s0_0B9_
FN:687,_RNCNCNvNtNtCs86Lp2I5pN1o_13intent_engine3mcp6server18handle_task_delete0s_0B9_
FN:498,_RNCNCNvNtNtCs86Lp2I5pN1o_13intent_engine3mcp6server18handle_task_update00B9_
FN:502,_RNCNCNvNtNtCs86Lp2I5pN1o_13intent_engine3mcp6server18handle_task_update0s0_0B9_
FN:503,_RNCNCNvNtNtCs86Lp2I5pN1o_13intent_engine3mcp6server18handle_task_update0s1_0B9_
FN:506,_RNCNCNvNtNtCs86Lp2I5pN1o_13intent_engine3mcp6server18handle_task_update0s2_0B9_
FN:507,_RNCNCNvNtNtCs86Lp2I5pN1o_13intent_engine3mcp6server18handle_task_update0s3_0B9_
FN:508,_RNCNCNvNtNtCs86Lp2I5pN1o_13intent_engine3mcp6server18handle_task_update0s4_0B9_
FN:511,_RNCNCNvNtNtCs86Lp2I5pN1o_13intent_engine3mcp6server18handle_task_update0s5_0B9_
FN:515,_RNCNCNvNtNtCs86Lp2I5pN1o_13intent_engine3mcp6server18handle_task_update0s6_0B9_
FN:519,_RNCNCNvNtNtCs86Lp2I5pN1o_13intent_engine3mcp6server18handle_task_update0s7_0B9_
FN:533,_RNCNCNvNtNtCs86Lp2I5pN1o_13intent_engine3mcp6server18handle_task_update0s8_0B9_
FN:535,_RNCNCNvNtNtCs86Lp2I5pN1o_13intent_engine3mcp6server18handle_task_update0s9_0B9_
FN:501,_RNCNCNvNtNtCs86Lp2I5pN1o_13intent_engine3mcp6server18handle_task_update0s_0B9_
FN:635,_RNCNCNvNtNtCs86Lp2I5pN1o_13intent_engine3mcp6server19handle_task_context00B9_
FN:647,_RNCNCNvNtNtCs86Lp2I5pN1o_13intent_engine3mcp6server19handle_task_context0s0_0B9_
FN:650,_RNCNCNvNtNtCs86Lp2I5pN1o_13intent_engine3mcp6server19handle_task_context0s1_0B9_
FN:651,_RNCNCNvNtNtCs86Lp2I5pN1o_13intent_engine3mcp6server19handle_task_context0s2_0B9_
FN:660,_RNCNCNvNtNtCs86Lp2I5pN1o_13intent_engine3mcp6server19handle_task_context0s3_0B9_
FN:674,_RNCNCNvNtNtCs86Lp2I5pN1o_13intent_engine3mcp6server19handle_task_context0s4_0B9_
FN:676,_RNCNCNvNtNtCs86Lp2I5pN1o_13intent_engine3mcp6server19handle_task_context0s5_0B9_
FN:641,_RNCNCNvNtNtCs86Lp2I5pN1o_13intent_engine3mcp6server19handle_task_context0s_0B9_
FN:408,_RNCNCNvNtNtCs86Lp2I5pN1o_13intent_engine3mcp6server21handle_task_pick_next00B9_
FN:413,_RNCNCNvNtNtCs86Lp2I5pN1o_13intent_engine3mcp6server21handle_task_pick_next0s0_0B9_
FN:427,_RNCNCNvNtNtCs86Lp2I5pN1o_13intent_engine3mcp6server21handle_task_pick_next0s1_0B9_
FN:429,_RNCNCNvNtNtCs86Lp2I5pN1o_13intent_engine3mcp6server21handle_task_pick_next0s2_0B9_
FN:409,_RNCNCNvNtNtCs86Lp2I5pN1o_13intent_engine3mcp6server21handle_task_pick_next0s_0B9_
FN:792,_RNCNCNvNtNtCs86Lp2I5pN1o_13intent_engine3mcp6server21handle_unified_search00B9_
FN:802,_RNCNCNvNtNtCs86Lp2I5pN1o_13intent_engine3mcp6server21handle_unified_search0s0_0B9_
FN:805,_RNCNCNvNtNtCs86Lp2I5pN1o_13intent_engine3mcp6server21handle_unified_search0s1_0B9_
FN:807,_RNCNCNvNtNtCs86Lp2I5pN1o_13intent_engine3mcp6server21handle_unified_search0s2_0B9_
FN:811,_RNCNCNvNtNtCs86Lp2I5pN1o_13intent_engine3mcp6server21handle_unified_search0s3_0B9_
FN:817,_RNCNCNvNtNtCs86Lp2I5pN1o_13intent_engine3mcp6server21handle_unified_search0s4_0B9_
FN:819,_RNCNCNvNtNtCs86Lp2I5pN1o_13intent_engine3mcp6server21handle_unified_search0s5_0B9_
FN:797,_RNCNCNvNtNtCs86Lp2I5pN1o_13intent_engine3mcp6server21handle_unified_search0s_0B9_
FN:837,_RNCNCNvNtNtCs86Lp2I5pN1o_13intent_engine3mcp6server22handle_report_generate00B9_
FN:844,_RNCNCNvNtNtCs86Lp2I5pN1o_13intent_engine3mcp6server22handle_report_generate0s0_0B9_
FN:848,_RNCNCNvNtNtCs86Lp2I5pN1o_13intent_engine3mcp6server22handle_report_generate0s1_0B9_
FN:852,_RNCNCNvNtNtCs86Lp2I5pN1o_13intent_engine3mcp6server22handle_report_generate0s2_0B9_
FN:857,_RNCNCNvNtNtCs86Lp2I5pN1o_13intent_engine3mcp6server22handle_report_generate0s3_0B9_
FN:863,_RNCNCNvNtNtCs86Lp2I5pN1o_13intent_engine3mcp6server22handle_report_generate0s4_0B9_
FN:865,_RNCNCNvNtNtCs86Lp2I5pN1o_13intent_engine3mcp6server22handle_report_generate0s5_0B9_
FN:840,_RNCNCNvNtNtCs86Lp2I5pN1o_13intent_engine3mcp6server22handle_report_generate0s_0B9_
FN:825,_RNCNCNvNtNtCs86Lp2I5pN1o_13intent_engine3mcp6server23handle_current_task_get00B9_
FN:833,_RNCNCNvNtNtCs86Lp2I5pN1o_13intent_engine3mcp6server23handle_current_task_get0s0_0B9_
FN:831,_RNCNCNvNtNtCs86Lp2I5pN1o_13intent_engine3mcp6server23handle_current_task_get0s_0B9_
FN:435,_RNCNCNvNtNtCs86Lp2I5pN1o_13intent_engine3mcp6server25handle_task_spawn_subtask00B9_
FN:442,_RNCNCNvNtNtCs86Lp2I5pN1o_13intent_engine3mcp6server25handle_task_spawn_subtask0s0_0B9_
FN:456,_RNCNCNvNtNtCs86Lp2I5pN1o_13intent_engine3mcp6server25handle_task_spawn_subtask0s1_0B9_
FN:458,_RNCNCNvNtNtCs86Lp2I5pN1o_13intent_engine3mcp6server25handle_task_spawn_subtask0s2_0B9_
FN:438,_RNCNCNvNtNtCs86Lp2I5pN1o_13intent_engine3mcp6server25handle_task_spawn_subtask0s_0B9_
FN:355,_RNCNCNvNtNtCs86Lp2I5pN1o_13intent_engine3mcp6server26handle_task_add_dependency00B9_
FN:365,_RNCNCNvNtNtCs86Lp2I5pN1o_13intent_engine3mcp6server26handle_task_add_dependency0s0_0B9_
FN:370,_RNCNCNvNtNtCs86Lp2I5pN1o_13intent_engine3mcp6server26handle_task_add_dependency0s1_0B9_
FN:372,_RNCNCNvNtNtCs86Lp2I5pN1o_13intent_engine3mcp6server26handle_task_add_dependency0s2_0B9_
FN:360,_RNCNCNvNtNtCs86Lp2I5pN1o_13intent_engine3mcp6server26handle_task_add_dependency0s_0B9_
FN:976,_RNCNCNvNtNtCs86Lp2I5pN1o_13intent_engine3mcp6server26start_dashboard_background00B9_
FN:87,_RNCNCNvNtNtCs86Lp2I5pN1o_13intent_engine3mcp6server3run00B9_
FN:96,_RNCNCNvNtNtCs86Lp2I5pN1o_13intent_engine3mcp6server3run0s0_0B9_
FN:104,_RNCNCNvNtNtCs86Lp2I5pN1o_13intent_engine3mcp6server3run0s1_0B9_
FN:122,_RNCNCNvNtNtCs86Lp2I5pN1o_13intent_engine3mcp6server3run0s2_0B9_
FN:91,_RNCNCNvNtNtCs86Lp2I5pN1o_13intent_engine3mcp6server3run0s_0B9_
FN:152,_RNCNvNtNtCs86Lp2I5pN1o_13intent_engine3mcp6server10run_server0B7_
FN:868,_RNCNvNtNtCs86Lp2I5pN1o_13intent_engine3mcp6server11handle_plan0B7_
FN:207,_RNCNvNtNtCs86Lp2I5pN1o_13intent_engine3mcp6server14handle_request0B7_
FN:310,_RNCNvNtNtCs86Lp2I5pN1o_13intent_engine3mcp6server15handle_task_add0B7_
FN:593,_RNCNvNtNtCs86Lp2I5pN1o_13intent_engine3mcp6server15handle_task_get0B7_
FN:706,_RNCNvNtNtCs86Lp2I5pN1o_13intent_engine3mcp6server16handle_event_add0B7_
FN:461,_RNCNvNtNtCs86Lp2I5pN1o_13intent_engine3mcp6server16handle_task_done0B7_
FN:538,_RNCNvNtNtCs86Lp2I5pN1o_13intent_engine3mcp6server16handle_task_list0B7_
FN:274,_RNCNvNtNtCs86Lp2I5pN1o_13intent_engine3mcp6server16handle_tool_call0B7_
FN:761,_RNCNvNtNtCs86Lp2I5pN1o_13intent_engine3mcp6server17handle_event_list0B7_
FN:375,_RNCNvNtNtCs86Lp2I5pN1o_13intent_engine3mcp6server17handle_task_start0B7_
FN:267,_RNCNvNtNtCs86Lp2I5pN1o_13intent_engine3mcp6server17handle_tools_list0B7_
FN:679,_RNCNvNtNtCs86Lp2I5pN1o_13intent_engine3mcp6server18handle_task_delete0B7_
FN:495,_RNCNvNtNtCs86Lp2I5pN1o_13intent_engine3mcp6server18handle_task_update0B7_
FN:194,_RNCNvNtNtCs86Lp2I5pN1o_13intent_engine3mcp6server19handle_notification0B7_
FN:633,_RNCNvNtNtCs86Lp2I5pN1o_13intent_engine3mcp6server19handle_task_context0B7_
FN:935,_RNCNvNtNtCs86Lp2I5pN1o_13intent_engine3mcp6server20is_dashboard_running0B7_
FN:407,_RNCNvNtNtCs86Lp2I5pN1o_13intent_engine3mcp6server21handle_task_pick_next0B7_
FN:787,_RNCNvNtNtCs86Lp2I5pN1o_13intent_engine3mcp6server21handle_unified_search0B7_
FN:836,_RNCNvNtNtCs86Lp2I5pN1o_13intent_engine3mcp6server22handle_report_generate0B7_
FN:822,_RNCNvNtNtCs86Lp2I5pN1o_13intent_engine3mcp6server23handle_current_task_get0B7_
FN:896,_RNCNvNtNtCs86Lp2I5pN1o_13intent_engine3mcp6server23register_mcp_connection0B7_
FN:903,_RNCNvNtNtCs86Lp2I5pN1o_13intent_engine3mcp6server23register_mcp_connections_0B7_
FN:432,_RNCNvNtNtCs86Lp2I5pN1o_13intent_engine3mcp6server25handle_task_spawn_subtask0B7_
FN:925,_RNCNvNtNtCs86Lp2I5pN1o_13intent_engine3mcp6server25unregister_mcp_connection0B7_
FN:352,_RNCNvNtNtCs86Lp2I5pN1o_13intent_engine3mcp6server26handle_task_add_dependency0B7_
FN:953,_RNCNvNtNtCs86Lp2I5pN1o_13intent_engine3mcp6server26start_dashboard_background0B7_
FN:61,_RNCNvNtNtCs86Lp2I5pN1o_13intent_engine3mcp6server3run0B7_
FN:152,_RNvNtNtCs86Lp2I5pN1o_13intent_engine3mcp6server10run_server
FN:868,_RNvNtNtCs86Lp2I5pN1o_13intent_engine3mcp6server11handle_plan
FN:207,_RNvNtNtCs86Lp2I5pN1o_13intent_engine3mcp6server14handle_request
FN:310,_RNvNtNtCs86Lp2I5pN1o_13intent_engine3mcp6server15handle_task_add
FN:593,_RNvNtNtCs86Lp2I5pN1o_13intent_engine3mcp6server15handle_task_get
FN:706,_RNvNtNtCs86Lp2I5pN1o_13intent_engine3mcp6server16handle_event_add
FN:461,_RNvNtNtCs86Lp2I5pN1o_13intent_engine3mcp6server16handle_task_done
FN:538,_RNvNtNtCs86Lp2I5pN1o_13intent_engine3mcp6server16handle_task_list
FN:274,_RNvNtNtCs86Lp2I5pN1o_13intent_engine3mcp6server16handle_tool_call
FN:761,_RNvNtNtCs86Lp2I5pN1o_13intent_engine3mcp6server17handle_event_list
FN:248,_RNvNtNtCs86Lp2I5pN1o_13intent_engine3mcp6server17handle_initialize
FN:375,_RNvNtNtCs86Lp2I5pN1o_13intent_engine3mcp6server17handle_task_start
FN:265,_RNvNtNtCs86Lp2I5pN1o_13intent_engine3mcp6server17handle_tools_list
FN:679,_RNvNtNtCs86Lp2I5pN1o_13intent_engine3mcp6server18handle_task_delete
FN:495,_RNvNtNtCs86Lp2I5pN1o_13intent_engine3mcp6server18handle_task_update
FN:194,_RNvNtNtCs86Lp2I5pN1o_13intent_engine3mcp6server19handle_notification
FN:633,_RNvNtNtCs86Lp2I5pN1o_13intent_engine3mcp6server19handle_task_context
FN:935,_RNvNtNtCs86Lp2I5pN1o_13intent_engine3mcp6server20is_dashboard_running
FN:407,_RNvNtNtCs86Lp2I5pN1o_13intent_engine3mcp6server21handle_task_pick_next
FN:787,_RNvNtNtCs86Lp2I5pN1o_13intent_engine3mcp6server21handle_unified_search
FN:836,_RNvNtNtCs86Lp2I5pN1o_13intent_engine3mcp6server22handle_report_generate
FN:822,_RNvNtNtCs86Lp2I5pN1o_13intent_engine3mcp6server23handle_current_task_get
FN:892,_RNvNtNtCs86Lp2I5pN1o_13intent_engine3mcp6server23register_mcp_connection
FN:432,_RNvNtNtCs86Lp2I5pN1o_13intent_engine3mcp6server25handle_task_spawn_subtask
FN:921,_RNvNtNtCs86Lp2I5pN1o_13intent_engine3mcp6server25unregister_mcp_connection
FN:352,_RNvNtNtCs86Lp2I5pN1o_13intent_engine3mcp6server26handle_task_add_dependency
FN:953,_RNvNtNtCs86Lp2I5pN1o_13intent_engine3mcp6server26start_dashboard_background
FNDA:0,_RNCNCNvNtNtCsjp9E11WtBq9_13intent_engine3mcp6server11handle_plan00B9_
FNDA:0,_RNCNCNvNtNtCsjp9E11WtBq9_13intent_engine3mcp6server11handle_plan0s0_0B9_
FNDA:0,_RNCNCNvNtNtCsjp9E11WtBq9_13intent_engine3mcp6server11handle_plan0s1_0B9_
FNDA:0,_RNCNCNvNtNtCsjp9E11WtBq9_13intent_engine3mcp6server11handle_plan0s_0B9_
FNDA:0,_RNCNCNvNtNtCsjp9E11WtBq9_13intent_engine3mcp6server15handle_task_add00B9_
FNDA:0,_RNCNCNvNtNtCsjp9E11WtBq9_13intent_engine3mcp6server15handle_task_add0s0_0B9_
FNDA:0,_RNCNCNvNtNtCsjp9E11WtBq9_13intent_engine3mcp6server15handle_task_add0s1_0B9_
FNDA:0,_RNCNCNvNtNtCsjp9E11WtBq9_13intent_engine3mcp6server15handle_task_add0s2_0B9_
FNDA:0,_RNCNCNvNtNtCsjp9E11WtBq9_13intent_engine3mcp6server15handle_task_add0s_0B9_
FNDA:0,_RNCNCNvNtNtCsjp9E11WtBq9_13intent_engine3mcp6server15handle_task_get00B9_
FNDA:0,_RNCNCNvNtNtCsjp9E11WtBq9_13intent_engine3mcp6server15handle_task_get0s0_0B9_
FNDA:0,_RNCNCNvNtNtCsjp9E11WtBq9_13intent_engine3mcp6server15handle_task_get0s1_0B9_
FNDA:0,_RNCNCNvNtNtCsjp9E11WtBq9_13intent_engine3mcp6server15handle_task_get0s2_0B9_
FNDA:0,_RNCNCNvNtNtCsjp9E11WtBq9_13intent_engine3mcp6server15handle_task_get0s3_0B9_
FNDA:0,_RNCNCNvNtNtCsjp9E11WtBq9_13intent_engine3mcp6server15handle_task_get0s4_0B9_
FNDA:0,_RNCNCNvNtNtCsjp9E11WtBq9_13intent_engine3mcp6server15handle_task_get0s_0B9_
FNDA:0,_RNCNCNvNtNtCsjp9E11WtBq9_13intent_engine3mcp6server16handle_event_add00B9_
FNDA:0,_RNCNCNvNtNtCsjp9E11WtBq9_13intent_engine3mcp6server16handle_event_add0s0_0B9_
FNDA:0,_RNCNCNvNtNtCsjp9E11WtBq9_13intent_engine3mcp6server16handle_event_add0s1_0B9_
FNDA:0,_RNCNCNvNtNtCsjp9E11WtBq9_13intent_engine3mcp6server16handle_event_add0s2_0B9_
FNDA:0,_RNCNCNvNtNtCsjp9E11WtBq9_13intent_engine3mcp6server16handle_event_add0s3_0B9_
FNDA:0,_RNCNCNvNtNtCsjp9E11WtBq9_13intent_engine3mcp6server16handle_event_add0s4_0B9_
FNDA:0,_RNCNCNvNtNtCsjp9E11WtBq9_13intent_engine3mcp6server16handle_event_add0s5_0B9_
FNDA:0,_RNCNCNvNtNtCsjp9E11WtBq9_13intent_engine3mcp6server16handle_event_add0s6_0B9_
FNDA:0,_RNCNCNvNtNtCsjp9E11WtBq9_13intent_engine3mcp6server16handle_event_add0s_0B9_
FNDA:0,_RNCNCNvNtNtCsjp9E11WtBq9_13intent_engine3mcp6server16handle_task_done00B9_
FNDA:0,_RNCNCNvNtNtCsjp9E11WtBq9_13intent_engine3mcp6server16handle_task_done0s0_0B9_
FNDA:0,_RNCNCNvNtNtCsjp9E11WtBq9_13intent_engine3mcp6server16handle_task_done0s1_0B9_
FNDA:0,_RNCNCNvNtNtCsjp9E11WtBq9_13intent_engine3mcp6server16handle_task_done0s2_0B9_
FNDA:0,_RNCNCNvNtNtCsjp9E11WtBq9_13intent_engine3mcp6server16handle_task_done0s_0B9_
FNDA:0,_RNCNCNvNtNtCsjp9E11WtBq9_13intent_engine3mcp6server16handle_task_list00B9_
FNDA:0,_RNCNCNvNtNtCsjp9E11WtBq9_13intent_engine3mcp6server16handle_task_list0s0_0B9_
FNDA:0,_RNCNCNvNtNtCsjp9E11WtBq9_13intent_engine3mcp6server16handle_task_list0s1_0B9_
FNDA:0,_RNCNCNvNtNtCsjp9E11WtBq9_13intent_engine3mcp6server16handle_task_list0s2_0B9_
FNDA:0,_RNCNCNvNtNtCsjp9E11WtBq9_13intent_engine3mcp6server16handle_task_list0s3_0B9_
FNDA:0,_RNCNCNvNtNtCsjp9E11WtBq9_13intent_engine3mcp6server16handle_task_list0s4_0B9_
FNDA:0,_RNCNCNvNtNtCsjp9E11WtBq9_13intent_engine3mcp6server16handle_task_list0s5_0B9_
FNDA:0,_RNCNCNvNtNtCsjp9E11WtBq9_13intent_engine3mcp6server16handle_task_list0s6_0B9_
FNDA:0,_RNCNCNvNtNtCsjp9E11WtBq9_13intent_engine3mcp6server16handle_task_list0s7_0B9_
FNDA:0,_RNCNCNvNtNtCsjp9E11WtBq9_13intent_engine3mcp6server16handle_task_list0s_0B9_
FNDA:0,_RNCNCNvNtNtCsjp9E11WtBq9_13intent_engine3mcp6server16handle_tool_call00B9_
FNDA:0,_RNCNCNvNtNtCsjp9E11WtBq9_13intent_engine3mcp6server16handle_tool_call0s_0B9_
FNDA:0,_RNCNCNvNtNtCsjp9E11WtBq9_13intent_engine3mcp6server17handle_event_list00B9_
FNDA:0,_RNCNCNvNtNtCsjp9E11WtBq9_13intent_engine3mcp6server17handle_event_list0s0_0B9_
FNDA:0,_RNCNCNvNtNtCsjp9E11WtBq9_13intent_engine3mcp6server17handle_event_list0s1_0B9_
FNDA:0,_RNCNCNvNtNtCsjp9E11WtBq9_13intent_engine3mcp6server17handle_event_list0s2_0B9_
FNDA:0,_RNCNCNvNtNtCsjp9E11WtBq9_13intent_engine3mcp6server17handle_event_list0s3_0B9_
FNDA:0,_RNCNCNvNtNtCsjp9E11WtBq9_13intent_engine3mcp6server17handle_event_list0s4_0B9_
FNDA:0,_RNCNCNvNtNtCsjp9E11WtBq9_13intent_engine3mcp6server17handle_event_list0s5_0B9_
FNDA:0,_RNCNCNvNtNtCsjp9E11WtBq9_13intent_engine3mcp6server17handle_event_list0s6_0B9_
FNDA:0,_RNCNCNvNtNtCsjp9E11WtBq9_13intent_engine3mcp6server17handle_event_list0s_0B9_
FNDA:0,_RNCNCNvNtNtCsjp9E11WtBq9_13intent_engine3mcp6server17handle_task_start00B9_
FNDA:0,_RNCNCNvNtNtCsjp9E11WtBq9_13intent_engine3mcp6server17handle_task_start0s0_0B9_
FNDA:0,_RNCNCNvNtNtCsjp9E11WtBq9_13intent_engine3mcp6server17handle_task_start0s1_0B9_
FNDA:0,_RNCNCNvNtNtCsjp9E11WtBq9_13intent_engine3mcp6server17handle_task_start0s2_0B9_
FNDA:0,_RNCNCNvNtNtCsjp9E11WtBq9_13intent_engine3mcp6server17handle_task_start0s_0B9_
FNDA:0,_RNCNCNvNtNtCsjp9E11WtBq9_13intent_engine3mcp6server18handle_task_delete00B9_
FNDA:0,_RNCNCNvNtNtCsjp9E11WtBq9_13intent_engine3mcp6server18handle_task_delete0s0_0B9_
FNDA:0,_RNCNCNvNtNtCsjp9E11WtBq9_13intent_engine3mcp6server18handle_task_delete0s_0B9_
FNDA:0,_RNCNCNvNtNtCsjp9E11WtBq9_13intent_engine3mcp6server18handle_task_update00B9_
FNDA:0,_RNCNCNvNtNtCsjp9E11WtBq9_13intent_engine3mcp6server18handle_task_update0s0_0B9_
FNDA:0,_RNCNCNvNtNtCsjp9E11WtBq9_13intent_engine3mcp6server18handle_task_update0s1_0B9_
FNDA:0,_RNCNCNvNtNtCsjp9E11WtBq9_13intent_engine3mcp6server18handle_task_update0s2_0B9_
FNDA:0,_RNCNCNvNtNtCsjp9E11WtBq9_13intent_engine3mcp6server18handle_task_update0s3_0B9_
FNDA:0,_RNCNCNvNtNtCsjp9E11WtBq9_13intent_engine3mcp6server18handle_task_update0s4_0B9_
FNDA:0,_RNCNCNvNtNtCsjp9E11WtBq9_13intent_engine3mcp6server18handle_task_update0s5_0B9_
FNDA:0,_RNCNCNvNtNtCsjp9E11WtBq9_13intent_engine3mcp6server18handle_task_update0s6_0B9_
FNDA:0,_RNCNCNvNtNtCsjp9E11WtBq9_13intent_engine3mcp6server18handle_task_update0s7_0B9_
FNDA:0,_RNCNCNvNtNtCsjp9E11WtBq9_13intent_engine3mcp6server18handle_task_update0s8_0B9_
FNDA:0,_RNCNCNvNtNtCsjp9E11WtBq9_13intent_engine3mcp6server18handle_task_update0s9_0B9_
FNDA:0,_RNCNCNvNtNtCsjp9E11WtBq9_13intent_engine3mcp6server18handle_task_update0s_0B9_
FNDA:0,_RNCNCNvNtNtCsjp9E11WtBq9_13intent_engine3mcp6server19handle_task_context00B9_
FNDA:0,_RNCNCNvNtNtCsjp9E11WtBq9_13intent_engine3mcp6server19handle_task_context0s0_0B9_
FNDA:0,_RNCNCNvNtNtCsjp9E11WtBq9_13intent_engine3mcp6server19handle_task_context0s1_0B9_
FNDA:0,_RNCNCNvNtNtCsjp9E11WtBq9_13intent_engine3mcp6server19handle_task_context0s2_0B9_
FNDA:0,_RNCNCNvNtNtCsjp9E11WtBq9_13intent_engine3mcp6server19handle_task_context0s3_0B9_
FNDA:0,_RNCNCNvNtNtCsjp9E11WtBq9_13intent_engine3mcp6server19handle_task_context0s4_0B9_
FNDA:0,_RNCNCNvNtNtCsjp9E11WtBq9_13intent_engine3mcp6server19handle_task_context0s5_0B9_
FNDA:0,_RNCNCNvNtNtCsjp9E11WtBq9_13intent_engine3mcp6server19handle_task_context0s_0B9_
FNDA:0,_RNCNCNvNtNtCsjp9E11WtBq9_13intent_engine3mcp6server21handle_task_pick_next00B9_
FNDA:0,_RNCNCNvNtNtCsjp9E11WtBq9_13intent_engine3mcp6server21handle_task_pick_next0s0_0B9_
FNDA:0,_RNCNCNvNtNtCsjp9E11WtBq9_13intent_engine3mcp6server21handle_task_pick_next0s1_0B9_
FNDA:0,_RNCNCNvNtNtCsjp9E11WtBq9_13intent_engine3mcp6server21handle_task_pick_next0s2_0B9_
FNDA:0,_RNCNCNvNtNtCsjp9E11WtBq9_13intent_engine3mcp6server21handle_task_pick_next0s_0B9_
FNDA:0,_RNCNCNvNtNtCsjp9E11WtBq9_13intent_engine3mcp6server21handle_unified_search00B9_
FNDA:0,_RNCNCNvNtNtCsjp9E11WtBq9_13intent_engine3mcp6server21handle_unified_search0s0_0B9_
FNDA:0,_RNCNCNvNtNtCsjp9E11WtBq9_13intent_engine3mcp6server21handle_unified_search0s1_0B9_
FNDA:0,_RNCNCNvNtNtCsjp9E11WtBq9_13intent_engine3mcp6server21handle_unified_search0s2_0B9_
FNDA:0,_RNCNCNvNtNtCsjp9E11WtBq9_13intent_engine3mcp6server21handle_unified_search0s3_0B9_
FNDA:0,_RNCNCNvNtNtCsjp9E11WtBq9_13intent_engine3mcp6server21handle_unified_search0s4_0B9_
FNDA:0,_RNCNCNvNtNtCsjp9E11WtBq9_13intent_engine3mcp6server21handle_unified_search0s5_0B9_
FNDA:0,_RNCNCNvNtNtCsjp9E11WtBq9_13intent_engine3mcp6server21handle_unified_search0s_0B9_
FNDA:0,_RNCNCNvNtNtCsjp9E11WtBq9_13intent_engine3mcp6server22handle_report_generate00B9_
FNDA:0,_RNCNCNvNtNtCsjp9E11WtBq9_13intent_engine3mcp6server22handle_report_generate0s0_0B9_
FNDA:0,_RNCNCNvNtNtCsjp9E11WtBq9_13intent_engine3mcp6server22handle_report_generate0s1_0B9_
FNDA:0,_RNCNCNvNtNtCsjp9E11WtBq9_13intent_engine3mcp6server22handle_report_generate0s2_0B9_
FNDA:0,_RNCNCNvNtNtCsjp9E11WtBq9_13intent_engine3mcp6server22handle_report_generate0s3_0B9_
FNDA:0,_RNCNCNvNtNtCsjp9E11WtBq9_13intent_engine3mcp6server22handle_report_generate0s4_0B9_
FNDA:0,_RNCNCNvNtNtCsjp9E11WtBq9_13intent_engine3mcp6server22handle_report_generate0s5_0B9_
FNDA:0,_RNCNCNvNtNtCsjp9E11WtBq9_13intent_engine3mcp6server22handle_report_generate0s_0B9_
FNDA:0,_RNCNCNvNtNtCsjp9E11WtBq9_13intent_engine3mcp6server23handle_current_task_get00B9_
FNDA:0,_RNCNCNvNtNtCsjp9E11WtBq9_13intent_engine3mcp6server23handle_current_task_get0s0_0B9_
FNDA:0,_RNCNCNvNtNtCsjp9E11WtBq9_13intent_engine3mcp6server23handle_current_task_get0s_0B9_
FNDA:0,_RNCNCNvNtNtCsjp9E11WtBq9_13intent_engine3mcp6server25handle_task_spawn_subtask00B9_
FNDA:0,_RNCNCNvNtNtCsjp9E11WtBq9_13intent_engine3mcp6server25handle_task_spawn_subtask0s0_0B9_
FNDA:0,_RNCNCNvNtNtCsjp9E11WtBq9_13intent_engine3mcp6server25handle_task_spawn_subtask0s1_0B9_
FNDA:0,_RNCNCNvNtNtCsjp9E11WtBq9_13intent_engine3mcp6server25handle_task_spawn_subtask0s2_0B9_
FNDA:0,_RNCNCNvNtNtCsjp9E11WtBq9_13intent_engine3mcp6server25handle_task_spawn_subtask0s_0B9_
FNDA:0,_RNCNCNvNtNtCsjp9E11WtBq9_13intent_engine3mcp6server26handle_task_add_dependency00B9_
FNDA:0,_RNCNCNvNtNtCsjp9E11WtBq9_13intent_engine3mcp6server26handle_task_add_dependency0s0_0B9_
FNDA:0,_RNCNCNvNtNtCsjp9E11WtBq9_13intent_engine3mcp6server26handle_task_add_dependency0s1_0B9_
FNDA:0,_RNCNCNvNtNtCsjp9E11WtBq9_13intent_engine3mcp6server26handle_task_add_dependency0s2_0B9_
FNDA:0,_RNCNCNvNtNtCsjp9E11WtBq9_13intent_engine3mcp6server26handle_task_add_dependency0s_0B9_
FNDA:0,_RNCNCNvNtNtCsjp9E11WtBq9_13intent_engine3mcp6server26start_dashboard_background00B9_
FNDA:0,_RNCNCNvNtNtCsjp9E11WtBq9_13intent_engine3mcp6server3run00B9_
FNDA:0,_RNCNCNvNtNtCsjp9E11WtBq9_13intent_engine3mcp6server3run0s0_0B9_
FNDA:0,_RNCNCNvNtNtCsjp9E11WtBq9_13intent_engine3mcp6server3run0s1_0B9_
FNDA:0,_RNCNCNvNtNtCsjp9E11WtBq9_13intent_engine3mcp6server3run0s2_0B9_
FNDA:0,_RNCNCNvNtNtCsjp9E11WtBq9_13intent_engine3mcp6server3run0s_0B9_
FNDA:0,_RNCNvNtNtCsjp9E11WtBq9_13intent_engine3mcp6server10run_server0B7_
FNDA:0,_RNCNvNtNtCsjp9E11WtBq9_13intent_engine3mcp6server11handle_plan0B7_
FNDA:0,_RNCNvNtNtCsjp9E11WtBq9_13intent_engine3mcp6server14handle_request0B7_
FNDA:0,_RNCNvNtNtCsjp9E11WtBq9_13intent_engine3mcp6server15handle_task_add0B7_
FNDA:0,_RNCNvNtNtCsjp9E11WtBq9_13intent_engine3mcp6server15handle_task_get0B7_
FNDA:0,_RNCNvNtNtCsjp9E11WtBq9_13intent_engine3mcp6server16handle_event_add0B7_
FNDA:0,_RNCNvNtNtCsjp9E11WtBq9_13intent_engine3mcp6server16handle_task_done0B7_
FNDA:0,_RNCNvNtNtCsjp9E11WtBq9_13intent_engine3mcp6server16handle_task_list0B7_
FNDA:0,_RNCNvNtNtCsjp9E11WtBq9_13intent_engine3mcp6server16handle_tool_call0B7_
FNDA:0,_RNCNvNtNtCsjp9E11WtBq9_13intent_engine3mcp6server17handle_event_list0B7_
FNDA:0,_RNCNvNtNtCsjp9E11WtBq9_13intent_engine3mcp6server17handle_task_start0B7_
FNDA:0,_RNCNvNtNtCsjp9E11WtBq9_13intent_engine3mcp6server17handle_tools_list0B7_
FNDA:0,_RNCNvNtNtCsjp9E11WtBq9_13intent_engine3mcp6server18handle_task_delete0B7_
FNDA:0,_RNCNvNtNtCsjp9E11WtBq9_13intent_engine3mcp6server18handle_task_update0B7_
FNDA:0,_RNCNvNtNtCsjp9E11WtBq9_13intent_engine3mcp6server19handle_notification0B7_
FNDA:0,_RNCNvNtNtCsjp9E11WtBq9_13intent_engine3mcp6server19handle_task_context0B7_
FNDA:0,_RNCNvNtNtCsjp9E11WtBq9_13intent_engine3mcp6server20is_dashboard_running0B7_
FNDA:0,_RNCNvNtNtCsjp9E11WtBq9_13intent_engine3mcp6server21handle_task_pick_next0B7_
FNDA:0,_RNCNvNtNtCsjp9E11WtBq9_13intent_engine3mcp6server21handle_unified_search0B7_
FNDA:0,_RNCNvNtNtCsjp9E11WtBq9_13intent_engine3mcp6server22handle_report_generate0B7_
FNDA:0,_RNCNvNtNtCsjp9E11WtBq9_13intent_engine3mcp6server23handle_current_task_get0B7_
FNDA:0,_RNCNvNtNtCsjp9E11WtBq9_13intent_engine3mcp6server23register_mcp_connection0B7_
FNDA:0,_RNCNvNtNtCsjp9E11WtBq9_13intent_engine3mcp6server23register_mcp_connections_0B7_
FNDA:0,_RNCNvNtNtCsjp9E11WtBq9_13intent_engine3mcp6server25handle_task_spawn_subtask0B7_
FNDA:0,_RNCNvNtNtCsjp9E11WtBq9_13intent_engine3mcp6server25unregister_mcp_connection0B7_
FNDA:0,_RNCNvNtNtCsjp9E11WtBq9_13intent_engine3mcp6server26handle_task_add_dependency0B7_
FNDA:0,_RNCNvNtNtCsjp9E11WtBq9_13intent_engine3mcp6server26start_dashboard_background0B7_
FNDA:0,_RNCNvNtNtCsjp9E11WtBq9_13intent_engine3mcp6server3run0B7_
FNDA:0,_RNvNtNtCsjp9E11WtBq9_13intent_engine3mcp6server10run_server
FNDA:0,_RNvNtNtCsjp9E11WtBq9_13intent_engine3mcp6server11handle_plan
FNDA:0,_RNvNtNtCsjp9E11WtBq9_13intent_engine3mcp6server14handle_request
FNDA:0,_RNvNtNtCsjp9E11WtBq9_13intent_engine3mcp6server15handle_task_add
FNDA:0,_RNvNtNtCsjp9E11WtBq9_13intent_engine3mcp6server15handle_task_get
FNDA:0,_RNvNtNtCsjp9E11WtBq9_13intent_engine3mcp6server16handle_event_add
FNDA:0,_RNvNtNtCsjp9E11WtBq9_13intent_engine3mcp6server16handle_task_done
FNDA:0,_RNvNtNtCsjp9E11WtBq9_13intent_engine3mcp6server16handle_task_list
FNDA:0,_RNvNtNtCsjp9E11WtBq9_13intent_engine3mcp6server16handle_tool_call
FNDA:0,_RNvNtNtCsjp9E11WtBq9_13intent_engine3mcp6server17handle_event_list
FNDA:0,_RNvNtNtCsjp9E11WtBq9_13intent_engine3mcp6server17handle_initialize
FNDA:0,_RNvNtNtCsjp9E11WtBq9_13intent_engine3mcp6server17handle_task_start
FNDA:0,_RNvNtNtCsjp9E11WtBq9_13intent_engine3mcp6server17handle_tools_list
FNDA:0,_RNvNtNtCsjp9E11WtBq9_13intent_engine3mcp6server18handle_task_delete
FNDA:0,_RNvNtNtCsjp9E11WtBq9_13intent_engine3mcp6server18handle_task_update
FNDA:0,_RNvNtNtCsjp9E11WtBq9_13intent_engine3mcp6server19handle_notification
FNDA:0,_RNvNtNtCsjp9E11WtBq9_13intent_engine3mcp6server19handle_task_context
FNDA:0,_RNvNtNtCsjp9E11WtBq9_13intent_engine3mcp6server20is_dashboard_running
FNDA:0,_RNvNtNtCsjp9E11WtBq9_13intent_engine3mcp6server21handle_task_pick_next
FNDA:0,_RNvNtNtCsjp9E11WtBq9_13intent_engine3mcp6server21handle_unified_search
FNDA:0,_RNvNtNtCsjp9E11WtBq9_13intent_engine3mcp6server22handle_report_generate
FNDA:0,_RNvNtNtCsjp9E11WtBq9_13intent_engine3mcp6server23handle_current_task_get
FNDA:0,_RNvNtNtCsjp9E11WtBq9_13intent_engine3mcp6server23register_mcp_connection
FNDA:0,_RNvNtNtCsjp9E11WtBq9_13intent_engine3mcp6server25handle_task_spawn_subtask
FNDA:0,_RNvNtNtCsjp9E11WtBq9_13intent_engine3mcp6server25unregister_mcp_connection
FNDA:0,_RNvNtNtCsjp9E11WtBq9_13intent_engine3mcp6server26handle_task_add_dependency
FNDA:0,_RNvNtNtCsjp9E11WtBq9_13intent_engine3mcp6server26start_dashboard_background
FNDA:0,_RNvNtNtCsjp9E11WtBq9_13intent_engine3mcp6server3run
FNDA:0,_RNvNtNtCs86Lp2I5pN1o_13intent_engine3mcp6server3run
FNDA:0,_RNCNCNvNtNtCs86Lp2I5pN1o_13intent_engine3mcp6server11handle_plan00B9_
FNDA:0,_RNCNCNvNtNtCs86Lp2I5pN1o_13intent_engine3mcp6server11handle_plan0s0_0B9_
FNDA:0,_RNCNCNvNtNtCs86Lp2I5pN1o_13intent_engine3mcp6server11handle_plan0s1_0B9_
FNDA:0,_RNCNCNvNtNtCs86Lp2I5pN1o_13intent_engine3mcp6server11handle_plan0s_0B9_
FNDA:1,_RNCNCNvNtNtCs86Lp2I5pN1o_13intent_engine3mcp6server15handle_task_add00B9_
FNDA:0,_RNCNCNvNtNtCs86Lp2I5pN1o_13intent_engine3mcp6server15handle_task_add0s0_0B9_
FNDA:0,_RNCNCNvNtNtCs86Lp2I5pN1o_13intent_engine3mcp6server15handle_task_add0s1_0B9_
FNDA:0,_RNCNCNvNtNtCs86Lp2I5pN1o_13intent_engine3mcp6server15handle_task_add0s2_0B9_
FNDA:1,_RNCNCNvNtNtCs86Lp2I5pN1o_13intent_engine3mcp6server15handle_task_add0s_0B9_
FNDA:2,_RNCNCNvNtNtCs86Lp2I5pN1o_13intent_engine3mcp6server15handle_task_get00B9_
FNDA:0,_RNCNCNvNtNtCs86Lp2I5pN1o_13intent_engine3mcp6server15handle_task_get0s0_0B9_
FNDA:0,_RNCNCNvNtNtCs86Lp2I5pN1o_13intent_engine3mcp6server15handle_task_get0s1_0B9_
FNDA:0,_RNCNCNvNtNtCs86Lp2I5pN1o_13intent_engine3mcp6server15handle_task_get0s2_0B9_
FNDA:0,_RNCNCNvNtNtCs86Lp2I5pN1o_13intent_engine3mcp6server15handle_task_get0s3_0B9_
FNDA:0,_RNCNCNvNtNtCs86Lp2I5pN1o_13intent_engine3mcp6server15handle_task_get0s4_0B9_
FNDA:2,_RNCNCNvNtNtCs86Lp2I5pN1o_13intent_engine3mcp6server15handle_task_get0s_0B9_
FNDA:1,_RNCNCNvNtNtCs86Lp2I5pN1o_13intent_engine3mcp6server16handle_event_add00B9_
FNDA:2,_RNCNCNvNtNtCs86Lp2I5pN1o_13intent_engine3mcp6server16handle_event_add0s0_0B9_
FNDA:0,_RNCNCNvNtNtCs86Lp2I5pN1o_13intent_engine3mcp6server16handle_event_add0s1_0B9_
FNDA:0,_RNCNCNvNtNtCs86Lp2I5pN1o_13intent_engine3mcp6server16handle_event_add0s2_0B9_
FNDA:1,_RNCNCNvNtNtCs86Lp2I5pN1o_13intent_engine3mcp6server16handle_event_add0s3_0B9_
FNDA:0,_RNCNCNvNtNtCs86Lp2I5pN1o_13intent_engine3mcp6server16handle_event_add0s4_0B9_
FNDA:0,_RNCNCNvNtNtCs86Lp2I5pN1o_13intent_engine3mcp6server16handle_event_add0s5_0B9_
FNDA:0,_RNCNCNvNtNtCs86Lp2I5pN1o_13intent_engine3mcp6server16handle_event_add0s6_0B9_
FNDA:3,_RNCNCNvNtNtCs86Lp2I5pN1o_13intent_engine3mcp6server16handle_event_add0s_0B9_
FNDA:1,_RNCNCNvNtNtCs86Lp2I5pN1o_13intent_engine3mcp6server16handle_task_done00B9_
FNDA:0,_RNCNCNvNtNtCs86Lp2I5pN1o_13intent_engine3mcp6server16handle_task_done0s0_0B9_
FNDA:0,_RNCNCNvNtNtCs86Lp2I5pN1o_13intent_engine3mcp6server16handle_task_done0s1_0B9_
FNDA:0,_RNCNCNvNtNtCs86Lp2I5pN1o_13intent_engine3mcp6server16handle_task_done0s2_0B9_
FNDA:0,_RNCNCNvNtNtCs86Lp2I5pN1o_13intent_engine3mcp6server16handle_task_done0s_0B9_
FNDA:1,_RNCNCNvNtNtCs86Lp2I5pN1o_13intent_engine3mcp6server16handle_task_list00B9_
FNDA:1,_RNCNCNvNtNtCs86Lp2I5pN1o_13intent_engine3mcp6server16handle_task_list0s0_0B9_
FNDA:0,_RNCNCNvNtNtCs86Lp2I5pN1o_13intent_engine3mcp6server16handle_task_list0s1_0B9_
FNDA:0,_RNCNCNvNtNtCs86Lp2I5pN1o_13intent_engine3mcp6server16handle_task_list0s2_0B9_
FNDA:0,_RNCNCNvNtNtCs86Lp2I5pN1o_13intent_engine3mcp6server16handle_task_list0s3_0B9_
FNDA:0,_RNCNCNvNtNtCs86Lp2I5pN1o_13intent_engine3mcp6server16handle_task_list0s4_0B9_
FNDA:0,_RNCNCNvNtNtCs86Lp2I5pN1o_13intent_engine3mcp6server16handle_task_list0s5_0B9_
FNDA:0,_RNCNCNvNtNtCs86Lp2I5pN1o_13intent_engine3mcp6server16handle_task_list0s6_0B9_
FNDA:0,_RNCNCNvNtNtCs86Lp2I5pN1o_13intent_engine3mcp6server16handle_task_list0s7_0B9_
FNDA:1,_RNCNCNvNtNtCs86Lp2I5pN1o_13intent_engine3mcp6server16handle_task_list0s_0B9_
FNDA:2,_RNCNCNvNtNtCs86Lp2I5pN1o_13intent_engine3mcp6server16handle_tool_call00B9_
FNDA:0,_RNCNCNvNtNtCs86Lp2I5pN1o_13intent_engine3mcp6server16handle_tool_call0s_0B9_
FNDA:2,_RNCNCNvNtNtCs86Lp2I5pN1o_13intent_engine3mcp6server17handle_event_list00B9_
FNDA:1,_RNCNCNvNtNtCs86Lp2I5pN1o_13intent_engine3mcp6server17handle_event_list0s0_0B9_
FNDA:1,_RNCNCNvNtNtCs86Lp2I5pN1o_13intent_engine3mcp6server17handle_event_list0s1_0B9_
FNDA:0,_RNCNCNvNtNtCs86Lp2I5pN1o_13intent_engine3mcp6server17handle_event_list0s2_0B9_
FNDA:0,_RNCNCNvNtNtCs86Lp2I5pN1o_13intent_engine3mcp6server17handle_event_list0s3_0B9_
FNDA:0,_RNCNCNvNtNtCs86Lp2I5pN1o_13intent_engine3mcp6server17handle_event_list0s4_0B9_
FNDA:0,_RNCNCNvNtNtCs86Lp2I5pN1o_13intent_engine3mcp6server17handle_event_list0s5_0B9_
FNDA:0,_RNCNCNvNtNtCs86Lp2I5pN1o_13intent_engine3mcp6server17handle_event_list0s6_0B9_
FNDA:1,_RNCNCNvNtNtCs86Lp2I5pN1o_13intent_engine3mcp6server17handle_event_list0s_0B9_
FNDA:3,_RNCNCNvNtNtCs86Lp2I5pN1o_13intent_engine3mcp6server17handle_task_start00B9_
FNDA:0,_RNCNCNvNtNtCs86Lp2I5pN1o_13intent_engine3mcp6server17handle_task_start0s0_0B9_
FNDA:1,_RNCNCNvNtNtCs86Lp2I5pN1o_13intent_engine3mcp6server17handle_task_start0s1_0B9_
FNDA:0,_RNCNCNvNtNtCs86Lp2I5pN1o_13intent_engine3mcp6server17handle_task_start0s2_0B9_
FNDA:2,_RNCNCNvNtNtCs86Lp2I5pN1o_13intent_engine3mcp6server17handle_task_start0s_0B9_
FNDA:1,_RNCNCNvNtNtCs86Lp2I5pN1o_13intent_engine3mcp6server18handle_task_delete00B9_
FNDA:0,_RNCNCNvNtNtCs86Lp2I5pN1o_13intent_engine3mcp6server18handle_task_delete0s0_0B9_
FNDA:0,_RNCNCNvNtNtCs86Lp2I5pN1o_13intent_engine3mcp6server18handle_task_delete0s_0B9_
FNDA:3,_RNCNCNvNtNtCs86Lp2I5pN1o_13intent_engine3mcp6server18handle_task_update00B9_
FNDA:1,_RNCNCNvNtNtCs86Lp2I5pN1o_13intent_engine3mcp6server18handle_task_update0s0_0B9_
FNDA:0,_RNCNCNvNtNtCs86Lp2I5pN1o_13intent_engine3mcp6server18handle_task_update0s1_0B9_
FNDA:0,_RNCNCNvNtNtCs86Lp2I5pN1o_13intent_engine3mcp6server18handle_task_update0s2_0B9_
FNDA:0,_RNCNCNvNtNtCs86Lp2I5pN1o_13intent_engine3mcp6server18handle_task_update0s3_0B9_
FNDA:2,_RNCNCNvNtNtCs86Lp2I5pN1o_13intent_engine3mcp6server18handle_task_update0s4_0B9_
FNDA:1,_RNCNCNvNtNtCs86Lp2I5pN1o_13intent_engine3mcp6server18handle_task_update0s5_0B9_
FNDA:0,_RNCNCNvNtNtCs86Lp2I5pN1o_13intent_engine3mcp6server18handle_task_update0s6_0B9_
FNDA:0,_RNCNCNvNtNtCs86Lp2I5pN1o_13intent_engine3mcp6server18handle_task_update0s7_0B9_
FNDA:0,_RNCNCNvNtNtCs86Lp2I5pN1o_13intent_engine3mcp6server18handle_task_update0s8_0B9_
FNDA:0,_RNCNCNvNtNtCs86Lp2I5pN1o_13intent_engine3mcp6server18handle_task_update0s9_0B9_
FNDA:1,_RNCNCNvNtNtCs86Lp2I5pN1o_13intent_engine3mcp6server18handle_task_update0s_0B9_
FNDA:1,_RNCNCNvNtNtCs86Lp2I5pN1o_13intent_engine3mcp6server19handle_task_context00B9_
FNDA:0,_RNCNCNvNtNtCs86Lp2I5pN1o_13intent_engine3mcp6server19handle_task_context0s0_0B9_
FNDA:1,_RNCNCNvNtNtCs86Lp2I5pN1o_13intent_engine3mcp6server19handle_task_context0s1_0B9_
FNDA:0,_RNCNCNvNtNtCs86Lp2I5pN1o_13intent_engine3mcp6server19handle_task_context0s2_0B9_
FNDA:0,_RNCNCNvNtNtCs86Lp2I5pN1o_13intent_engine3mcp6server19handle_task_context0s3_0B9_
FNDA:0,_RNCNCNvNtNtCs86Lp2I5pN1o_13intent_engine3mcp6server19handle_task_context0s4_0B9_
FNDA:0,_RNCNCNvNtNtCs86Lp2I5pN1o_13intent_engine3mcp6server19handle_task_context0s5_0B9_
FNDA:0,_RNCNCNvNtNtCs86Lp2I5pN1o_13intent_engine3mcp6server19handle_task_context0s_0B9_
FNDA:0,_RNCNCNvNtNtCs86Lp2I5pN1o_13intent_engine3mcp6server21handle_task_pick_next00B9_
FNDA:0,_RNCNCNvNtNtCs86Lp2I5pN1o_13intent_engine3mcp6server21handle_task_pick_next0s0_0B9_
FNDA:0,_RNCNCNvNtNtCs86Lp2I5pN1o_13intent_engine3mcp6server21handle_task_pick_next0s1_0B9_
FNDA:0,_RNCNCNvNtNtCs86Lp2I5pN1o_13intent_engine3mcp6server21handle_task_pick_next0s2_0B9_
FNDA:0,_RNCNCNvNtNtCs86Lp2I5pN1o_13intent_engine3mcp6server21handle_task_pick_next0s_0B9_
FNDA:0,_RNCNCNvNtNtCs86Lp2I5pN1o_13intent_engine3mcp6server21handle_unified_search00B9_
FNDA:0,_RNCNCNvNtNtCs86Lp2I5pN1o_13intent_engine3mcp6server21handle_unified_search0s0_0B9_
FNDA:0,_RNCNCNvNtNtCs86Lp2I5pN1o_13intent_engine3mcp6server21handle_unified_search0s1_0B9_
FNDA:0,_RNCNCNvNtNtCs86Lp2I5pN1o_13intent_engine3mcp6server21handle_unified_search0s2_0B9_
FNDA:0,_RNCNCNvNtNtCs86Lp2I5pN1o_13intent_engine3mcp6server21handle_unified_search0s3_0B9_
FNDA:0,_RNCNCNvNtNtCs86Lp2I5pN1o_13intent_engine3mcp6server21handle_unified_search0s4_0B9_
FNDA:0,_RNCNCNvNtNtCs86Lp2I5pN1o_13intent_engine3mcp6server21handle_unified_search0s5_0B9_
FNDA:0,_RNCNCNvNtNtCs86Lp2I5pN1o_13intent_engine3mcp6server21handle_unified_search0s_0B9_
FNDA:1,_RNCNCNvNtNtCs86Lp2I5pN1o_13intent_engine3mcp6server22handle_report_generate00B9_
FNDA:0,_RNCNCNvNtNtCs86Lp2I5pN1o_13intent_engine3mcp6server22handle_report_generate0s0_0B9_
FNDA:0,_RNCNCNvNtNtCs86Lp2I5pN1o_13intent_engine3mcp6server22handle_report_generate0s1_0B9_
FNDA:2,_RNCNCNvNtNtCs86Lp2I5pN1o_13intent_engine3mcp6server22handle_report_generate0s2_0B9_
FNDA:0,_RNCNCNvNtNtCs86Lp2I5pN1o_13intent_engine3mcp6server22handle_report_generate0s3_0B9_
FNDA:0,_RNCNCNvNtNtCs86Lp2I5pN1o_13intent_engine3mcp6server22handle_report_generate0s4_0B9_
FNDA:0,_RNCNCNvNtNtCs86Lp2I5pN1o_13intent_engine3mcp6server22handle_report_generate0s5_0B9_
FNDA:1,_RNCNCNvNtNtCs86Lp2I5pN1o_13intent_engine3mcp6server22handle_report_generate0s_0B9_
FNDA:0,_RNCNCNvNtNtCs86Lp2I5pN1o_13intent_engine3mcp6server23handle_current_task_get00B9_
FNDA:0,_RNCNCNvNtNtCs86Lp2I5pN1o_13intent_engine3mcp6server23handle_current_task_get0s0_0B9_
FNDA:0,_RNCNCNvNtNtCs86Lp2I5pN1o_13intent_engine3mcp6server23handle_current_task_get0s_0B9_
FNDA:1,_RNCNCNvNtNtCs86Lp2I5pN1o_13intent_engine3mcp6server25handle_task_spawn_subtask00B9_
FNDA:0,_RNCNCNvNtNtCs86Lp2I5pN1o_13intent_engine3mcp6server25handle_task_spawn_subtask0s0_0B9_
FNDA:0,_RNCNCNvNtNtCs86Lp2I5pN1o_13intent_engine3mcp6server25handle_task_spawn_subtask0s1_0B9_
FNDA:0,_RNCNCNvNtNtCs86Lp2I5pN1o_13intent_engine3mcp6server25handle_task_spawn_subtask0s2_0B9_
FNDA:1,_RNCNCNvNtNtCs86Lp2I5pN1o_13intent_engine3mcp6server25handle_task_spawn_subtask0s_0B9_
FNDA:1,_RNCNCNvNtNtCs86Lp2I5pN1o_13intent_engine3mcp6server26handle_task_add_dependency00B9_
FNDA:0,_RNCNCNvNtNtCs86Lp2I5pN1o_13intent_engine3mcp6server26handle_task_add_dependency0s0_0B9_
FNDA:0,_RNCNCNvNtNtCs86Lp2I5pN1o_13intent_engine3mcp6server26handle_task_add_dependency0s1_0B9_
FNDA:0,_RNCNCNvNtNtCs86Lp2I5pN1o_13intent_engine3mcp6server26handle_task_add_dependency0s2_0B9_
FNDA:1,_RNCNCNvNtNtCs86Lp2I5pN1o_13intent_engine3mcp6server26handle_task_add_dependency0s_0B9_
FNDA:0,_RNCNCNvNtNtCs86Lp2I5pN1o_13intent_engine3mcp6server26start_dashboard_background00B9_
FNDA:0,_RNCNCNvNtNtCs86Lp2I5pN1o_13intent_engine3mcp6server3run00B9_
FNDA:0,_RNCNCNvNtNtCs86Lp2I5pN1o_13intent_engine3mcp6server3run0s0_0B9_
FNDA:0,_RNCNCNvNtNtCs86Lp2I5pN1o_13intent_engine3mcp6server3run0s1_0B9_
FNDA:0,_RNCNCNvNtNtCs86Lp2I5pN1o_13intent_engine3mcp6server3run0s2_0B9_
FNDA:0,_RNCNCNvNtNtCs86Lp2I5pN1o_13intent_engine3mcp6server3run0s_0B9_
FNDA:0,_RNCNvNtNtCs86Lp2I5pN1o_13intent_engine3mcp6server10run_server0B7_
FNDA:0,_RNCNvNtNtCs86Lp2I5pN1o_13intent_engine3mcp6server11handle_plan0B7_
FNDA:5,_RNCNvNtNtCs86Lp2I5pN1o_13intent_engine3mcp6server14handle_request0B7_
FNDA:8,_RNCNvNtNtCs86Lp2I5pN1o_13intent_engine3mcp6server15handle_task_add0B7_
FNDA:2,_RNCNvNtNtCs86Lp2I5pN1o_13intent_engine3mcp6server15handle_task_get0B7_
FNDA:4,_RNCNvNtNtCs86Lp2I5pN1o_13intent_engine3mcp6server16handle_event_add0B7_
FNDA:2,_RNCNvNtNtCs86Lp2I5pN1o_13intent_engine3mcp6server16handle_task_done0B7_
FNDA:3,_RNCNvNtNtCs86Lp2I5pN1o_13intent_engine3mcp6server16handle_task_list0B7_
FNDA:3,_RNCNvNtNtCs86Lp2I5pN1o_13intent_engine3mcp6server16handle_tool_call0B7_
FNDA:3,_RNCNvNtNtCs86Lp2I5pN1o_13intent_engine3mcp6server17handle_event_list0B7_
FNDA:4,_RNCNvNtNtCs86Lp2I5pN1o_13intent_engine3mcp6server17handle_task_start0B7_
FNDA:0,_RNCNvNtNtCs86Lp2I5pN1o_13intent_engine3mcp6server17handle_tools_list0B7_
FNDA:2,_RNCNvNtNtCs86Lp2I5pN1o_13intent_engine3mcp6server18handle_task_delete0B7_
FNDA:4,_RNCNvNtNtCs86Lp2I5pN1o_13intent_engine3mcp6server18handle_task_update0B7_
FNDA:3,_RNCNvNtNtCs86Lp2I5pN1o_13intent_engine3mcp6server19handle_notification0B7_
FNDA:2,_RNCNvNtNtCs86Lp2I5pN1o_13intent_engine3mcp6server19handle_task_context0B7_
FNDA:0,_RNCNvNtNtCs86Lp2I5pN1o_13intent_engine3mcp6server20is_dashboard_running0B7_
FNDA:1,_RNCNvNtNtCs86Lp2I5pN1o_13intent_engine3mcp6server21handle_task_pick_next0B7_
FNDA:0,_RNCNvNtNtCs86Lp2I5pN1o_13intent_engine3mcp6server21handle_unified_search0B7_
FNDA:2,_RNCNvNtNtCs86Lp2I5pN1o_13intent_engine3mcp6server22handle_report_generate0B7_
FNDA:2,_RNCNvNtNtCs86Lp2I5pN1o_13intent_engine3mcp6server23handle_current_task_get0B7_
FNDA:0,_RNCNvNtNtCs86Lp2I5pN1o_13intent_engine3mcp6server23register_mcp_connection0B7_
FNDA:0,_RNCNvNtNtCs86Lp2I5pN1o_13intent_engine3mcp6server23register_mcp_connections_0B7_
FNDA:2,_RNCNvNtNtCs86Lp2I5pN1o_13intent_engine3mcp6server25handle_task_spawn_subtask0B7_
FNDA:0,_RNCNvNtNtCs86Lp2I5pN1o_13intent_engine3mcp6server25unregister_mcp_connection0B7_
FNDA:2,_RNCNvNtNtCs86Lp2I5pN1o_13intent_engine3mcp6server26handle_task_add_dependency0B7_
FNDA:0,_RNCNvNtNtCs86Lp2I5pN1o_13intent_engine3mcp6server26start_dashboard_background0B7_
FNDA:0,_RNCNvNtNtCs86Lp2I5pN1o_13intent_engine3mcp6server3run0B7_
FNDA:0,_RNvNtNtCs86Lp2I5pN1o_13intent_engine3mcp6server10run_server
FNDA:0,_RNvNtNtCs86Lp2I5pN1o_13intent_engine3mcp6server11handle_plan
FNDA:5,_RNvNtNtCs86Lp2I5pN1o_13intent_engine3mcp6server14handle_request
FNDA:8,_RNvNtNtCs86Lp2I5pN1o_13intent_engine3mcp6server15handle_task_add
FNDA:2,_RNvNtNtCs86Lp2I5pN1o_13intent_engine3mcp6server15handle_task_get
FNDA:4,_RNvNtNtCs86Lp2I5pN1o_13intent_engine3mcp6server16handle_event_add
FNDA:2,_RNvNtNtCs86Lp2I5pN1o_13intent_engine3mcp6server16handle_task_done
FNDA:3,_RNvNtNtCs86Lp2I5pN1o_13intent_engine3mcp6server16handle_task_list
FNDA:3,_RNvNtNtCs86Lp2I5pN1o_13intent_engine3mcp6server16handle_tool_call
FNDA:3,_RNvNtNtCs86Lp2I5pN1o_13intent_engine3mcp6server17handle_event_list
FNDA:2,_RNvNtNtCs86Lp2I5pN1o_13intent_engine3mcp6server17handle_initialize
FNDA:4,_RNvNtNtCs86Lp2I5pN1o_13intent_engine3mcp6server17handle_task_start
FNDA:2,_RNvNtNtCs86Lp2I5pN1o_13intent_engine3mcp6server17handle_tools_list
FNDA:2,_RNvNtNtCs86Lp2I5pN1o_13intent_engine3mcp6server18handle_task_delete
FNDA:4,_RNvNtNtCs86Lp2I5pN1o_13intent_engine3mcp6server18handle_task_update
FNDA:3,_RNvNtNtCs86Lp2I5pN1o_13intent_engine3mcp6server19handle_notification
FNDA:2,_RNvNtNtCs86Lp2I5pN1o_13intent_engine3mcp6server19handle_task_context
FNDA:0,_RNvNtNtCs86Lp2I5pN1o_13intent_engine3mcp6server20is_dashboard_running
FNDA:1,_RNvNtNtCs86Lp2I5pN1o_13intent_engine3mcp6server21handle_task_pick_next
FNDA:0,_RNvNtNtCs86Lp2I5pN1o_13intent_engine3mcp6server21handle_unified_search
FNDA:2,_RNvNtNtCs86Lp2I5pN1o_13intent_engine3mcp6server22handle_report_generate
FNDA:2,_RNvNtNtCs86Lp2I5pN1o_13intent_engine3mcp6server23handle_current_task_get
FNDA:0,_RNvNtNtCs86Lp2I5pN1o_13intent_engine3mcp6server23register_mcp_connection
FNDA:2,_RNvNtNtCs86Lp2I5pN1o_13intent_engine3mcp6server25handle_task_spawn_subtask
FNDA:0,_RNvNtNtCs86Lp2I5pN1o_13intent_engine3mcp6server25unregister_mcp_connection
FNDA:2,_RNvNtNtCs86Lp2I5pN1o_13intent_engine3mcp6server26handle_task_add_dependency
FNDA:0,_RNvNtNtCs86Lp2I5pN1o_13intent_engine3mcp6server26start_dashboard_background
FNF:175
FNH:73
DA:61,0
DA:64,0
DA:65,0
DA:69,0
DA:70,0
DA:71,0
DA:73,0
DA:74,0
DA:75,0
DA:76,0
DA:77,0
DA:84,0
DA:87,0
DA:89,0
DA:90,0
DA:91,0
DA:92,0
DA:94,0
DA:96,0
DA:97,0
DA:99,0
DA:100,0
DA:103,0
DA:104,0
DA:105,0
DA:107,0
DA:112,0
DA:115,0
DA:119,0
DA:120,0
DA:121,0
DA:122,0
DA:123,0
DA:124,0
DA:125,0
DA:126,0
DA:127,0
DA:128,0
DA:130,0
DA:132,0
DA:134,0
DA:135,0
DA:136,0
DA:142,0
DA:145,0
DA:149,0
DA:150,0
DA:152,0
DA:155,0
DA:156,0
DA:157,0
DA:158,0
DA:160,0
DA:161,0
DA:162,0
DA:163,0
DA:165,0
DA:166,0
DA:168,0
DA:169,0
DA:170,0
DA:171,0
DA:172,0
DA:174,0
DA:175,0
DA:176,0
DA:177,0
DA:178,0
DA:179,0
DA:180,0
DA:181,0
DA:182,0
DA:185,0
DA:186,0
DA:187,0
DA:188,0
DA:191,0
DA:192,0
DA:194,3
DA:197,3
DA:198,3
DA:199,2
DA:200,2
DA:201,1
DA:202,1
DA:203,1
DA:205,3
DA:207,5
DA:209,5
DA:210,1
DA:211,1
DA:212,1
DA:213,1
DA:214,1
DA:215,1
DA:216,1
DA:217,1
DA:218,1
DA:219,4
DA:221,4
DA:222,4
DA:223,3
DA:224,2
DA:225,1
DA:226,1
DA:229,4
DA:230,3
DA:231,3
DA:232,3
DA:233,3
DA:234,3
DA:235,3
DA:236,1
DA:237,1
DA:238,1
DA:239,1
DA:240,1
DA:241,1
DA:242,1
DA:243,1
DA:244,1
DA:246,5
DA:248,2
DA:251,2
DA:252,2
DA:253,2
DA:254,2
DA:255,2
DA:256,2
DA:257,2
DA:258,2
DA:259,2
DA:260,2
DA:261,2
DA:262,2
DA:263,2
DA:265,2
DA:266,2
DA:267,2
DA:269,2
DA:270,2
DA:271,2
DA:272,2
DA:274,3
DA:275,3
DA:276,3
DA:278,1
DA:279,1
DA:280,1
DA:281,1
DA:282,1
DA:283,1
DA:284,1
DA:285,1
DA:286,1
DA:287,1
DA:288,1
DA:289,1
DA:290,1
DA:291,1
DA:292,1
DA:293,1
DA:294,1
DA:295,1
DA:296,1
DA:297,1
DA:299,0
DA:300,0
DA:301,0
DA:302,0
DA:303,0
DA:306,3
DA:310,8
DA:312,8
DA:313,1
DA:314,7
DA:315,7
DA:316,1
DA:317,6
DA:318,6
DA:319,5
DA:320,2
DA:322,3
DA:323,1
DA:328,3
DA:329,3
DA:331,3
DA:332,3
DA:333,3
DA:335,3
DA:336,0
DA:337,0
DA:338,0
DA:339,0
DA:342,3
DA:344,3
DA:345,3
DA:346,3
DA:347,3
DA:349,3
DA:350,8
DA:352,2
DA:353,2
DA:354,2
DA:355,2
DA:356,2
DA:358,1
DA:359,1
DA:360,1
DA:361,1
DA:363,1
DA:364,1
DA:365,1
DA:367,1
DA:368,1
DA:369,1
DA:370,1
DA:372,1
DA:373,2
DA:375,4
DA:376,4
DA:377,4
DA:378,4
DA:379,4
DA:381,3
DA:382,3
DA:383,3
DA:384,3
DA:386,3
DA:387,3
DA:388,3
DA:390,3
DA:391,0
DA:392,0
DA:393,0
DA:394,0
DA:397,3
DA:399,3
DA:400,3
DA:401,3
DA:402,3
DA:404,2
DA:405,4
DA:407,1
DA:408,1
DA:409,1
DA:411,1
DA:412,1
DA:413,1
DA:415,1
DA:416,0
DA:417,0
DA:418,0
DA:419,0
DA:422,1
DA:424,1
DA:425,1
DA:426,1
DA:427,1
DA:429,1
DA:430,1
DA:432,2
DA:433,2
DA:434,2
DA:435,2
DA:436,2
DA:438,1
DA:440,1
DA:441,1
DA:442,1
DA:444,1
DA:445,0
DA:446,0
DA:447,0
DA:448,0
DA:451,1
DA:453,1
DA:454,1
DA:455,1
DA:456,1
DA:458,1
DA:459,2
DA:461,2
DA:462,2
DA:464,2
DA:465,2
DA:466,2
DA:468,2
DA:469,0
DA:470,0
DA:471,0
DA:472,0
DA:475,2
DA:479,2
DA:480,1
DA:481,1
DA:482,1
DA:483,1
DA:484,1
DA:485,1
DA:487,2
DA:488,2
DA:489,2
DA:490,2
DA:492,2
DA:493,2
DA:495,4
DA:496,4
DA:497,4
DA:498,4
DA:499,4
DA:501,3
DA:502,3
DA:503,3
DA:504,3
DA:505,3
DA:506,3
DA:507,3
DA:508,3
DA:509,2
DA:510,2
DA:511,2
DA:513,1
DA:515,2
DA:517,2
DA:518,2
DA:519,2
DA:521,2
DA:522,0
DA:523,0
DA:524,0
DA:525,0
DA:528,2
DA:530,2
DA:531,2
DA:532,2
DA:533,2
DA:535,2
DA:536,4
DA:538,3
DA:541,3
DA:542,3
DA:544,3
DA:545,1
DA:546,1
DA:548,0
DA:550,1
DA:553,3
DA:554,3
DA:555,3
DA:556,3
DA:557,0
DA:558,0
DA:559,0
DA:560,0
DA:561,0
DA:562,0
DA:563,0
DA:564,0
DA:565,0
DA:566,3
DA:569,3
DA:570,3
DA:572,3
DA:573,3
DA:574,3
DA:576,3
DA:577,0
DA:578,0
DA:579,0
DA:580,0
DA:583,3
DA:585,3
DA:586,3
DA:587,3
DA:588,3
DA:590,3
DA:591,3
DA:593,2
DA:594,2
DA:595,2
DA:596,2
DA:597,2
DA:599,2
DA:600,2
DA:601,2
DA:602,2
DA:604,2
DA:605,2
DA:606,2
DA:608,2
DA:609,0
DA:610,0
DA:611,0
DA:612,0
DA:615,2
DA:618,2
DA:619,1
DA:620,1
DA:621,1
DA:622,1
DA:623,1
DA:625,1
DA:626,1
DA:627,1
DA:628,1
DA:629,1
DA:631,2
DA:633,2
DA:635,2
DA:636,1
DA:639,1
DA:640,1
DA:641,1
DA:643,1
DA:644,1
DA:645,1
DA:646,1
DA:647,1
DA:649,1
DA:650,1
DA:651,1
DA:652,0
DA:653,0
DA:654,0
DA:655,0
DA:658,2
DA:659,2
DA:660,2
DA:662,2
DA:663,0
DA:664,0
DA:665,0
DA:666,0
DA:669,2
DA:671,2
DA:672,2
DA:673,2
DA:674,2
DA:676,2
DA:677,2
DA:679,2
DA:680,2
DA:681,2
DA:682,2
DA:683,2
DA:685,1
DA:686,1
DA:687,1
DA:689,1
DA:690,0
DA:691,0
DA:692,0
DA:693,0
DA:696,1
DA:698,1
DA:699,1
DA:700,1
DA:701,1
DA:703,1
DA:704,2
DA:706,4
DA:707,4
DA:709,4
DA:710,4
DA:711,4
DA:712,4
DA:714,3
DA:715,3
DA:716,3
DA:717,3
DA:719,2
DA:720,2
DA:721,2
DA:724,2
DA:725,1
DA:728,1
DA:729,1
DA:730,1
DA:731,1
DA:732,1
DA:734,1
DA:735,1
DA:736,1
DA:737,0
DA:738,0
DA:739,0
DA:740,0
DA:744,2
DA:745,0
DA:746,0
DA:747,0
DA:748,0
DA:751,2
DA:753,2
DA:754,2
DA:755,2
DA:756,2
DA:758,2
DA:759,4
DA:761,3
DA:762,3
DA:764,3
DA:765,3
DA:766,3
DA:767,3
DA:768,3
DA:769,3
DA:770,3
DA:771,3
DA:772,3
DA:774,3
DA:775,3
DA:776,3
DA:778,3
DA:779,3
DA:780,3
DA:781,3
DA:782,3
DA:784,3
DA:785,3
DA:787,0
DA:790,0
DA:791,0
DA:792,0
DA:793,0
DA:795,0
DA:796,0
DA:797,0
DA:798,0
DA:800,0
DA:801,0
DA:802,0
DA:803,0
DA:805,0
DA:807,0
DA:809,0
DA:810,0
DA:811,0
DA:813,0
DA:814,0
DA:815,0
DA:816,0
DA:817,0
DA:819,0
DA:820,0
DA:822,2
DA:823,2
DA:824,2
DA:825,2
DA:827,2
DA:828,2
DA:829,2
DA:830,2
DA:831,2
DA:833,2
DA:834,2
DA:836,2
DA:837,2
DA:838,2
DA:839,2
DA:840,2
DA:841,2
DA:842,2
DA:843,2
DA:844,2
DA:845,2
DA:846,2
DA:847,2
DA:848,2
DA:849,2
DA:850,2
DA:851,2
DA:852,2
DA:853,2
DA:855,2
DA:856,2
DA:857,2
DA:859,2
DA:860,2
DA:861,2
DA:862,2
DA:863,2
DA:865,2
DA:866,2
DA:868,0
DA:870,0
DA:871,0
DA:873,0
DA:874,0
DA:875,0
DA:877,0
DA:878,0
DA:879,0
DA:880,0
DA:881,0
DA:883,0
DA:884,0
DA:892,0
DA:894,0
DA:895,0
DA:896,0
DA:901,0
DA:902,0
DA:903,0
DA:904,0
DA:905,0
DA:906,0
DA:907,0
DA:909,0
DA:910,0
DA:914,0
DA:916,0
DA:917,0
DA:921,0
DA:923,0
DA:924,0
DA:925,0
DA:929,0
DA:931,0
DA:932,0
DA:935,0
DA:937,0
DA:938,0
DA:939,0
DA:941,0
DA:943,0
DA:944,0
DA:947,0
DA:950,0
DA:953,0
DA:957,0
DA:961,0
DA:962,0
DA:963,0
DA:964,0
DA:965,0
DA:966,0
DA:967,0
DA:968,0
DA:971,0
DA:972,0
DA:973,0
DA:976,0
DA:977,0
DA:978,0
DA:979,0
DA:980,0
DA:983,0
DA:984,0
DA:985,0
DA:986,0
BRF:0
BRH:0
LF:801
LH:468
end_of_record
SF:/mnt/d/prj/intent-engine/src/mcp/server_tests.rs
FN:65,_RNvNtNtNtNtCs86Lp2I5pN1o_13intent_engine3mcp6server5tests14json_rpc_testss_34test_json_rpc_request_notification
FN:56,_RNvNtNtNtNtCs86Lp2I5pN1o_13intent_engine3mcp6server5tests14json_rpc_testss_36test_json_rpc_request_without_params
FN:74,_RNvNtNtNtNtCs86Lp2I5pN1o_13intent_engine3mcp6server5tests14json_rpc_testss_36test_json_rpc_response_serialization
FN:46,_RNvNtNtNtNtCs86Lp2I5pN1o_13intent_engine3mcp6server5tests14json_rpc_testss_37test_json_rpc_request_deserialization
FN:107,_RNvNtNtNtNtCs86Lp2I5pN1o_13intent_engine3mcp6server5tests14json_rpc_testss_37test_tool_call_params_deserialization
FN:89,_RNvNtNtNtNtCs86Lp2I5pN1o_13intent_engine3mcp6server5tests14json_rpc_testss_42test_json_rpc_error_response_serialization
FN:1057,_RNvNtNtNtNtCs86Lp2I5pN1o_13intent_engine3mcp6server5tests15edge_case_testss_34test_handle_tool_call_empty_params
FN:1039,_RNvNtNtNtNtCs86Lp2I5pN1o_13intent_engine3mcp6server5tests15edge_case_testss_34test_handle_tool_call_unknown_tool
FN:1051,_RNvNtNtNtNtCs86Lp2I5pN1o_13intent_engine3mcp6server5tests15edge_case_testss_36test_handle_tool_call_invalid_params
FN:124,_RNvNtNtNtNtCs86Lp2I5pN1o_13intent_engine3mcp6server5tests13handler_testss_22test_handle_initialize
FN:138,_RNvNtNtNtNtCs86Lp2I5pN1o_13intent_engine3mcp6server5tests13handler_testss_22test_handle_tools_list
FN:180,_RNvNtNtNtNtCs86Lp2I5pN1o_13intent_engine3mcp6server5tests13handler_testss_30test_handle_task_add_null_name
FN:193,_RNvNtNtNtNtCs86Lp2I5pN1o_13intent_engine3mcp6server5tests13handler_testss_31test_handle_task_add_empty_name
FN:168,_RNvNtNtNtNtCs86Lp2I5pN1o_13intent_engine3mcp6server5tests13handler_testss_33test_handle_task_add_missing_name
FN:655,_RNvNtNtNtNtCs86Lp2I5pN1o_13intent_engine3mcp6server5tests13handler_testss_34test_handle_event_add_missing_data
FN:219,_RNvNtNtNtNtCs86Lp2I5pN1o_13intent_engine3mcp6server5tests13handler_testss_36test_handle_task_add_wrong_type_name
FN:277,_RNvNtNtNtNtCs86Lp2I5pN1o_13intent_engine3mcp6server5tests13handler_testss_38test_handle_task_start_missing_task_id
FN:537,_RNvNtNtNtNtCs86Lp2I5pN1o_13intent_engine3mcp6server5tests13handler_testss_39test_handle_task_delete_missing_task_id
FN:465,_RNvNtNtNtNtCs86Lp2I5pN1o_13intent_engine3mcp6server5tests13handler_testss_39test_handle_task_update_missing_task_id
FN:644,_RNvNtNtNtNtCs86Lp2I5pN1o_13intent_engine3mcp6server5tests13handler_testss_40test_handle_event_add_missing_event_type
FN:206,_RNvNtNtNtNtCs86Lp2I5pN1o_13intent_engine3mcp6server5tests13handler_testss_41test_handle_task_add_whitespace_only_name
FN:572,_RNvNtNtNtNtCs86Lp2I5pN1o_13intent_engine3mcp6server5tests13handler_testss_43test_handle_task_spawn_subtask_missing_name
FN:906,_RNvNtNtNtNtCs86Lp2I5pN1o_13intent_engine3mcp6server5tests13handler_testss_46test_handle_task_add_dependency_missing_params
FN:1064,_RNCNCNvNtNtNtNtCs86Lp2I5pN1o_13intent_engine3mcp6server5tests15edge_case_testss_33test_handle_task_list_parent_null00Bd_
FN:1094,_RNCNCNvNtNtNtNtCs86Lp2I5pN1o_13intent_engine3mcp6server5tests15edge_case_testss_42test_handle_task_start_default_with_events00Bd_
FN:1064,_RNCNvNtNtNtNtCs86Lp2I5pN1o_13intent_engine3mcp6server5tests15edge_case_testss_33test_handle_task_list_parent_null0Bb_
FN:1057,_RNCNvNtNtNtNtCs86Lp2I5pN1o_13intent_engine3mcp6server5tests15edge_case_testss_34test_handle_tool_call_empty_params0Bb_
FN:1039,_RNCNvNtNtNtNtCs86Lp2I5pN1o_13intent_engine3mcp6server5tests15edge_case_testss_34test_handle_tool_call_unknown_tool0Bb_
FN:1051,_RNCNvNtNtNtNtCs86Lp2I5pN1o_13intent_engine3mcp6server5tests15edge_case_testss_36test_handle_tool_call_invalid_params0Bb_
FN:1094,_RNCNvNtNtNtNtCs86Lp2I5pN1o_13intent_engine3mcp6server5tests15edge_case_testss_42test_handle_task_start_default_with_events0Bb_
FN:937,_RNvNtNtNtNtCs86Lp2I5pN1o_13intent_engine3mcp6server5tests22request_handling_testss_24test_handle_request_ping
FN:922,_RNvNtNtNtNtCs86Lp2I5pN1o_13intent_engine3mcp6server5tests22request_handling_testss_30test_handle_request_initialize
FN:951,_RNvNtNtNtNtCs86Lp2I5pN1o_13intent_engine3mcp6server5tests22request_handling_testss_30test_handle_request_tools_list
FN:1021,_RNvNtNtNtNtCs86Lp2I5pN1o_13intent_engine3mcp6server5tests22request_handling_testss_32test_handle_notification_unknown
FN:1008,_RNvNtNtNtNtCs86Lp2I5pN1o_13intent_engine3mcp6server5tests22request_handling_testss_34test_handle_notification_cancelled
FN:995,_RNvNtNtNtNtCs86Lp2I5pN1o_13intent_engine3mcp6server5tests22request_handling_testss_36test_handle_notification_initialized
FN:979,_RNvNtNtNtNtCs86Lp2I5pN1o_13intent_engine3mcp6server5tests22request_handling_testss_36test_handle_request_method_not_found
FN:965,_RNvNtNtNtNtCs86Lp2I5pN1o_13intent_engine3mcp6server5tests22request_handling_testss_43test_handle_request_invalid_jsonrpc_version
FN:937,_RNCNvNtNtNtNtCs86Lp2I5pN1o_13intent_engine3mcp6server5tests22request_handling_testss_24test_handle_request_ping0Bb_
FN:922,_RNCNvNtNtNtNtCs86Lp2I5pN1o_13intent_engine3mcp6server5tests22request_handling_testss_30test_handle_request_initialize0Bb_
FN:951,_RNCNvNtNtNtNtCs86Lp2I5pN1o_13intent_engine3mcp6server5tests22request_handling_testss_30test_handle_request_tools_list0Bb_
FN:1021,_RNCNvNtNtNtNtCs86Lp2I5pN1o_13intent_engine3mcp6server5tests22request_handling_testss_32test_handle_notification_unknown0Bb_
FN:1008,_RNCNvNtNtNtNtCs86Lp2I5pN1o_13intent_engine3mcp6server5tests22request_handling_testss_34test_handle_notification_cancelled0Bb_
FN:995,_RNCNvNtNtNtNtCs86Lp2I5pN1o_13intent_engine3mcp6server5tests22request_handling_testss_36test_handle_notification_initialized0Bb_
FN:979,_RNCNvNtNtNtNtCs86Lp2I5pN1o_13intent_engine3mcp6server5tests22request_handling_testss_36test_handle_request_method_not_found0Bb_
FN:965,_RNCNvNtNtNtNtCs86Lp2I5pN1o_13intent_engine3mcp6server5tests22request_handling_testss_43test_handle_request_invalid_jsonrpc_version0Bb_
FN:32,_RNCNvNtNtNtCs86Lp2I5pN1o_13intent_engine3mcp6server5tests14setup_test_env0B9_
FN:18,_RNvMNtNtNtCs86Lp2I5pN1o_13intent_engine3mcp6server5testsNtB2_15WorkingDirGuard3new
FN:32,_RNvNtNtNtCs86Lp2I5pN1o_13intent_engine3mcp6server5tests14setup_test_env
FN:26,_RNvXs_NtNtNtCs86Lp2I5pN1o_13intent_engine3mcp6server5testsNtB4_15WorkingDirGuardNtNtNtCs4Vq2ZLagKfv_4core3ops4drop4Drop4drop
FN:346,_RNCNCNvNtNtNtNtCs86Lp2I5pN1o_13intent_engine3mcp6server5tests13handler_testss_25test_handle_task_list_all00Bd_
FN:151,_RNCNCNvNtNtNtNtCs86Lp2I5pN1o_13intent_engine3mcp6server5tests13handler_testss_28test_handle_task_add_success00Bd_
FN:389,_RNCNCNvNtNtNtNtCs86Lp2I5pN1o_13intent_engine3mcp6server5tests13handler_testss_28test_handle_task_get_success00Bd_
FN:602,_RNCNCNvNtNtNtNtCs86Lp2I5pN1o_13intent_engine3mcp6server5tests13handler_testss_29test_handle_event_add_success00Bd_
FN:732,_RNCNCNvNtNtNtNtCs86Lp2I5pN1o_13intent_engine3mcp6server5tests13handler_testss_29test_handle_event_list_global00Bd_
FN:303,_RNCNCNvNtNtNtNtCs86Lp2I5pN1o_13intent_engine3mcp6server5tests13handler_testss_29test_handle_task_done_success00Bd_
FN:667,_RNCNCNvNtNtNtNtCs86Lp2I5pN1o_13intent_engine3mcp6server5tests13handler_testss_30test_handle_event_list_success00Bd_
FN:256,_RNCNCNvNtNtNtNtCs86Lp2I5pN1o_13intent_engine3mcp6server5tests13handler_testss_30test_handle_task_start_success00Bd_
FN:515,_RNCNCNvNtNtNtNtCs86Lp2I5pN1o_13intent_engine3mcp6server5tests13handler_testss_31test_handle_task_delete_success00Bd_
FN:365,_RNCNCNvNtNtNtNtCs86Lp2I5pN1o_13intent_engine3mcp6server5tests13handler_testss_31test_handle_task_list_by_status00Bd_
FN:441,_RNCNCNvNtNtNtNtCs86Lp2I5pN1o_13intent_engine3mcp6server5tests13handler_testss_31test_handle_task_update_success00Bd_
FN:233,_RNCNCNvNtNtNtNtCs86Lp2I5pN1o_13intent_engine3mcp6server5tests13handler_testss_32test_handle_task_add_with_parent00Bd_
FN:829,_RNCNCNvNtNtNtNtCs86Lp2I5pN1o_13intent_engine3mcp6server5tests13handler_testss_32test_handle_task_context_success00Bd_
FN:413,_RNCNCNvNtNtNtNtCs86Lp2I5pN1o_13intent_engine3mcp6server5tests13handler_testss_32test_handle_task_get_with_events00Bd_
FN:477,_RNCNCNvNtNtNtNtCs86Lp2I5pN1o_13intent_engine3mcp6server5tests13handler_testss_32test_handle_task_update_priority00Bd_
FN:624,_RNCNCNvNtNtNtNtCs86Lp2I5pN1o_13intent_engine3mcp6server5tests13handler_testss_34test_handle_event_add_with_task_id00Bd_
FN:328,_RNCNCNvNtNtNtNtCs86Lp2I5pN1o_13intent_engine3mcp6server5tests13handler_testss_34test_handle_task_done_with_task_id00Bd_
FN:584,_RNCNCNvNtNtNtNtCs86Lp2I5pN1o_13intent_engine3mcp6server5tests13handler_testss_34test_handle_task_pick_next_success00Bd_
FN:698,_RNCNCNvNtNtNtNtCs86Lp2I5pN1o_13intent_engine3mcp6server5tests13handler_testss_35test_handle_event_list_with_filters00Bd_
FN:794,_RNCNCNvNtNtNtNtCs86Lp2I5pN1o_13intent_engine3mcp6server5tests13handler_testss_35test_handle_report_generate_success00Bd_
FN:546,_RNCNCNvNtNtNtNtCs86Lp2I5pN1o_13intent_engine3mcp6server5tests13handler_testss_38test_handle_task_spawn_subtask_success00Bd_
FN:761,_RNCNCNvNtNtNtNtCs86Lp2I5pN1o_13intent_engine3mcp6server5tests13handler_testss_39test_handle_current_task_get_no_current00Bd_
FN:875,_RNCNCNvNtNtNtNtCs86Lp2I5pN1o_13intent_engine3mcp6server5tests13handler_testss_39test_handle_task_add_dependency_success00Bd_
FN:289,_RNCNCNvNtNtNtNtCs86Lp2I5pN1o_13intent_engine3mcp6server5tests13handler_testss_39test_handle_task_start_nonexistent_task00Bd_
FN:814,_RNCNCNvNtNtNtNtCs86Lp2I5pN1o_13intent_engine3mcp6server5tests13handler_testss_40test_handle_report_generate_with_filters00Bd_
FN:497,_RNCNCNvNtNtNtNtCs86Lp2I5pN1o_13intent_engine3mcp6server5tests13handler_testss_40test_handle_task_update_invalid_priority00Bd_
FN:774,_RNCNCNvNtNtNtNtCs86Lp2I5pN1o_13intent_engine3mcp6server5tests13handler_testss_41test_handle_current_task_get_with_current00Bd_
FN:848,_RNCNCNvNtNtNtNtCs86Lp2I5pN1o_13intent_engine3mcp6server5tests13handler_testss_42test_handle_task_context_uses_current_task00Bd_
FN:124,_RNCNvNtNtNtNtCs86Lp2I5pN1o_13intent_engine3mcp6server5tests13handler_testss_22test_handle_initialize0Bb_
FN:138,_RNCNvNtNtNtNtCs86Lp2I5pN1o_13intent_engine3mcp6server5tests13handler_testss_22test_handle_tools_list0Bb_
FN:346,_RNCNvNtNtNtNtCs86Lp2I5pN1o_13intent_engine3mcp6server5tests13handler_testss_25test_handle_task_list_all0Bb_
FN:151,_RNCNvNtNtNtNtCs86Lp2I5pN1o_13intent_engine3mcp6server5tests13handler_testss_28test_handle_task_add_success0Bb_
FN:389,_RNCNvNtNtNtNtCs86Lp2I5pN1o_13intent_engine3mcp6server5tests13handler_testss_28test_handle_task_get_success0Bb_
FN:602,_RNCNvNtNtNtNtCs86Lp2I5pN1o_13intent_engine3mcp6server5tests13handler_testss_29test_handle_event_add_success0Bb_
FN:732,_RNCNvNtNtNtNtCs86Lp2I5pN1o_13intent_engine3mcp6server5tests13handler_testss_29test_handle_event_list_global0Bb_
FN:303,_RNCNvNtNtNtNtCs86Lp2I5pN1o_13intent_engine3mcp6server5tests13handler_testss_29test_handle_task_done_success0Bb_
FN:667,_RNCNvNtNtNtNtCs86Lp2I5pN1o_13intent_engine3mcp6server5tests13handler_testss_30test_handle_event_list_success0Bb_
FN:180,_RNCNvNtNtNtNtCs86Lp2I5pN1o_13intent_engine3mcp6server5tests13handler_testss_30test_handle_task_add_null_name0Bb_
FN:256,_RNCNvNtNtNtNtCs86Lp2I5pN1o_13intent_engine3mcp6server5tests13handler_testss_30test_handle_task_start_success0Bb_
FN:193,_RNCNvNtNtNtNtCs86Lp2I5pN1o_13intent_engine3mcp6server5tests13handler_testss_31test_handle_task_add_empty_name0Bb_
FN:515,_RNCNvNtNtNtNtCs86Lp2I5pN1o_13intent_engine3mcp6server5tests13handler_testss_31test_handle_task_delete_success0Bb_
FN:365,_RNCNvNtNtNtNtCs86Lp2I5pN1o_13intent_engine3mcp6server5tests13handler_testss_31test_handle_task_list_by_status0Bb_
FN:441,_RNCNvNtNtNtNtCs86Lp2I5pN1o_13intent_engine3mcp6server5tests13handler_testss_31test_handle_task_update_success0Bb_
FN:233,_RNCNvNtNtNtNtCs86Lp2I5pN1o_13intent_engine3mcp6server5tests13handler_testss_32test_handle_task_add_with_parent0Bb_
FN:829,_RNCNvNtNtNtNtCs86Lp2I5pN1o_13intent_engine3mcp6server5tests13handler_testss_32test_handle_task_context_success0Bb_
FN:413,_RNCNvNtNtNtNtCs86Lp2I5pN1o_13intent_engine3mcp6server5tests13handler_testss_32test_handle_task_get_with_events0Bb_
FN:477,_RNCNvNtNtNtNtCs86Lp2I5pN1o_13intent_engine3mcp6server5tests13handler_testss_32test_handle_task_update_priority0Bb_
FN:168,_RNCNvNtNtNtNtCs86Lp2I5pN1o_13intent_engine3mcp6server5tests13handler_testss_33test_handle_task_add_missing_name0Bb_
FN:655,_RNCNvNtNtNtNtCs86Lp2I5pN1o_13intent_engine3mcp6server5tests13handler_testss_34test_handle_event_add_missing_data0Bb_
FN:624,_RNCNvNtNtNtNtCs86Lp2I5pN1o_13intent_engine3mcp6server5tests13handler_testss_34test_handle_event_add_with_task_id0Bb_
FN:328,_RNCNvNtNtNtNtCs86Lp2I5pN1o_13intent_engine3mcp6server5tests13handler_testss_34test_handle_task_done_with_task_id0Bb_
FN:584,_RNCNvNtNtNtNtCs86Lp2I5pN1o_13intent_engine3mcp6server5tests13handler_testss_34test_handle_task_pick_next_success0Bb_
FN:698,_RNCNvNtNtNtNtCs86Lp2I5pN1o_13intent_engine3mcp6server5tests13handler_testss_35test_handle_event_list_with_filters0Bb_
FN:794,_RNCNvNtNtNtNtCs86Lp2I5pN1o_13intent_engine3mcp6server5tests13handler_testss_35test_handle_report_generate_success0Bb_
FN:219,_RNCNvNtNtNtNtCs86Lp2I5pN1o_13intent_engine3mcp6server5tests13handler_testss_36test_handle_task_add_wrong_type_name0Bb_
FN:546,_RNCNvNtNtNtNtCs86Lp2I5pN1o_13intent_engine3mcp6server5tests13handler_testss_38test_handle_task_spawn_subtask_success0Bb_
FN:277,_RNCNvNtNtNtNtCs86Lp2I5pN1o_13intent_engine3mcp6server5tests13handler_testss_38test_handle_task_start_missing_task_id0Bb_
FN:761,_RNCNvNtNtNtNtCs86Lp2I5pN1o_13intent_engine3mcp6server5tests13handler_testss_39test_handle_current_task_get_no_current0Bb_
FN:875,_RNCNvNtNtNtNtCs86Lp2I5pN1o_13intent_engine3mcp6server5tests13handler_testss_39test_handle_task_add_dependency_success0Bb_
FN:537,_RNCNvNtNtNtNtCs86Lp2I5pN1o_13intent_engine3mcp6server5tests13handler_testss_39test_handle_task_delete_missing_task_id0Bb_
FN:289,_RNCNvNtNtNtNtCs86Lp2I5pN1o_13intent_engine3mcp6server5tests13handler_testss_39test_handle_task_start_nonexistent_task0Bb_
FN:465,_RNCNvNtNtNtNtCs86Lp2I5pN1o_13intent_engine3mcp6server5tests13handler_testss_39test_handle_task_update_missing_task_id0Bb_
FN:644,_RNCNvNtNtNtNtCs86Lp2I5pN1o_13intent_engine3mcp6server5tests13handler_testss_40test_handle_event_add_missing_event_type0Bb_
FN:814,_RNCNvNtNtNtNtCs86Lp2I5pN1o_13intent_engine3mcp6server5tests13handler_testss_40test_handle_report_generate_with_filters0Bb_
FN:497,_RNCNvNtNtNtNtCs86Lp2I5pN1o_13intent_engine3mcp6server5tests13handler_testss_40test_handle_task_update_invalid_priority0Bb_
FN:774,_RNCNvNtNtNtNtCs86Lp2I5pN1o_13intent_engine3mcp6server5tests13handler_testss_41test_handle_current_task_get_with_current0Bb_
FN:206,_RNCNvNtNtNtNtCs86Lp2I5pN1o_13intent_engine3mcp6server5tests13handler_testss_41test_handle_task_add_whitespace_only_name0Bb_
FN:848,_RNCNvNtNtNtNtCs86Lp2I5pN1o_13intent_engine3mcp6server5tests13handler_testss_42test_handle_task_context_uses_current_task0Bb_
FN:572,_RNCNvNtNtNtNtCs86Lp2I5pN1o_13intent_engine3mcp6server5tests13handler_testss_43test_handle_task_spawn_subtask_missing_name0Bb_
FN:906,_RNCNvNtNtNtNtCs86Lp2I5pN1o_13intent_engine3mcp6server5tests13handler_testss_46test_handle_task_add_dependency_missing_params0Bb_
FNDA:1,_RNvNtNtNtNtCs86Lp2I5pN1o_13intent_engine3mcp6server5tests14json_rpc_testss_34test_json_rpc_request_notification
FNDA:1,_RNvNtNtNtNtCs86Lp2I5pN1o_13intent_engine3mcp6server5tests14json_rpc_testss_36test_json_rpc_request_without_params
FNDA:1,_RNvNtNtNtNtCs86Lp2I5pN1o_13intent_engine3mcp6server5tests14json_rpc_testss_36test_json_rpc_response_serialization
FNDA:1,_RNvNtNtNtNtCs86Lp2I5pN1o_13intent_engine3mcp6server5tests14json_rpc_testss_37test_json_rpc_request_deserialization
FNDA:1,_RNvNtNtNtNtCs86Lp2I5pN1o_13intent_engine3mcp6server5tests14json_rpc_testss_37test_tool_call_params_deserialization
FNDA:1,_RNvNtNtNtNtCs86Lp2I5pN1o_13intent_engine3mcp6server5tests14json_rpc_testss_42test_json_rpc_error_response_serialization
FNDA:1,_RNvNtNtNtNtCs86Lp2I5pN1o_13intent_engine3mcp6server5tests15edge_case_testss_34test_handle_tool_call_empty_params
FNDA:1,_RNvNtNtNtNtCs86Lp2I5pN1o_13intent_engine3mcp6server5tests15edge_case_testss_34test_handle_tool_call_unknown_tool
FNDA:1,_RNvNtNtNtNtCs86Lp2I5pN1o_13intent_engine3mcp6server5tests15edge_case_testss_36test_handle_tool_call_invalid_params
FNDA:1,_RNvNtNtNtNtCs86Lp2I5pN1o_13intent_engine3mcp6server5tests13handler_testss_22test_handle_initialize
FNDA:1,_RNvNtNtNtNtCs86Lp2I5pN1o_13intent_engine3mcp6server5tests13handler_testss_22test_handle_tools_list
FNDA:1,_RNvNtNtNtNtCs86Lp2I5pN1o_13intent_engine3mcp6server5tests13handler_testss_30test_handle_task_add_null_name
FNDA:1,_RNvNtNtNtNtCs86Lp2I5pN1o_13intent_engine3mcp6server5tests13handler_testss_31test_handle_task_add_empty_name
FNDA:1,_RNvNtNtNtNtCs86Lp2I5pN1o_13intent_engine3mcp6server5tests13handler_testss_33test_handle_task_add_missing_name
FNDA:1,_RNvNtNtNtNtCs86Lp2I5pN1o_13intent_engine3mcp6server5tests13handler_testss_34test_handle_event_add_missing_data
FNDA:1,_RNvNtNtNtNtCs86Lp2I5pN1o_13intent_engine3mcp6server5tests13handler_testss_36test_handle_task_add_wrong_type_name
FNDA:1,_RNvNtNtNtNtCs86Lp2I5pN1o_13intent_engine3mcp6server5tests13handler_testss_38test_handle_task_start_missing_task_id
FNDA:1,_RNvNtNtNtNtCs86Lp2I5pN1o_13intent_engine3mcp6server5tests13handler_testss_39test_handle_task_delete_missing_task_id
FNDA:1,_RNvNtNtNtNtCs86Lp2I5pN1o_13intent_engine3mcp6server5tests13handler_testss_39test_handle_task_update_missing_task_id
FNDA:1,_RNvNtNtNtNtCs86Lp2I5pN1o_13intent_engine3mcp6server5tests13handler_testss_40test_handle_event_add_missing_event_type
FNDA:1,_RNvNtNtNtNtCs86Lp2I5pN1o_13intent_engine3mcp6server5tests13handler_testss_41test_handle_task_add_whitespace_only_name
FNDA:1,_RNvNtNtNtNtCs86Lp2I5pN1o_13intent_engine3mcp6server5tests13handler_testss_43test_handle_task_spawn_subtask_missing_name
FNDA:1,_RNvNtNtNtNtCs86Lp2I5pN1o_13intent_engine3mcp6server5tests13handler_testss_46test_handle_task_add_dependency_missing_params
FNDA:1,_RNCNCNvNtNtNtNtCs86Lp2I5pN1o_13intent_engine3mcp6server5tests15edge_case_testss_33test_handle_task_list_parent_null00Bd_
FNDA:1,_RNCNCNvNtNtNtNtCs86Lp2I5pN1o_13intent_engine3mcp6server5tests15edge_case_testss_42test_handle_task_start_default_with_events00Bd_
FNDA:1,_RNCNvNtNtNtNtCs86Lp2I5pN1o_13intent_engine3mcp6server5tests15edge_case_testss_33test_handle_task_list_parent_null0Bb_
FNDA:1,_RNCNvNtNtNtNtCs86Lp2I5pN1o_13intent_engine3mcp6server5tests15edge_case_testss_34test_handle_tool_call_empty_params0Bb_
FNDA:1,_RNCNvNtNtNtNtCs86Lp2I5pN1o_13intent_engine3mcp6server5tests15edge_case_testss_34test_handle_tool_call_unknown_tool0Bb_
FNDA:1,_RNCNvNtNtNtNtCs86Lp2I5pN1o_13intent_engine3mcp6server5tests15edge_case_testss_36test_handle_tool_call_invalid_params0Bb_
FNDA:1,_RNCNvNtNtNtNtCs86Lp2I5pN1o_13intent_engine3mcp6server5tests15edge_case_testss_42test_handle_task_start_default_with_events0Bb_
FNDA:1,_RNvNtNtNtNtCs86Lp2I5pN1o_13intent_engine3mcp6server5tests22request_handling_testss_24test_handle_request_ping
FNDA:1,_RNvNtNtNtNtCs86Lp2I5pN1o_13intent_engine3mcp6server5tests22request_handling_testss_30test_handle_request_initialize
FNDA:1,_RNvNtNtNtNtCs86Lp2I5pN1o_13intent_engine3mcp6server5tests22request_handling_testss_30test_handle_request_tools_list
FNDA:1,_RNvNtNtNtNtCs86Lp2I5pN1o_13intent_engine3mcp6server5tests22request_handling_testss_32test_handle_notification_unknown
FNDA:1,_RNvNtNtNtNtCs86Lp2I5pN1o_13intent_engine3mcp6server5tests22request_handling_testss_34test_handle_notification_cancelled
FNDA:1,_RNvNtNtNtNtCs86Lp2I5pN1o_13intent_engine3mcp6server5tests22request_handling_testss_36test_handle_notification_initialized
FNDA:1,_RNvNtNtNtNtCs86Lp2I5pN1o_13intent_engine3mcp6server5tests22request_handling_testss_36test_handle_request_method_not_found
FNDA:1,_RNvNtNtNtNtCs86Lp2I5pN1o_13intent_engine3mcp6server5tests22request_handling_testss_43test_handle_request_invalid_jsonrpc_version
FNDA:1,_RNCNvNtNtNtNtCs86Lp2I5pN1o_13intent_engine3mcp6server5tests22request_handling_testss_24test_handle_request_ping0Bb_
FNDA:1,_RNCNvNtNtNtNtCs86Lp2I5pN1o_13intent_engine3mcp6server5tests22request_handling_testss_30test_handle_request_initialize0Bb_
FNDA:1,_RNCNvNtNtNtNtCs86Lp2I5pN1o_13intent_engine3mcp6server5tests22request_handling_testss_30test_handle_request_tools_list0Bb_
FNDA:1,_RNCNvNtNtNtNtCs86Lp2I5pN1o_13intent_engine3mcp6server5tests22request_handling_testss_32test_handle_notification_unknown0Bb_
FNDA:1,_RNCNvNtNtNtNtCs86Lp2I5pN1o_13intent_engine3mcp6server5tests22request_handling_testss_34test_handle_notification_cancelled0Bb_
FNDA:1,_RNCNvNtNtNtNtCs86Lp2I5pN1o_13intent_engine3mcp6server5tests22request_handling_testss_36test_handle_notification_initialized0Bb_
FNDA:1,_RNCNvNtNtNtNtCs86Lp2I5pN1o_13intent_engine3mcp6server5tests22request_handling_testss_36test_handle_request_method_not_found0Bb_
FNDA:1,_RNCNvNtNtNtNtCs86Lp2I5pN1o_13intent_engine3mcp6server5tests22request_handling_testss_43test_handle_request_invalid_jsonrpc_version0Bb_
FNDA:30,_RNCNvNtNtNtCs86Lp2I5pN1o_13intent_engine3mcp6server5tests14setup_test_env0B9_
FNDA:30,_RNvMNtNtNtCs86Lp2I5pN1o_13intent_engine3mcp6server5testsNtB2_15WorkingDirGuard3new
FNDA:30,_RNvNtNtNtCs86Lp2I5pN1o_13intent_engine3mcp6server5tests14setup_test_env
FNDA:30,_RNvXs_NtNtNtCs86Lp2I5pN1o_13intent_engine3mcp6server5testsNtB4_15WorkingDirGuardNtNtNtCs4Vq2ZLagKfv_4core3ops4drop4Drop4drop
FNDA:1,_RNCNCNvNtNtNtNtCs86Lp2I5pN1o_13intent_engine3mcp6server5tests13handler_testss_25test_handle_task_list_all00Bd_
FNDA:1,_RNCNCNvNtNtNtNtCs86Lp2I5pN1o_13intent_engine3mcp6server5tests13handler_testss_28test_handle_task_add_success00Bd_
FNDA:1,_RNCNCNvNtNtNtNtCs86Lp2I5pN1o_13intent_engine3mcp6server5tests13handler_testss_28test_handle_task_get_success00Bd_
FNDA:1,_RNCNCNvNtNtNtNtCs86Lp2I5pN1o_13intent_engine3mcp6server5tests13handler_testss_29test_handle_event_add_success00Bd_
FNDA:1,_RNCNCNvNtNtNtNtCs86Lp2I5pN1o_13intent_engine3mcp6server5tests13handler_testss_29test_handle_event_list_global00Bd_
FNDA:1,_RNCNCNvNtNtNtNtCs86Lp2I5pN1o_13intent_engine3mcp6server5tests13handler_testss_29test_handle_task_done_success00Bd_
FNDA:1,_RNCNCNvNtNtNtNtCs86Lp2I5pN1o_13intent_engine3mcp6server5tests13handler_testss_30test_handle_event_list_success00Bd_
FNDA:1,_RNCNCNvNtNtNtNtCs86Lp2I5pN1o_13intent_engine3mcp6server5tests13handler_testss_30test_handle_task_start_success00Bd_
FNDA:1,_RNCNCNvNtNtNtNtCs86Lp2I5pN1o_13intent_engine3mcp6server5tests13handler_testss_31test_handle_task_delete_success00Bd_
FNDA:1,_RNCNCNvNtNtNtNtCs86Lp2I5pN1o_13intent_engine3mcp6server5tests13handler_testss_31test_handle_task_list_by_status00Bd_
FNDA:1,_RNCNCNvNtNtNtNtCs86Lp2I5pN1o_13intent_engine3mcp6server5tests13handler_testss_31test_handle_task_update_success00Bd_
FNDA:1,_RNCNCNvNtNtNtNtCs86Lp2I5pN1o_13intent_engine3mcp6server5tests13handler_testss_32test_handle_task_add_with_parent00Bd_
FNDA:1,_RNCNCNvNtNtNtNtCs86Lp2I5pN1o_13intent_engine3mcp6server5tests13handler_testss_32test_handle_task_context_success00Bd_
FNDA:1,_RNCNCNvNtNtNtNtCs86Lp2I5pN1o_13intent_engine3mcp6server5tests13handler_testss_32test_handle_task_get_with_events00Bd_
FNDA:1,_RNCNCNvNtNtNtNtCs86Lp2I5pN1o_13intent_engine3mcp6server5tests13handler_testss_32test_handle_task_update_priority00Bd_
FNDA:1,_RNCNCNvNtNtNtNtCs86Lp2I5pN1o_13intent_engine3mcp6server5tests13handler_testss_34test_handle_event_add_with_task_id00Bd_
FNDA:1,_RNCNCNvNtNtNtNtCs86Lp2I5pN1o_13intent_engine3mcp6server5tests13handler_testss_34test_handle_task_done_with_task_id00Bd_
FNDA:1,_RNCNCNvNtNtNtNtCs86Lp2I5pN1o_13intent_engine3mcp6server5tests13handler_testss_34test_handle_task_pick_next_success00Bd_
FNDA:1,_RNCNCNvNtNtNtNtCs86Lp2I5pN1o_13intent_engine3mcp6server5tests13handler_testss_35test_handle_event_list_with_filters00Bd_
FNDA:1,_RNCNCNvNtNtNtNtCs86Lp2I5pN1o_13intent_engine3mcp6server5tests13handler_testss_35test_handle_report_generate_success00Bd_
FNDA:1,_RNCNCNvNtNtNtNtCs86Lp2I5pN1o_13intent_engine3mcp6server5tests13handler_testss_38test_handle_task_spawn_subtask_success00Bd_
FNDA:1,_RNCNCNvNtNtNtNtCs86Lp2I5pN1o_13intent_engine3mcp6server5tests13handler_testss_39test_handle_current_task_get_no_current00Bd_
FNDA:1,_RNCNCNvNtNtNtNtCs86Lp2I5pN1o_13intent_engine3mcp6server5tests13handler_testss_39test_handle_task_add_dependency_success00Bd_
FNDA:1,_RNCNCNvNtNtNtNtCs86Lp2I5pN1o_13intent_engine3mcp6server5tests13handler_testss_39test_handle_task_start_nonexistent_task00Bd_
FNDA:1,_RNCNCNvNtNtNtNtCs86Lp2I5pN1o_13intent_engine3mcp6server5tests13handler_testss_40test_handle_report_generate_with_filters00Bd_
FNDA:1,_RNCNCNvNtNtNtNtCs86Lp2I5pN1o_13intent_engine3mcp6server5tests13handler_testss_40test_handle_task_update_invalid_priority00Bd_
FNDA:1,_RNCNCNvNtNtNtNtCs86Lp2I5pN1o_13intent_engine3mcp6server5tests13handler_testss_41test_handle_current_task_get_with_current00Bd_
FNDA:1,_RNCNCNvNtNtNtNtCs86Lp2I5pN1o_13intent_engine3mcp6server5tests13handler_testss_42test_handle_task_context_uses_current_task00Bd_
FNDA:1,_RNCNvNtNtNtNtCs86Lp2I5pN1o_13intent_engine3mcp6server5tests13handler_testss_22test_handle_initialize0Bb_
FNDA:1,_RNCNvNtNtNtNtCs86Lp2I5pN1o_13intent_engine3mcp6server5tests13handler_testss_22test_handle_tools_list0Bb_
FNDA:1,_RNCNvNtNtNtNtCs86Lp2I5pN1o_13intent_engine3mcp6server5tests13handler_testss_25test_handle_task_list_all0Bb_
FNDA:1,_RNCNvNtNtNtNtCs86Lp2I5pN1o_13intent_engine3mcp6server5tests13handler_testss_28test_handle_task_add_success0Bb_
FNDA:1,_RNCNvNtNtNtNtCs86Lp2I5pN1o_13intent_engine3mcp6server5tests13handler_testss_28test_handle_task_get_success0Bb_
FNDA:1,_RNCNvNtNtNtNtCs86Lp2I5pN1o_13intent_engine3mcp6server5tests13handler_testss_29test_handle_event_add_success0Bb_
FNDA:1,_RNCNvNtNtNtNtCs86Lp2I5pN1o_13intent_engine3mcp6server5tests13handler_testss_29test_handle_event_list_global0Bb_
FNDA:1,_RNCNvNtNtNtNtCs86Lp2I5pN1o_13intent_engine3mcp6server5tests13handler_testss_29test_handle_task_done_success0Bb_
FNDA:1,_RNCNvNtNtNtNtCs86Lp2I5pN1o_13intent_engine3mcp6server5tests13handler_testss_30test_handle_event_list_success0Bb_
FNDA:1,_RNCNvNtNtNtNtCs86Lp2I5pN1o_13intent_engine3mcp6server5tests13handler_testss_30test_handle_task_add_null_name0Bb_
FNDA:1,_RNCNvNtNtNtNtCs86Lp2I5pN1o_13intent_engine3mcp6server5tests13handler_testss_30test_handle_task_start_success0Bb_
FNDA:1,_RNCNvNtNtNtNtCs86Lp2I5pN1o_13intent_engine3mcp6server5tests13handler_testss_31test_handle_task_add_empty_name0Bb_
FNDA:1,_RNCNvNtNtNtNtCs86Lp2I5pN1o_13intent_engine3mcp6server5tests13handler_testss_31test_handle_task_delete_success0Bb_
FNDA:1,_RNCNvNtNtNtNtCs86Lp2I5pN1o_13intent_engine3mcp6server5tests13handler_testss_31test_handle_task_list_by_status0Bb_
FNDA:1,_RNCNvNtNtNtNtCs86Lp2I5pN1o_13intent_engine3mcp6server5tests13handler_testss_31test_handle_task_update_success0Bb_
FNDA:1,_RNCNvNtNtNtNtCs86Lp2I5pN1o_13intent_engine3mcp6server5tests13handler_testss_32test_handle_task_add_with_parent0Bb_
FNDA:1,_RNCNvNtNtNtNtCs86Lp2I5pN1o_13intent_engine3mcp6server5tests13handler_testss_32test_handle_task_context_success0Bb_
FNDA:1,_RNCNvNtNtNtNtCs86Lp2I5pN1o_13intent_engine3mcp6server5tests13handler_testss_32test_handle_task_get_with_events0Bb_
FNDA:1,_RNCNvNtNtNtNtCs86Lp2I5pN1o_13intent_engine3mcp6server5tests13handler_testss_32test_handle_task_update_priority0Bb_
FNDA:1,_RNCNvNtNtNtNtCs86Lp2I5pN1o_13intent_engine3mcp6server5tests13handler_testss_33test_handle_task_add_missing_name0Bb_
FNDA:1,_RNCNvNtNtNtNtCs86Lp2I5pN1o_13intent_engine3mcp6server5tests13handler_testss_34test_handle_event_add_missing_data0Bb_
FNDA:1,_RNCNvNtNtNtNtCs86Lp2I5pN1o_13intent_engine3mcp6server5tests13handler_testss_34test_handle_event_add_with_task_id0Bb_
FNDA:1,_RNCNvNtNtNtNtCs86Lp2I5pN1o_13intent_engine3mcp6server5tests13handler_testss_34test_handle_task_done_with_task_id0Bb_
FNDA:1,_RNCNvNtNtNtNtCs86Lp2I5pN1o_13intent_engine3mcp6server5tests13handler_testss_34test_handle_task_pick_next_success0Bb_
FNDA:1,_RNCNvNtNtNtNtCs86Lp2I5pN1o_13intent_engine3mcp6server5tests13handler_testss_35test_handle_event_list_with_filters0Bb_
FNDA:1,_RNCNvNtNtNtNtCs86Lp2I5pN1o_13intent_engine3mcp6server5tests13handler_testss_35test_handle_report_generate_success0Bb_
FNDA:1,_RNCNvNtNtNtNtCs86Lp2I5pN1o_13intent_engine3mcp6server5tests13handler_testss_36test_handle_task_add_wrong_type_name0Bb_
FNDA:1,_RNCNvNtNtNtNtCs86Lp2I5pN1o_13intent_engine3mcp6server5tests13handler_testss_38test_handle_task_spawn_subtask_success0Bb_
FNDA:1,_RNCNvNtNtNtNtCs86Lp2I5pN1o_13intent_engine3mcp6server5tests13handler_testss_38test_handle_task_start_missing_task_id0Bb_
FNDA:1,_RNCNvNtNtNtNtCs86Lp2I5pN1o_13intent_engine3mcp6server5tests13handler_testss_39test_handle_current_task_get_no_current0Bb_
FNDA:1,_RNCNvNtNtNtNtCs86Lp2I5pN1o_13intent_engine3mcp6server5tests13handler_testss_39test_handle_task_add_dependency_success0Bb_
FNDA:1,_RNCNvNtNtNtNtCs86Lp2I5pN1o_13intent_engine3mcp6server5tests13handler_testss_39test_handle_task_delete_missing_task_id0Bb_
FNDA:1,_RNCNvNtNtNtNtCs86Lp2I5pN1o_13intent_engine3mcp6server5tests13handler_testss_39test_handle_task_start_nonexistent_task0Bb_
FNDA:1,_RNCNvNtNtNtNtCs86Lp2I5pN1o_13intent_engine3mcp6server5tests13handler_testss_39test_handle_task_update_missing_task_id0Bb_
FNDA:1,_RNCNvNtNtNtNtCs86Lp2I5pN1o_13intent_engine3mcp6server5tests13handler_testss_40test_handle_event_add_missing_event_type0Bb_
FNDA:1,_RNCNvNtNtNtNtCs86Lp2I5pN1o_13intent_engine3mcp6server5tests13handler_testss_40test_handle_report_generate_with_filters0Bb_
FNDA:1,_RNCNvNtNtNtNtCs86Lp2I5pN1o_13intent_engine3mcp6server5tests13handler_testss_40test_handle_task_update_invalid_priority0Bb_
FNDA:1,_RNCNvNtNtNtNtCs86Lp2I5pN1o_13intent_engine3mcp6server5tests13handler_testss_41test_handle_current_task_get_with_current0Bb_
FNDA:1,_RNCNvNtNtNtNtCs86Lp2I5pN1o_13intent_engine3mcp6server5tests13handler_testss_41test_handle_task_add_whitespace_only_name0Bb_
FNDA:1,_RNCNvNtNtNtNtCs86Lp2I5pN1o_13intent_engine3mcp6server5tests13handler_testss_42test_handle_task_context_uses_current_task0Bb_
FNDA:1,_RNCNvNtNtNtNtCs86Lp2I5pN1o_13intent_engine3mcp6server5tests13handler_testss_43test_handle_task_spawn_subtask_missing_name0Bb_
FNDA:1,_RNCNvNtNtNtNtCs86Lp2I5pN1o_13intent_engine3mcp6server5tests13handler_testss_46test_handle_task_add_dependency_missing_params0Bb_
FNF:90
FNH:90
DA:18,30
DA:19,30
DA:20,30
DA:21,30
DA:22,30
DA:26,30
DA:27,30
DA:28,30
DA:32,30
DA:33,30
DA:34,30
DA:36,30
DA:37,30
DA:38,30
DA:39,30
DA:46,1
DA:47,1
DA:48,1
DA:50,1
DA:51,1
DA:52,1
DA:53,1
DA:56,1
DA:57,1
DA:58,1
DA:60,1
DA:61,1
DA:62,1
DA:65,1
DA:66,1
DA:67,1
DA:69,1
DA:70,1
DA:71,1
DA:74,1
DA:75,1
DA:76,1
DA:77,1
DA:78,1
DA:79,1
DA:80,1
DA:82,1
DA:83,1
DA:84,1
DA:85,1
DA:86,1
DA:89,1
DA:90,1
DA:91,1
DA:92,1
DA:93,1
DA:94,1
DA:95,1
DA:96,1
DA:97,1
DA:98,1
DA:100,1
DA:101,1
DA:102,1
DA:103,1
DA:104,1
DA:107,1
DA:108,1
DA:109,1
DA:111,1
DA:112,1
DA:113,1
DA:116,1
DA:124,1
DA:125,1
DA:126,1
DA:128,1
DA:129,1
DA:130,1
DA:131,1
DA:133,1
DA:134,1
DA:135,1
DA:138,1
DA:139,1
DA:140,1
DA:142,1
DA:143,1
DA:145,1
DA:146,1
DA:147,1
DA:151,2
DA:152,1
DA:154,1
DA:155,1
DA:156,1
DA:159,1
DA:160,1
DA:162,1
DA:163,1
DA:164,1
DA:168,1
DA:169,1
DA:170,1
DA:173,1
DA:174,1
DA:175,1
DA:176,1
DA:177,1
DA:180,1
DA:181,1
DA:182,1
DA:183,1
DA:186,1
DA:187,1
DA:188,1
DA:189,1
DA:190,1
DA:193,1
DA:194,1
DA:195,1
DA:196,1
DA:199,1
DA:200,1
DA:201,1
DA:202,1
DA:203,1
DA:206,1
DA:207,1
DA:208,1
DA:209,1
DA:212,1
DA:213,1
DA:214,1
DA:215,1
DA:216,1
DA:219,1
DA:220,1
DA:221,1
DA:222,1
DA:225,1
DA:226,1
DA:227,1
DA:228,1
DA:229,1
DA:233,2
DA:234,1
DA:237,1
DA:238,1
DA:239,1
DA:242,1
DA:243,1
DA:244,1
DA:247,1
DA:248,1
DA:250,1
DA:251,1
DA:256,2
DA:257,1
DA:260,1
DA:261,1
DA:263,1
DA:264,1
DA:265,1
DA:268,1
DA:269,1
DA:271,1
DA:272,1
DA:273,1
DA:277,1
DA:278,1
DA:279,1
DA:282,1
DA:283,1
DA:284,1
DA:285,1
DA:289,2
DA:290,1
DA:292,1
DA:293,1
DA:294,1
DA:297,1
DA:298,1
DA:303,2
DA:304,1
DA:307,1
DA:308,1
DA:309,1
DA:311,1
DA:312,1
DA:313,1
DA:315,1
DA:316,1
DA:317,1
DA:318,1
DA:319,1
DA:320,1
DA:321,1
DA:322,1
DA:323,1
DA:328,2
DA:329,1
DA:332,1
DA:333,1
DA:334,1
DA:336,1
DA:337,1
DA:340,1
DA:341,1
DA:346,2
DA:347,1
DA:350,1
DA:351,1
DA:352,1
DA:354,1
DA:355,1
DA:356,1
DA:358,1
DA:359,1
DA:360,1
DA:365,2
DA:366,1
DA:369,1
DA:370,1
DA:371,1
DA:372,1
DA:374,1
DA:375,1
DA:378,1
DA:379,1
DA:381,1
DA:382,1
DA:383,1
DA:384,1
DA:389,2
DA:390,1
DA:392,1
DA:393,1
DA:394,1
DA:395,1
DA:396,1
DA:398,1
DA:399,1
DA:400,1
DA:403,1
DA:404,1
DA:406,1
DA:407,1
DA:408,1
DA:413,2
DA:414,1
DA:416,1
DA:417,1
DA:419,1
DA:420,1
DA:421,1
DA:424,1
DA:425,1
DA:427,1
DA:429,1
DA:430,1
DA:431,1
DA:441,2
DA:442,1
DA:444,1
DA:445,1
DA:446,1
DA:447,1
DA:448,1
DA:450,1
DA:451,1
DA:452,1
DA:453,1
DA:456,1
DA:457,1
DA:459,1
DA:460,1
DA:461,1
DA:465,1
DA:466,1
DA:467,1
DA:470,1
DA:471,1
DA:472,1
DA:473,1
DA:477,2
DA:478,1
DA:480,1
DA:481,1
DA:483,1
DA:484,1
DA:485,1
DA:488,1
DA:489,1
DA:491,1
DA:492,1
DA:497,2
DA:498,1
DA:500,1
DA:501,1
DA:503,1
DA:504,1
DA:505,1
DA:508,1
DA:509,1
DA:510,1
DA:515,2
DA:516,1
DA:518,1
DA:519,1
DA:521,1
DA:522,1
DA:525,1
DA:526,1
DA:528,1
DA:529,1
DA:530,1
DA:531,1
DA:532,1
DA:533,1
DA:537,1
DA:538,1
DA:539,1
DA:540,1
DA:541,1
DA:542,1
DA:546,2
DA:547,1
DA:550,1
DA:551,1
DA:552,1
DA:554,1
DA:555,1
DA:556,1
DA:559,1
DA:560,1
DA:562,1
DA:563,1
DA:564,1
DA:565,1
DA:566,1
DA:567,1
DA:568,1
DA:572,1
DA:573,1
DA:574,1
DA:577,1
DA:578,1
DA:579,1
DA:580,1
DA:584,2
DA:585,1
DA:587,1
DA:588,1
DA:590,1
DA:591,1
DA:592,1
DA:594,1
DA:596,1
DA:597,1
DA:602,2
DA:603,1
DA:605,1
DA:606,1
DA:607,1
DA:609,1
DA:610,1
DA:611,1
DA:614,1
DA:615,1
DA:617,1
DA:618,1
DA:619,1
DA:624,2
DA:625,1
DA:627,1
DA:628,1
DA:630,1
DA:631,1
DA:632,1
DA:633,1
DA:636,1
DA:637,1
DA:639,1
DA:640,1
DA:644,1
DA:645,1
DA:646,1
DA:649,1
DA:650,1
DA:651,1
DA:652,1
DA:655,1
DA:656,1
DA:657,1
DA:660,1
DA:661,1
DA:662,1
DA:663,1
DA:667,2
DA:668,1
DA:670,1
DA:671,1
DA:674,1
DA:675,1
DA:676,1
DA:677,1
DA:678,1
DA:679,1
DA:680,1
DA:681,1
DA:682,1
DA:684,1
DA:685,1
DA:688,1
DA:689,1
DA:691,1
DA:692,1
DA:693,1
DA:698,2
DA:699,1
DA:701,1
DA:702,1
DA:705,1
DA:706,1
DA:707,1
DA:708,1
DA:709,1
DA:710,1
DA:711,1
DA:712,1
DA:713,1
DA:715,1
DA:716,1
DA:717,1
DA:718,1
DA:721,1
DA:722,1
DA:724,1
DA:725,1
DA:726,1
DA:727,1
DA:732,2
DA:733,1
DA:734,1
DA:735,1
DA:738,1
DA:739,1
DA:740,1
DA:741,1
DA:742,1
DA:743,1
DA:744,1
DA:745,1
DA:746,1
DA:747,1
DA:750,1
DA:751,1
DA:752,1
DA:754,1
DA:755,1
DA:756,1
DA:761,2
DA:762,1
DA:764,1
DA:765,1
DA:766,1
DA:768,1
DA:769,1
DA:774,2
DA:775,1
DA:777,1
DA:778,1
DA:779,1
DA:781,1
DA:782,1
DA:783,1
DA:785,1
DA:786,1
DA:787,1
DA:788,1
DA:789,1
DA:794,2
DA:795,1
DA:797,1
DA:798,1
DA:799,1
DA:801,1
DA:802,1
DA:805,1
DA:806,1
DA:808,1
DA:809,1
DA:814,2
DA:815,1
DA:817,1
DA:818,1
DA:819,1
DA:820,1
DA:823,1
DA:824,1
DA:829,2
DA:830,1
DA:832,1
DA:833,1
DA:835,1
DA:836,1
DA:839,1
DA:840,1
DA:842,1
DA:843,1
DA:848,2
DA:849,1
DA:851,1
DA:852,1
DA:853,1
DA:856,1
DA:857,1
DA:858,1
DA:860,1
DA:861,1
DA:862,1
DA:863,1
DA:864,1
DA:865,1
DA:866,1
DA:867,1
DA:868,1
DA:869,1
DA:870,1
DA:875,2
DA:876,1
DA:878,1
DA:879,1
DA:880,1
DA:882,1
DA:883,1
DA:884,1
DA:887,1
DA:888,1
DA:890,1
DA:891,1
DA:892,1
DA:893,1
DA:894,1
DA:895,1
DA:896,1
DA:899,1
DA:900,1
DA:901,1
DA:902,1
DA:906,1
DA:907,1
DA:908,1
DA:911,1
DA:912,1
DA:913,1
DA:914,1
DA:922,1
DA:923,1
DA:924,1
DA:925,1
DA:926,1
DA:927,1
DA:928,1
DA:930,1
DA:931,1
DA:932,1
DA:933,1
DA:934,1
DA:937,1
DA:938,1
DA:939,1
DA:940,1
DA:941,1
DA:942,1
DA:943,1
DA:945,1
DA:946,1
DA:947,1
DA:948,1
DA:951,1
DA:952,1
DA:953,1
DA:954,1
DA:955,1
DA:956,1
DA:957,1
DA:959,1
DA:960,1
DA:961,1
DA:962,1
DA:965,1
DA:966,1
DA:967,1
DA:968,1
DA:969,1
DA:970,1
DA:971,1
DA:973,1
DA:974,1
DA:975,1
DA:976,1
DA:979,1
DA:980,1
DA:981,1
DA:982,1
DA:983,1
DA:984,1
DA:985,1
DA:987,1
DA:988,1
DA:989,1
DA:990,1
DA:991,1
DA:992,1
DA:995,1
DA:996,1
DA:997,1
DA:998,1
DA:999,1
DA:1000,1
DA:1001,1
DA:1004,1
DA:1005,1
DA:1008,1
DA:1009,1
DA:1010,1
DA:1011,1
DA:1012,1
DA:1013,1
DA:1014,1
DA:1017,1
DA:1018,1
DA:1021,1
DA:1022,1
DA:1023,1
DA:1024,1
DA:1025,1
DA:1026,1
DA:1027,1
DA:1030,1
DA:1031,1
DA:1039,1
DA:1040,1
DA:1041,1
DA:1042,1
DA:1045,1
DA:1046,1
DA:1047,1
DA:1048,1
DA:1051,1
DA:1052,1
DA:1053,1
DA:1054,1
DA:1057,1
DA:1058,1
DA:1059,1
DA:1060,1
DA:1064,2
DA:1065,1
DA:1068,1
DA:1069,1
DA:1070,1
DA:1071,1
DA:1072,1
DA:1073,1
DA:1074,1
DA:1077,1
DA:1078,1
DA:1081,1
DA:1082,1
DA:1084,1
DA:1085,1
DA:1087,3
DA:1088,2
DA:1089,1
DA:1094,2
DA:1095,1
DA:1097,1
DA:1098,1
DA:1101,1
DA:1102,1
DA:1105,1
DA:1106,1
BRF:0
BRH:0
LF:718
LH:718
end_of_record
SF:/mnt/d/prj/intent-engine/src/mcp/ws_client.rs
FN:41,_RINvMNtNtCsjp9E11WtBq9_13intent_engine3mcp9ws_clientINtB3_15ProtocolMessageNtB3_11ProjectInfoE3newReEB7_
FN:41,_RINvMNtNtCsjp9E11WtBq9_13intent_engine3mcp9ws_clientINtB3_15ProtocolMessageNtB3_12EmptyPayloadE3newReEB7_
FN:41,_RINvMNtNtCsjp9E11WtBq9_13intent_engine3mcp9ws_clientINtB3_15ProtocolMessageNtB3_12HelloPayloadE3newReEB7_
FN:205,_RNCNCNvNtNtCsjp9E11WtBq9_13intent_engine3mcp9ws_client15connect_and_run00B9_
FN:213,_RNCNCNvNtNtCsjp9E11WtBq9_13intent_engine3mcp9ws_client15connect_and_run0s0_0B9_
FN:297,_RNCNCNvNtNtCsjp9E11WtBq9_13intent_engine3mcp9ws_client15connect_and_run0s1_0B9_
FN:212,_RNCNCNvNtNtCsjp9E11WtBq9_13intent_engine3mcp9ws_client15connect_and_run0s_0B9_
FN:126,_RNCNCNvNtNtCsjp9E11WtBq9_13intent_engine3mcp9ws_client20connect_to_dashboard00B9_
FN:143,_RNCNCNvNtNtCsjp9E11WtBq9_13intent_engine3mcp9ws_client20connect_to_dashboard0s0_0B9_
FN:130,_RNCNCNvNtNtCsjp9E11WtBq9_13intent_engine3mcp9ws_client20connect_to_dashboard0s_0B9_
FN:201,_RNCNvNtNtCsjp9E11WtBq9_13intent_engine3mcp9ws_client15connect_and_run0B7_
FN:122,_RNCNvNtNtCsjp9E11WtBq9_13intent_engine3mcp9ws_client20connect_to_dashboard0B7_
FN:50,_RNvMNtNtCsjp9E11WtBq9_13intent_engine3mcp9ws_clientINtB2_15ProtocolMessageNtB2_11ProjectInfoE7to_jsonB6_
FN:50,_RNvMNtNtCsjp9E11WtBq9_13intent_engine3mcp9ws_clientINtB2_15ProtocolMessageNtB2_12EmptyPayloadE7to_jsonB6_
FN:50,_RNvMNtNtCsjp9E11WtBq9_13intent_engine3mcp9ws_clientINtB2_15ProtocolMessageNtB2_12HelloPayloadE7to_jsonB6_
FN:195,_RNvNtNtCsjp9E11WtBq9_13intent_engine3mcp9ws_client15connect_and_run
FN:116,_RNvNtNtCsjp9E11WtBq9_13intent_engine3mcp9ws_client20connect_to_dashboard
FN:41,_RINvMNtNtCs86Lp2I5pN1o_13intent_engine3mcp9ws_clientINtB3_15ProtocolMessageNtB3_11ProjectInfoE3newReEB7_
FN:41,_RINvMNtNtCs86Lp2I5pN1o_13intent_engine3mcp9ws_clientINtB3_15ProtocolMessageNtB3_12EmptyPayloadE3newReEB7_
FN:41,_RINvMNtNtCs86Lp2I5pN1o_13intent_engine3mcp9ws_clientINtB3_15ProtocolMessageNtB3_12HelloPayloadE3newReEB7_
FN:205,_RNCNCNvNtNtCs86Lp2I5pN1o_13intent_engine3mcp9ws_client15connect_and_run00B9_
FN:213,_RNCNCNvNtNtCs86Lp2I5pN1o_13intent_engine3mcp9ws_client15connect_and_run0s0_0B9_
FN:297,_RNCNCNvNtNtCs86Lp2I5pN1o_13intent_engine3mcp9ws_client15connect_and_run0s1_0B9_
FN:212,_RNCNCNvNtNtCs86Lp2I5pN1o_13intent_engine3mcp9ws_client15connect_and_run0s_0B9_
FN:126,_RNCNCNvNtNtCs86Lp2I5pN1o_13intent_engine3mcp9ws_client20connect_to_dashboard00B9_
FN:143,_RNCNCNvNtNtCs86Lp2I5pN1o_13intent_engine3mcp9ws_client20connect_to_dashboard0s0_0B9_
FN:130,_RNCNCNvNtNtCs86Lp2I5pN1o_13intent_engine3mcp9ws_client20connect_to_dashboard0s_0B9_
FN:201,_RNCNvNtNtCs86Lp2I5pN1o_13intent_engine3mcp9ws_client15connect_and_run0B7_
FN:122,_RNCNvNtNtCs86Lp2I5pN1o_13intent_engine3mcp9ws_client20connect_to_dashboard0B7_
FN:50,_RNvMNtNtCs86Lp2I5pN1o_13intent_engine3mcp9ws_clientINtB2_15ProtocolMessageNtB2_11ProjectInfoE7to_jsonB6_
FN:50,_RNvMNtNtCs86Lp2I5pN1o_13intent_engine3mcp9ws_clientINtB2_15ProtocolMessageNtB2_12EmptyPayloadE7to_jsonB6_
FN:50,_RNvMNtNtCs86Lp2I5pN1o_13intent_engine3mcp9ws_clientINtB2_15ProtocolMessageNtB2_12HelloPayloadE7to_jsonB6_
FN:195,_RNvNtNtCs86Lp2I5pN1o_13intent_engine3mcp9ws_client15connect_and_run
FN:116,_RNvNtNtCs86Lp2I5pN1o_13intent_engine3mcp9ws_client20connect_to_dashboard
FNDA:0,_RINvMNtNtCsjp9E11WtBq9_13intent_engine3mcp9ws_clientINtB3_15ProtocolMessageNtB3_11ProjectInfoE3newReEB7_
FNDA:0,_RINvMNtNtCsjp9E11WtBq9_13intent_engine3mcp9ws_clientINtB3_15ProtocolMessageNtB3_12EmptyPayloadE3newReEB7_
FNDA:0,_RINvMNtNtCsjp9E11WtBq9_13intent_engine3mcp9ws_clientINtB3_15ProtocolMessageNtB3_12HelloPayloadE3newReEB7_
FNDA:0,_RNCNCNvNtNtCsjp9E11WtBq9_13intent_engine3mcp9ws_client15connect_and_run00B9_
FNDA:0,_RNCNCNvNtNtCsjp9E11WtBq9_13intent_engine3mcp9ws_client15connect_and_run0s0_0B9_
FNDA:0,_RNCNCNvNtNtCsjp9E11WtBq9_13intent_engine3mcp9ws_client15connect_and_run0s1_0B9_
FNDA:0,_RNCNCNvNtNtCsjp9E11WtBq9_13intent_engine3mcp9ws_client15connect_and_run0s_0B9_
FNDA:0,_RNCNCNvNtNtCsjp9E11WtBq9_13intent_engine3mcp9ws_client20connect_to_dashboard00B9_
FNDA:0,_RNCNCNvNtNtCsjp9E11WtBq9_13intent_engine3mcp9ws_client20connect_to_dashboard0s0_0B9_
FNDA:0,_RNCNCNvNtNtCsjp9E11WtBq9_13intent_engine3mcp9ws_client20connect_to_dashboard0s_0B9_
FNDA:0,_RNCNvNtNtCsjp9E11WtBq9_13intent_engine3mcp9ws_client15connect_and_run0B7_
FNDA:0,_RNCNvNtNtCsjp9E11WtBq9_13intent_engine3mcp9ws_client20connect_to_dashboard0B7_
FNDA:0,_RNvMNtNtCsjp9E11WtBq9_13intent_engine3mcp9ws_clientINtB2_15ProtocolMessageNtB2_11ProjectInfoE7to_jsonB6_
FNDA:0,_RNvMNtNtCsjp9E11WtBq9_13intent_engine3mcp9ws_clientINtB2_15ProtocolMessageNtB2_12EmptyPayloadE7to_jsonB6_
FNDA:0,_RNvMNtNtCsjp9E11WtBq9_13intent_engine3mcp9ws_clientINtB2_15ProtocolMessageNtB2_12HelloPayloadE7to_jsonB6_
FNDA:0,_RNvNtNtCsjp9E11WtBq9_13intent_engine3mcp9ws_client15connect_and_run
FNDA:0,_RNvNtNtCsjp9E11WtBq9_13intent_engine3mcp9ws_client20connect_to_dashboard
FNDA:0,_RINvMNtNtCs86Lp2I5pN1o_13intent_engine3mcp9ws_clientINtB3_15ProtocolMessageNtB3_11ProjectInfoE3newReEB7_
FNDA:0,_RINvMNtNtCs86Lp2I5pN1o_13intent_engine3mcp9ws_clientINtB3_15ProtocolMessageNtB3_12EmptyPayloadE3newReEB7_
FNDA:0,_RINvMNtNtCs86Lp2I5pN1o_13intent_engine3mcp9ws_clientINtB3_15ProtocolMessageNtB3_12HelloPayloadE3newReEB7_
FNDA:0,_RNCNCNvNtNtCs86Lp2I5pN1o_13intent_engine3mcp9ws_client15connect_and_run00B9_
FNDA:0,_RNCNCNvNtNtCs86Lp2I5pN1o_13intent_engine3mcp9ws_client15connect_and_run0s0_0B9_
FNDA:0,_RNCNCNvNtNtCs86Lp2I5pN1o_13intent_engine3mcp9ws_client15connect_and_run0s1_0B9_
FNDA:0,_RNCNCNvNtNtCs86Lp2I5pN1o_13intent_engine3mcp9ws_client15connect_and_run0s_0B9_
FNDA:0,_RNCNCNvNtNtCs86Lp2I5pN1o_13intent_engine3mcp9ws_client20connect_to_dashboard00B9_
FNDA:0,_RNCNCNvNtNtCs86Lp2I5pN1o_13intent_engine3mcp9ws_client20connect_to_dashboard0s0_0B9_
FNDA:0,_RNCNCNvNtNtCs86Lp2I5pN1o_13intent_engine3mcp9ws_client20connect_to_dashboard0s_0B9_
FNDA:0,_RNCNvNtNtCs86Lp2I5pN1o_13intent_engine3mcp9ws_client15connect_and_run0B7_
FNDA:0,_RNCNvNtNtCs86Lp2I5pN1o_13intent_engine3mcp9ws_client20connect_to_dashboard0B7_
FNDA:0,_RNvMNtNtCs86Lp2I5pN1o_13intent_engine3mcp9ws_clientINtB2_15ProtocolMessageNtB2_11ProjectInfoE7to_jsonB6_
FNDA:0,_RNvMNtNtCs86Lp2I5pN1o_13intent_engine3mcp9ws_clientINtB2_15ProtocolMessageNtB2_12EmptyPayloadE7to_jsonB6_
FNDA:0,_RNvMNtNtCs86Lp2I5pN1o_13intent_engine3mcp9ws_clientINtB2_15ProtocolMessageNtB2_12HelloPayloadE7to_jsonB6_
FNDA:0,_RNvNtNtCs86Lp2I5pN1o_13intent_engine3mcp9ws_client15connect_and_run
FNDA:0,_RNvNtNtCs86Lp2I5pN1o_13intent_engine3mcp9ws_client20connect_to_dashboard
FNF:13
FNH:0
DA:41,0
DA:42,0
DA:43,0
DA:44,0
DA:45,0
DA:46,0
DA:47,0
DA:48,0
DA:50,0
DA:51,0
DA:52,0
DA:116,0
DA:117,0
DA:118,0
DA:119,0
DA:120,0
DA:121,0
DA:122,0
DA:124,0
DA:125,0
DA:126,0
DA:128,0
DA:129,0
DA:130,0
DA:132,0
DA:133,0
DA:134,0
DA:135,0
DA:137,0
DA:138,0
DA:140,0
DA:143,0
DA:147,0
DA:149,0
DA:150,0
DA:151,0
DA:152,0
DA:153,0
DA:154,0
DA:156,0
DA:160,0
DA:161,0
DA:163,0
DA:165,0
DA:167,0
DA:170,0
DA:171,0
DA:174,0
DA:175,0
DA:176,0
DA:177,0
DA:179,0
DA:180,0
DA:181,0
DA:183,0
DA:186,0
DA:187,0
DA:191,0
DA:195,0
DA:196,0
DA:197,0
DA:198,0
DA:199,0
DA:200,0
DA:201,0
DA:203,0
DA:204,0
DA:205,0
DA:206,0
DA:207,0
DA:210,0
DA:211,0
DA:212,0
DA:213,0
DA:216,0
DA:217,0
DA:218,0
DA:219,0
DA:220,0
DA:221,0
DA:222,0
DA:223,0
DA:226,0
DA:227,0
DA:228,0
DA:229,0
DA:230,0
DA:232,0
DA:234,0
DA:237,0
DA:239,0
DA:240,0
DA:241,0
DA:242,0
DA:244,0
DA:245,0
DA:246,0
DA:247,0
DA:248,0
DA:251,0
DA:252,0
DA:253,0
DA:254,0
DA:255,0
DA:259,0
DA:260,0
DA:261,0
DA:266,0
DA:267,0
DA:270,0
DA:273,0
DA:274,0
DA:275,0
DA:276,0
DA:277,0
DA:278,0
DA:281,0
DA:282,0
DA:283,0
DA:284,0
DA:286,0
DA:287,0
DA:290,0
DA:293,0
DA:297,0
DA:300,0
DA:301,0
DA:302,0
DA:303,0
DA:304,0
DA:305,0
DA:306,0
DA:307,0
DA:308,0
DA:310,0
DA:311,0
DA:313,0
DA:314,0
DA:316,0
DA:317,0
DA:318,0
DA:319,0
DA:320,0
DA:322,0
DA:323,0
DA:324,0
DA:326,0
DA:328,0
DA:329,0
DA:331,0
DA:332,0
DA:336,0
DA:337,0
DA:338,0
DA:341,0
DA:342,0
DA:343,0
DA:344,0
DA:346,0
DA:348,0
DA:349,0
DA:350,0
DA:352,0
DA:353,0
DA:354,0
DA:356,0
DA:358,0
DA:360,0
DA:361,0
DA:363,0
DA:364,0
DA:366,0
DA:368,0
DA:369,0
DA:372,0
DA:373,0
DA:380,0
DA:384,0
DA:385,0
DA:387,0
DA:391,0
DA:392,0
DA:395,0
DA:396,0
DA:398,0
DA:399,0
DA:400,0
DA:401,0
DA:402,0
DA:403,0
DA:406,0
DA:409,0
DA:410,0
DA:411,0
DA:412,0
DA:413,0
DA:414,0
DA:415,0
DA:417,0
DA:418,0
DA:420,0
DA:421,0
DA:423,0
DA:424,0
DA:425,0
DA:426,0
DA:427,0
DA:429,0
DA:430,0
DA:431,0
DA:433,0
DA:435,0
DA:436,0
DA:438,0
DA:439,0
DA:443,0
DA:444,0
DA:445,0
DA:448,0
DA:449,0
DA:450,0
DA:451,0
DA:453,0
DA:455,0
DA:456,0
DA:457,0
DA:459,0
DA:460,0
DA:461,0
DA:463,0
DA:465,0
DA:467,0
DA:468,0
DA:470,0
DA:471,0
DA:473,0
DA:475,0
DA:476,0
DA:479,0
DA:480,0
DA:487,0
DA:491,0
DA:492,0
DA:494,0
DA:498,0
DA:499,0
DA:505,0
DA:507,0
DA:508,0
BRF:0
BRH:0
LF:258
LH:0
end_of_record
SF:/mnt/d/prj/intent-engine/src/notifications.rs
FN:26,_RNvMNtCsjp9E11WtBq9_13intent_engine13notificationsNtB2_18NotificationSender3new
FN:46,_RNvMNtCsjp9E11WtBq9_13intent_engine13notificationsNtB2_18NotificationSender4send
FN:46,_RNCNvMNtCsjp9E11WtBq9_13intent_engine13notificationsNtB4_18NotificationSender4send0B6_
FN:26,_RNvMNtCs86Lp2I5pN1o_13intent_engine13notificationsNtB2_18NotificationSender3new
FN:46,_RNvMNtCs86Lp2I5pN1o_13intent_engine13notificationsNtB2_18NotificationSender4send
FN:46,_RNCNvMNtCs86Lp2I5pN1o_13intent_engine13notificationsNtB4_18NotificationSender4send0B6_
FN:87,_RNCNvNtNtCs86Lp2I5pN1o_13intent_engine13notifications5testss_26test_send_with_no_channels0B7_
FN:87,_RNvNtNtCs86Lp2I5pN1o_13intent_engine13notifications5testss_26test_send_with_no_channels
FN:80,_RNvNtNtCs86Lp2I5pN1o_13intent_engine13notifications5testss_28test_notification_sender_new
FNDA:10,_RNvMNtCsjp9E11WtBq9_13intent_engine13notificationsNtB2_18NotificationSender3new
FNDA:0,_RNvMNtCsjp9E11WtBq9_13intent_engine13notificationsNtB2_18NotificationSender4send
FNDA:0,_RNCNvMNtCsjp9E11WtBq9_13intent_engine13notificationsNtB4_18NotificationSender4send0B6_
FNDA:184,_RNvMNtCs86Lp2I5pN1o_13intent_engine13notificationsNtB2_18NotificationSender3new
FNDA:1,_RNvMNtCs86Lp2I5pN1o_13intent_engine13notificationsNtB2_18NotificationSender4send
FNDA:1,_RNCNvMNtCs86Lp2I5pN1o_13intent_engine13notificationsNtB4_18NotificationSender4send0B6_
FNDA:1,_RNCNvNtNtCs86Lp2I5pN1o_13intent_engine13notifications5testss_26test_send_with_no_channels0B7_
FNDA:1,_RNvNtNtCs86Lp2I5pN1o_13intent_engine13notifications5testss_26test_send_with_no_channels
FNDA:1,_RNvNtNtCs86Lp2I5pN1o_13intent_engine13notifications5testss_28test_notification_sender_new
FNF:6
FNH:6
DA:26,194
DA:27,194
DA:28,194
DA:29,194
DA:30,194
DA:31,194
DA:32,194
DA:33,194
DA:34,194
DA:46,1
DA:50,1
DA:53,1
DA:54,1
DA:55,0
DA:56,0
DA:57,0
DA:62,1
DA:63,0
DA:64,1
DA:67,1
DA:68,0
DA:69,0
DA:70,0
DA:71,1
DA:72,1
DA:80,1
DA:81,1
DA:82,1
DA:83,1
DA:84,1
DA:87,1
DA:89,1
DA:90,1
DA:91,1
DA:92,1
DA:93,1
DA:94,1
DA:95,1
DA:96,1
DA:98,1
DA:99,1
BRF:0
BRH:0
LF:44
LH:37
end_of_record
SF:/mnt/d/prj/intent-engine/src/plan.rs
FN:178,_RINvMs0_NtCsjp9E11WtBq9_13intent_engine4planNtB6_10PlanResult5errorNtNtCs456UZznmu7y_5alloc6string6StringEB8_
FN:470,_RNCNCNvMs1_NtCsjp9E11WtBq9_13intent_engine4planNtB9_12PlanExecutor17create_task_in_tx00Bb_
FN:586,_RNCNCNvMs1_NtCsjp9E11WtBq9_13intent_engine4planNtB9_12PlanExecutor18build_dependencies00Bb_
FN:591,_RNCNCNvMs1_NtCsjp9E11WtBq9_13intent_engine4planNtB9_12PlanExecutor18build_dependencies0s_0Bb_
FN:556,_RNCNCNvMs1_NtCsjp9E11WtBq9_13intent_engine4planNtB9_12PlanExecutor28build_parent_child_relations00Bb_
FN:560,_RNCNCNvMs1_NtCsjp9E11WtBq9_13intent_engine4planNtB9_12PlanExecutor28build_parent_child_relations0s_0Bb_
FN:410,_RNCNCNvMs1_NtCsjp9E11WtBq9_13intent_engine4planNtB9_12PlanExecutor7execute00Bb_
FN:468,_RNCNvMs1_NtCsjp9E11WtBq9_13intent_engine4planNtB7_12PlanExecutor17create_task_in_tx0B9_
FN:503,_RNCNvMs1_NtCsjp9E11WtBq9_13intent_engine4planNtB7_12PlanExecutor17update_task_in_tx0B9_
FN:581,_RNCNvMs1_NtCsjp9E11WtBq9_13intent_engine4planNtB7_12PlanExecutor18build_dependencies0B9_
FN:432,_RNCNvMs1_NtCsjp9E11WtBq9_13intent_engine4planNtB7_12PlanExecutor19find_tasks_by_names0B9_
FN:617,_RNCNvMs1_NtCsjp9E11WtBq9_13intent_engine4planNtB7_12PlanExecutor21validate_dependencies0B9_
FN:640,_RNCNvMs1_NtCsjp9E11WtBq9_13intent_engine4planNtB7_12PlanExecutor27validate_batch_single_doing0B9_
FN:645,_RNCNvMs1_NtCsjp9E11WtBq9_13intent_engine4planNtB7_12PlanExecutor27validate_batch_single_doings_0B9_
FN:553,_RNCNvMs1_NtCsjp9E11WtBq9_13intent_engine4planNtB7_12PlanExecutor28build_parent_child_relations0B9_
FN:665,_RNCNvMs1_NtCsjp9E11WtBq9_13intent_engine4planNtB7_12PlanExecutor28detect_circular_dependencies0B9_
FN:697,_RNCNvMs1_NtCsjp9E11WtBq9_13intent_engine4planNtB7_12PlanExecutor28detect_circular_dependenciess_0B9_
FN:338,_RNCNvMs1_NtCsjp9E11WtBq9_13intent_engine4planNtB7_12PlanExecutor7execute0B9_
FN:74,_RNvMNtCsjp9E11WtBq9_13intent_engine4planNtB2_10TaskStatus11from_db_str
FN:84,_RNvMNtCsjp9E11WtBq9_13intent_engine4planNtB2_10TaskStatus6as_str
FN:65,_RNvMNtCsjp9E11WtBq9_13intent_engine4planNtB2_10TaskStatus9as_db_str
FN:161,_RNvMs0_NtCsjp9E11WtBq9_13intent_engine4planNtB5_10PlanResult7success
FN:712,_RNvMs1_NtCsjp9E11WtBq9_13intent_engine4planNtB5_12PlanExecutor10tarjan_scc
FN:464,_RNvMs1_NtCsjp9E11WtBq9_13intent_engine4planNtB5_12PlanExecutor17create_task_in_tx
FN:498,_RNvMs1_NtCsjp9E11WtBq9_13intent_engine4planNtB5_12PlanExecutor17update_task_in_tx
FN:576,_RNvMs1_NtCsjp9E11WtBq9_13intent_engine4planNtB5_12PlanExecutor18build_dependencies
FN:432,_RNvMs1_NtCsjp9E11WtBq9_13intent_engine4planNtB5_12PlanExecutor19find_tasks_by_names
FN:615,_RNvMs1_NtCsjp9E11WtBq9_13intent_engine4planNtB5_12PlanExecutor21validate_dependencies
FN:636,_RNvMs1_NtCsjp9E11WtBq9_13intent_engine4planNtB5_12PlanExecutor27validate_batch_single_doing
FN:548,_RNvMs1_NtCsjp9E11WtBq9_13intent_engine4planNtB5_12PlanExecutor28build_parent_child_relations
FN:656,_RNvMs1_NtCsjp9E11WtBq9_13intent_engine4planNtB5_12PlanExecutor28detect_circular_dependencies
FN:333,_RNvMs1_NtCsjp9E11WtBq9_13intent_engine4planNtB5_12PlanExecutor3new
FN:338,_RNvMs1_NtCsjp9E11WtBq9_13intent_engine4planNtB5_12PlanExecutor7execute
FN:126,_RNvMs_NtCsjp9E11WtBq9_13intent_engine4planNtB4_13PriorityValue6as_str
FN:105,_RNvMs_NtCsjp9E11WtBq9_13intent_engine4planNtB4_13PriorityValue6to_int
FN:115,_RNvMs_NtCsjp9E11WtBq9_13intent_engine4planNtB4_13PriorityValue8from_int
FN:195,_RNvNtCsjp9E11WtBq9_13intent_engine4plan17extract_all_names
FN:222,_RNvNtCsjp9E11WtBq9_13intent_engine4plan17flatten_task_tree
FN:270,_RNvNtCsjp9E11WtBq9_13intent_engine4plan19classify_operations
FN:302,_RNvNtCsjp9E11WtBq9_13intent_engine4plan20find_duplicate_names
FN:226,_RNvNtCsjp9E11WtBq9_13intent_engine4plan27flatten_task_tree_recursive
FN:722,_RNvNvMs1_NtCsjp9E11WtBq9_13intent_engine4planNtB7_12PlanExecutor10tarjan_scc13strongconnect
FN:74,_RNvMNtCs86Lp2I5pN1o_13intent_engine4planNtB2_10TaskStatus11from_db_str
FN:84,_RNvMNtCs86Lp2I5pN1o_13intent_engine4planNtB2_10TaskStatus6as_str
FN:2012,_RNCNvNtNtCs86Lp2I5pN1o_13intent_engine4plan5testss_28test_plan_executor_valid_dag0B7_
FN:2117,_RNCNvNtNtCs86Lp2I5pN1o_13intent_engine4plan5testss_30test_find_tasks_by_names_empty0B7_
FN:1623,_RNCNvNtNtCs86Lp2I5pN1o_13intent_engine4plan5testss_30test_plan_executor_idempotency0B7_
FN:1523,_RNCNvNtNtCs86Lp2I5pN1o_13intent_engine4plan5testss_30test_plan_executor_integration0B7_
FN:1764,_RNCNvNtNtCs86Lp2I5pN1o_13intent_engine4plan5testss_31test_plan_executor_dependencies0B7_
FN:1902,_RNCNvNtNtCs86Lp2I5pN1o_13intent_engine4plan5testss_31test_plan_executor_simple_cycle0B7_
FN:2128,_RNCNvNtNtCs86Lp2I5pN1o_13intent_engine4plan5testss_32test_find_tasks_by_names_partial0B7_
FN:2177,_RNCNvNtNtCs86Lp2I5pN1o_13intent_engine4plan5testss_32test_plan_1000_tasks_performance0B7_
FN:2216,_RNCNvNtNtCs86Lp2I5pN1o_13intent_engine4plan5testss_32test_plan_deep_nesting_20_levels0B7_
FN:1952,_RNCNvNtNtCs86Lp2I5pN1o_13intent_engine4plan5testss_32test_plan_executor_complex_cycle0B7_
FN:2080,_RNCNvNtNtCs86Lp2I5pN1o_13intent_engine4plan5testss_34test_plan_executor_self_dependency0B7_
FN:1414,_RNCNvNtNtCs86Lp2I5pN1o_13intent_engine4plan5testss_36test_flatten_task_tree_many_siblings0B7_
FN:1869,_RNCNvNtNtCs86Lp2I5pN1o_13intent_engine4plan5testss_37test_plan_executor_invalid_dependency0B7_
FN:178,_RINvMs0_NtCs86Lp2I5pN1o_13intent_engine4planNtB6_10PlanResult5errorNtNtCs456UZznmu7y_5alloc6string6StringEB8_
FN:178,_RINvMs0_NtCs86Lp2I5pN1o_13intent_engine4planNtB6_10PlanResult5errorReEB8_
FN:470,_RNCNCNvMs1_NtCs86Lp2I5pN1o_13intent_engine4planNtB9_12PlanExecutor17create_task_in_tx00Bb_
FN:586,_RNCNCNvMs1_NtCs86Lp2I5pN1o_13intent_engine4planNtB9_12PlanExecutor18build_dependencies00Bb_
FN:591,_RNCNCNvMs1_NtCs86Lp2I5pN1o_13intent_engine4planNtB9_12PlanExecutor18build_dependencies0s_0Bb_
FN:556,_RNCNCNvMs1_NtCs86Lp2I5pN1o_13intent_engine4planNtB9_12PlanExecutor28build_parent_child_relations00Bb_
FN:560,_RNCNCNvMs1_NtCs86Lp2I5pN1o_13intent_engine4planNtB9_12PlanExecutor28build_parent_child_relations0s_0Bb_
FN:410,_RNCNCNvMs1_NtCs86Lp2I5pN1o_13intent_engine4planNtB9_12PlanExecutor7execute00Bb_
FN:468,_RNCNvMs1_NtCs86Lp2I5pN1o_13intent_engine4planNtB7_12PlanExecutor17create_task_in_tx0B9_
FN:503,_RNCNvMs1_NtCs86Lp2I5pN1o_13intent_engine4planNtB7_12PlanExecutor17update_task_in_tx0B9_
FN:581,_RNCNvMs1_NtCs86Lp2I5pN1o_13intent_engine4planNtB7_12PlanExecutor18build_dependencies0B9_
FN:432,_RNCNvMs1_NtCs86Lp2I5pN1o_13intent_engine4planNtB7_12PlanExecutor19find_tasks_by_names0B9_
FN:617,_RNCNvMs1_NtCs86Lp2I5pN1o_13intent_engine4planNtB7_12PlanExecutor21validate_dependencies0B9_
FN:640,_RNCNvMs1_NtCs86Lp2I5pN1o_13intent_engine4planNtB7_12PlanExecutor27validate_batch_single_doing0B9_
FN:645,_RNCNvMs1_NtCs86Lp2I5pN1o_13intent_engine4planNtB7_12PlanExecutor27validate_batch_single_doings_0B9_
FN:553,_RNCNvMs1_NtCs86Lp2I5pN1o_13intent_engine4planNtB7_12PlanExecutor28build_parent_child_relations0B9_
FN:665,_RNCNvMs1_NtCs86Lp2I5pN1o_13intent_engine4planNtB7_12PlanExecutor28detect_circular_dependencies0B9_
FN:697,_RNCNvMs1_NtCs86Lp2I5pN1o_13intent_engine4planNtB7_12PlanExecutor28detect_circular_dependenciess_0B9_
FN:338,_RNCNvMs1_NtCs86Lp2I5pN1o_13intent_engine4planNtB7_12PlanExecutor7execute0B9_
FN:2294,_RNvNtNtCs86Lp2I5pN1o_13intent_engine4plan14dataflow_testss_45test_complete_dataflow_status_and_active_form
FN:65,_RNvMNtCs86Lp2I5pN1o_13intent_engine4planNtB2_10TaskStatus9as_db_str
FN:161,_RNvMs0_NtCs86Lp2I5pN1o_13intent_engine4planNtB5_10PlanResult7success
FN:712,_RNvMs1_NtCs86Lp2I5pN1o_13intent_engine4planNtB5_12PlanExecutor10tarjan_scc
FN:464,_RNvMs1_NtCs86Lp2I5pN1o_13intent_engine4planNtB5_12PlanExecutor17create_task_in_tx
FN:498,_RNvMs1_NtCs86Lp2I5pN1o_13intent_engine4planNtB5_12PlanExecutor17update_task_in_tx
FN:576,_RNvMs1_NtCs86Lp2I5pN1o_13intent_engine4planNtB5_12PlanExecutor18build_dependencies
FN:432,_RNvMs1_NtCs86Lp2I5pN1o_13intent_engine4planNtB5_12PlanExecutor19find_tasks_by_names
FN:615,_RNvMs1_NtCs86Lp2I5pN1o_13intent_engine4planNtB5_12PlanExecutor21validate_dependencies
FN:636,_RNvMs1_NtCs86Lp2I5pN1o_13intent_engine4planNtB5_12PlanExecutor27validate_batch_single_doing
FN:548,_RNvMs1_NtCs86Lp2I5pN1o_13intent_engine4planNtB5_12PlanExecutor28build_parent_child_relations
FN:656,_RNvMs1_NtCs86Lp2I5pN1o_13intent_engine4planNtB5_12PlanExecutor28detect_circular_dependencies
FN:333,_RNvMs1_NtCs86Lp2I5pN1o_13intent_engine4planNtB5_12PlanExecutor3new
FN:338,_RNvMs1_NtCs86Lp2I5pN1o_13intent_engine4planNtB5_12PlanExecutor7execute
FN:126,_RNvMs_NtCs86Lp2I5pN1o_13intent_engine4planNtB4_13PriorityValue6as_str
FN:105,_RNvMs_NtCs86Lp2I5pN1o_13intent_engine4planNtB4_13PriorityValue6to_int
FN:115,_RNvMs_NtCs86Lp2I5pN1o_13intent_engine4planNtB4_13PriorityValue8from_int
FN:195,_RNvNtCs86Lp2I5pN1o_13intent_engine4plan17extract_all_names
FN:222,_RNvNtCs86Lp2I5pN1o_13intent_engine4plan17flatten_task_tree
FN:270,_RNvNtCs86Lp2I5pN1o_13intent_engine4plan19classify_operations
FN:302,_RNvNtCs86Lp2I5pN1o_13intent_engine4plan20find_duplicate_names
FN:226,_RNvNtCs86Lp2I5pN1o_13intent_engine4plan27flatten_task_tree_recursive
FN:722,_RNvNvMs1_NtCs86Lp2I5pN1o_13intent_engine4planNtB7_12PlanExecutor10tarjan_scc13strongconnect
FN:2223,_RNvNCNvNtNtCs86Lp2I5pN1o_13intent_engine4plan5testss_32test_plan_deep_nesting_20_levels015build_deep_tree
FN:913,_RNvNtNtCs86Lp2I5pN1o_13intent_engine4plan5testss_21test_task_tree_nested
FN:901,_RNvNtNtCs86Lp2I5pN1o_13intent_engine4plan5testss_22test_plan_result_error
FN:885,_RNvNtNtCs86Lp2I5pN1o_13intent_engine4plan5testss_24test_plan_result_success
FN:808,_RNvNtNtCs86Lp2I5pN1o_13intent_engine4plan5testss_26test_priority_value_as_str
FN:791,_RNvNtNtCs86Lp2I5pN1o_13intent_engine4plan5testss_26test_priority_value_to_int
FN:1346,_RNvNtNtCs86Lp2I5pN1o_13intent_engine4plan5testss_28test_flatten_task_tree_empty
FN:2012,_RNvNtNtCs86Lp2I5pN1o_13intent_engine4plan5testss_28test_plan_executor_valid_dag
FN:799,_RNvNtNtCs86Lp2I5pN1o_13intent_engine4plan5testss_28test_priority_value_from_int
FN:994,_RNvNtNtCs86Lp2I5pN1o_13intent_engine4plan5testss_29test_extract_all_names_nested
FN:965,_RNvNtNtCs86Lp2I5pN1o_13intent_engine4plan5testss_29test_extract_all_names_simple
FN:1063,_RNvNtNtCs86Lp2I5pN1o_13intent_engine4plan5testss_29test_flatten_task_tree_nested
FN:1041,_RNvNtNtCs86Lp2I5pN1o_13intent_engine4plan5testss_29test_flatten_task_tree_simple
FN:1187,_RNvNtNtCs86Lp2I5pN1o_13intent_engine4plan5testss_30test_classify_operations_mixed
FN:2117,_RNvNtNtCs86Lp2I5pN1o_13intent_engine4plan5testss_30test_find_tasks_by_names_empty
FN:1623,_RNvNtNtCs86Lp2I5pN1o_13intent_engine4plan5testss_30test_plan_executor_idempotency
FN:1523,_RNvNtNtCs86Lp2I5pN1o_13intent_engine4plan5testss_30test_plan_executor_integration
FN:1764,_RNvNtNtCs86Lp2I5pN1o_13intent_engine4plan5testss_31test_plan_executor_dependencies
FN:1902,_RNvNtNtCs86Lp2I5pN1o_13intent_engine4plan5testss_31test_plan_executor_simple_cycle
FN:864,_RNvNtNtCs86Lp2I5pN1o_13intent_engine4plan5testss_31test_plan_request_serialization
FN:1319,_RNvNtNtCs86Lp2I5pN1o_13intent_engine4plan5testss_32test_find_duplicate_names_nested
FN:2128,_RNvNtNtCs86Lp2I5pN1o_13intent_engine4plan5testss_32test_find_tasks_by_names_partial
FN:2177,_RNvNtNtCs86Lp2I5pN1o_13intent_engine4plan5testss_32test_plan_1000_tasks_performance
FN:2216,_RNvNtNtCs86Lp2I5pN1o_13intent_engine4plan5testss_32test_plan_deep_nesting_20_levels
FN:1952,_RNvNtNtCs86Lp2I5pN1o_13intent_engine4plan5testss_32test_plan_executor_complex_cycle
FN:2263,_RNvNtNtCs86Lp2I5pN1o_13intent_engine4plan5testss_33test_flatten_preserves_all_fields
FN:2080,_RNvNtNtCs86Lp2I5pN1o_13intent_engine4plan5testss_34test_plan_executor_self_dependency
FN:1112,_RNvNtNtCs86Lp2I5pN1o_13intent_engine4plan5testss_35test_classify_operations_all_create
FN:1145,_RNvNtNtCs86Lp2I5pN1o_13intent_engine4plan5testss_35test_classify_operations_all_update
FN:1353,_RNvNtNtCs86Lp2I5pN1o_13intent_engine4plan5testss_35test_flatten_task_tree_deep_nesting
FN:1446,_RNvNtNtCs86Lp2I5pN1o_13intent_engine4plan5testss_36test_flatten_task_tree_complex_mixed
FN:1411,_RNvNtNtCs86Lp2I5pN1o_13intent_engine4plan5testss_36test_flatten_task_tree_many_siblings
FN:1869,_RNvNtNtCs86Lp2I5pN1o_13intent_engine4plan5testss_37test_plan_executor_invalid_dependency
FN:830,_RNvNtNtCs86Lp2I5pN1o_13intent_engine4plan5testss_38test_plan_request_deserialization_full
FN:1250,_RNvNtNtCs86Lp2I5pN1o_13intent_engine4plan5testss_39test_find_duplicate_names_no_duplicates
FN:1225,_RNvNtNtCs86Lp2I5pN1o_13intent_engine4plan5testss_41test_classify_operations_explicit_task_id
FN:1279,_RNvNtNtCs86Lp2I5pN1o_13intent_engine4plan5testss_41test_find_duplicate_names_with_duplicates
FN:816,_RNvNtNtCs86Lp2I5pN1o_13intent_engine4plan5testss_41test_plan_request_deserialization_minimal
FN:954,_RNvNtNtCs86Lp2I5pN1o_13intent_engine4plan5testss_52test_priority_value_case_insensitive_deserialization
FN:2294,_RNCNvNtNtCs86Lp2I5pN1o_13intent_engine4plan14dataflow_testss_45test_complete_dataflow_status_and_active_form0B7_
FNDA:0,_RINvMs0_NtCsjp9E11WtBq9_13intent_engine4planNtB6_10PlanResult5errorNtNtCs456UZznmu7y_5alloc6string6StringEB8_
FNDA:0,_RNCNCNvMs1_NtCsjp9E11WtBq9_13intent_engine4planNtB9_12PlanExecutor17create_task_in_tx00Bb_
FNDA:0,_RNCNCNvMs1_NtCsjp9E11WtBq9_13intent_engine4planNtB9_12PlanExecutor18build_dependencies00Bb_
FNDA:0,_RNCNCNvMs1_NtCsjp9E11WtBq9_13intent_engine4planNtB9_12PlanExecutor18build_dependencies0s_0Bb_
FNDA:0,_RNCNCNvMs1_NtCsjp9E11WtBq9_13intent_engine4planNtB9_12PlanExecutor28build_parent_child_relations00Bb_
FNDA:0,_RNCNCNvMs1_NtCsjp9E11WtBq9_13intent_engine4planNtB9_12PlanExecutor28build_parent_child_relations0s_0Bb_
FNDA:0,_RNCNCNvMs1_NtCsjp9E11WtBq9_13intent_engine4planNtB9_12PlanExecutor7execute00Bb_
FNDA:0,_RNCNvMs1_NtCsjp9E11WtBq9_13intent_engine4planNtB7_12PlanExecutor17create_task_in_tx0B9_
FNDA:0,_RNCNvMs1_NtCsjp9E11WtBq9_13intent_engine4planNtB7_12PlanExecutor17update_task_in_tx0B9_
FNDA:0,_RNCNvMs1_NtCsjp9E11WtBq9_13intent_engine4planNtB7_12PlanExecutor18build_dependencies0B9_
FNDA:0,_RNCNvMs1_NtCsjp9E11WtBq9_13intent_engine4planNtB7_12PlanExecutor19find_tasks_by_names0B9_
FNDA:0,_RNCNvMs1_NtCsjp9E11WtBq9_13intent_engine4planNtB7_12PlanExecutor21validate_dependencies0B9_
FNDA:0,_RNCNvMs1_NtCsjp9E11WtBq9_13intent_engine4planNtB7_12PlanExecutor27validate_batch_single_doing0B9_
FNDA:0,_RNCNvMs1_NtCsjp9E11WtBq9_13intent_engine4planNtB7_12PlanExecutor27validate_batch_single_doings_0B9_
FNDA:0,_RNCNvMs1_NtCsjp9E11WtBq9_13intent_engine4planNtB7_12PlanExecutor28build_parent_child_relations0B9_
FNDA:0,_RNCNvMs1_NtCsjp9E11WtBq9_13intent_engine4planNtB7_12PlanExecutor28detect_circular_dependencies0B9_
FNDA:0,_RNCNvMs1_NtCsjp9E11WtBq9_13intent_engine4planNtB7_12PlanExecutor28detect_circular_dependenciess_0B9_
FNDA:0,_RNCNvMs1_NtCsjp9E11WtBq9_13intent_engine4planNtB7_12PlanExecutor7execute0B9_
FNDA:0,_RNvMNtCsjp9E11WtBq9_13intent_engine4planNtB2_10TaskStatus11from_db_str
FNDA:0,_RNvMNtCsjp9E11WtBq9_13intent_engine4planNtB2_10TaskStatus6as_str
FNDA:0,_RNvMNtCsjp9E11WtBq9_13intent_engine4planNtB2_10TaskStatus9as_db_str
FNDA:0,_RNvMs0_NtCsjp9E11WtBq9_13intent_engine4planNtB5_10PlanResult7success
FNDA:0,_RNvMs1_NtCsjp9E11WtBq9_13intent_engine4planNtB5_12PlanExecutor10tarjan_scc
FNDA:0,_RNvMs1_NtCsjp9E11WtBq9_13intent_engine4planNtB5_12PlanExecutor17create_task_in_tx
FNDA:0,_RNvMs1_NtCsjp9E11WtBq9_13intent_engine4planNtB5_12PlanExecutor17update_task_in_tx
FNDA:0,_RNvMs1_NtCsjp9E11WtBq9_13intent_engine4planNtB5_12PlanExecutor18build_dependencies
FNDA:0,_RNvMs1_NtCsjp9E11WtBq9_13intent_engine4planNtB5_12PlanExecutor19find_tasks_by_names
FNDA:0,_RNvMs1_NtCsjp9E11WtBq9_13intent_engine4planNtB5_12PlanExecutor21validate_dependencies
FNDA:0,_RNvMs1_NtCsjp9E11WtBq9_13intent_engine4planNtB5_12PlanExecutor27validate_batch_single_doing
FNDA:0,_RNvMs1_NtCsjp9E11WtBq9_13intent_engine4planNtB5_12PlanExecutor28build_parent_child_relations
FNDA:0,_RNvMs1_NtCsjp9E11WtBq9_13intent_engine4planNtB5_12PlanExecutor28detect_circular_dependencies
FNDA:0,_RNvMs1_NtCsjp9E11WtBq9_13intent_engine4planNtB5_12PlanExecutor3new
FNDA:0,_RNvMs1_NtCsjp9E11WtBq9_13intent_engine4planNtB5_12PlanExecutor7execute
FNDA:0,_RNvMs_NtCsjp9E11WtBq9_13intent_engine4planNtB4_13PriorityValue6as_str
FNDA:0,_RNvMs_NtCsjp9E11WtBq9_13intent_engine4planNtB4_13PriorityValue6to_int
FNDA:0,_RNvMs_NtCsjp9E11WtBq9_13intent_engine4planNtB4_13PriorityValue8from_int
FNDA:0,_RNvNtCsjp9E11WtBq9_13intent_engine4plan17extract_all_names
FNDA:0,_RNvNtCsjp9E11WtBq9_13intent_engine4plan17flatten_task_tree
FNDA:0,_RNvNtCsjp9E11WtBq9_13intent_engine4plan19classify_operations
FNDA:0,_RNvNtCsjp9E11WtBq9_13intent_engine4plan20find_duplicate_names
FNDA:0,_RNvNtCsjp9E11WtBq9_13intent_engine4plan27flatten_task_tree_recursive
FNDA:0,_RNvNvMs1_NtCsjp9E11WtBq9_13intent_engine4planNtB7_12PlanExecutor10tarjan_scc13strongconnect
FNDA:0,_RNvMNtCs86Lp2I5pN1o_13intent_engine4planNtB2_10TaskStatus11from_db_str
FNDA:0,_RNvMNtCs86Lp2I5pN1o_13intent_engine4planNtB2_10TaskStatus6as_str
FNDA:1,_RNCNvNtNtCs86Lp2I5pN1o_13intent_engine4plan5testss_28test_plan_executor_valid_dag0B7_
FNDA:1,_RNCNvNtNtCs86Lp2I5pN1o_13intent_engine4plan5testss_30test_find_tasks_by_names_empty0B7_
FNDA:1,_RNCNvNtNtCs86Lp2I5pN1o_13intent_engine4plan5testss_30test_plan_executor_idempotency0B7_
FNDA:1,_RNCNvNtNtCs86Lp2I5pN1o_13intent_engine4plan5testss_30test_plan_executor_integration0B7_
FNDA:1,_RNCNvNtNtCs86Lp2I5pN1o_13intent_engine4plan5testss_31test_plan_executor_dependencies0B7_
FNDA:1,_RNCNvNtNtCs86Lp2I5pN1o_13intent_engine4plan5testss_31test_plan_executor_simple_cycle0B7_
FNDA:1,_RNCNvNtNtCs86Lp2I5pN1o_13intent_engine4plan5testss_32test_find_tasks_by_names_partial0B7_
FNDA:1,_RNCNvNtNtCs86Lp2I5pN1o_13intent_engine4plan5testss_32test_plan_1000_tasks_performance0B7_
FNDA:1,_RNCNvNtNtCs86Lp2I5pN1o_13intent_engine4plan5testss_32test_plan_deep_nesting_20_levels0B7_
FNDA:1,_RNCNvNtNtCs86Lp2I5pN1o_13intent_engine4plan5testss_32test_plan_executor_complex_cycle0B7_
FNDA:1,_RNCNvNtNtCs86Lp2I5pN1o_13intent_engine4plan5testss_34test_plan_executor_self_dependency0B7_
FNDA:10,_RNCNvNtNtCs86Lp2I5pN1o_13intent_engine4plan5testss_36test_flatten_task_tree_many_siblings0B7_
FNDA:1,_RNCNvNtNtCs86Lp2I5pN1o_13intent_engine4plan5testss_37test_plan_executor_invalid_dependency0B7_
FNDA:4,_RINvMs0_NtCs86Lp2I5pN1o_13intent_engine4planNtB6_10PlanResult5errorNtNtCs456UZznmu7y_5alloc6string6StringEB8_
FNDA:1,_RINvMs0_NtCs86Lp2I5pN1o_13intent_engine4planNtB6_10PlanResult5errorReEB8_
FNDA:1026,_RNCNCNvMs1_NtCs86Lp2I5pN1o_13intent_engine4planNtB9_12PlanExecutor17create_task_in_tx00Bb_
FNDA:0,_RNCNCNvMs1_NtCs86Lp2I5pN1o_13intent_engine4planNtB9_12PlanExecutor18build_dependencies00Bb_
FNDA:0,_RNCNCNvMs1_NtCs86Lp2I5pN1o_13intent_engine4planNtB9_12PlanExecutor18build_dependencies0s_0Bb_
FNDA:0,_RNCNCNvMs1_NtCs86Lp2I5pN1o_13intent_engine4planNtB9_12PlanExecutor28build_parent_child_relations00Bb_
FNDA:0,_RNCNCNvMs1_NtCs86Lp2I5pN1o_13intent_engine4planNtB9_12PlanExecutor28build_parent_child_relations0s_0Bb_
FNDA:1,_RNCNCNvMs1_NtCs86Lp2I5pN1o_13intent_engine4planNtB9_12PlanExecutor7execute00Bb_
FNDA:1037,_RNCNvMs1_NtCs86Lp2I5pN1o_13intent_engine4planNtB7_12PlanExecutor17create_task_in_tx0B9_
FNDA:6,_RNCNvMs1_NtCs86Lp2I5pN1o_13intent_engine4planNtB7_12PlanExecutor17update_task_in_tx0B9_
FNDA:10,_RNCNvMs1_NtCs86Lp2I5pN1o_13intent_engine4planNtB7_12PlanExecutor18build_dependencies0B9_
FNDA:16,_RNCNvMs1_NtCs86Lp2I5pN1o_13intent_engine4planNtB7_12PlanExecutor19find_tasks_by_names0B9_
FNDA:1050,_RNCNvMs1_NtCs86Lp2I5pN1o_13intent_engine4planNtB7_12PlanExecutor21validate_dependencies0B9_
FNDA:1,_RNCNvMs1_NtCs86Lp2I5pN1o_13intent_engine4planNtB7_12PlanExecutor27validate_batch_single_doing0B9_
FNDA:0,_RNCNvMs1_NtCs86Lp2I5pN1o_13intent_engine4planNtB7_12PlanExecutor27validate_batch_single_doings_0B9_
FNDA:10,_RNCNvMs1_NtCs86Lp2I5pN1o_13intent_engine4planNtB7_12PlanExecutor28build_parent_child_relations0B9_
FNDA:1049,_RNCNvMs1_NtCs86Lp2I5pN1o_13intent_engine4planNtB7_12PlanExecutor28detect_circular_dependencies0B9_
FNDA:5,_RNCNvMs1_NtCs86Lp2I5pN1o_13intent_engine4planNtB7_12PlanExecutor28detect_circular_dependenciess_0B9_
FNDA:14,_RNCNvMs1_NtCs86Lp2I5pN1o_13intent_engine4planNtB7_12PlanExecutor7execute0B9_
FNDA:1,_RNvNtNtCs86Lp2I5pN1o_13intent_engine4plan14dataflow_testss_45test_complete_dataflow_status_and_active_form
FNDA:1,_RNvMNtCs86Lp2I5pN1o_13intent_engine4planNtB2_10TaskStatus9as_db_str
FNDA:11,_RNvMs0_NtCs86Lp2I5pN1o_13intent_engine4planNtB5_10PlanResult7success
FNDA:12,_RNvMs1_NtCs86Lp2I5pN1o_13intent_engine4planNtB5_12PlanExecutor10tarjan_scc
FNDA:1037,_RNvMs1_NtCs86Lp2I5pN1o_13intent_engine4planNtB5_12PlanExecutor17create_task_in_tx
FNDA:6,_RNvMs1_NtCs86Lp2I5pN1o_13intent_engine4planNtB5_12PlanExecutor17update_task_in_tx
FNDA:10,_RNvMs1_NtCs86Lp2I5pN1o_13intent_engine4planNtB5_12PlanExecutor18build_dependencies
FNDA:16,_RNvMs1_NtCs86Lp2I5pN1o_13intent_engine4planNtB5_12PlanExecutor19find_tasks_by_names
FNDA:14,_RNvMs1_NtCs86Lp2I5pN1o_13intent_engine4planNtB5_12PlanExecutor21validate_dependencies
FNDA:10,_RNvMs1_NtCs86Lp2I5pN1o_13intent_engine4planNtB5_12PlanExecutor27validate_batch_single_doing
FNDA:10,_RNvMs1_NtCs86Lp2I5pN1o_13intent_engine4planNtB5_12PlanExecutor28build_parent_child_relations
FNDA:13,_RNvMs1_NtCs86Lp2I5pN1o_13intent_engine4planNtB5_12PlanExecutor28detect_circular_dependencies
FNDA:13,_RNvMs1_NtCs86Lp2I5pN1o_13intent_engine4planNtB5_12PlanExecutor3new
FNDA:14,_RNvMs1_NtCs86Lp2I5pN1o_13intent_engine4planNtB5_12PlanExecutor7execute
FNDA:4,_RNvMs_NtCs86Lp2I5pN1o_13intent_engine4planNtB4_13PriorityValue6as_str
FNDA:1034,_RNvMs_NtCs86Lp2I5pN1o_13intent_engine4planNtB4_13PriorityValue6to_int
FNDA:5,_RNvMs_NtCs86Lp2I5pN1o_13intent_engine4planNtB4_13PriorityValue8from_int
FNDA:82,_RNvNtCs86Lp2I5pN1o_13intent_engine4plan17extract_all_names
FNDA:21,_RNvNtCs86Lp2I5pN1o_13intent_engine4plan17flatten_task_tree
FNDA:4,_RNvNtCs86Lp2I5pN1o_13intent_engine4plan19classify_operations
FNDA:17,_RNvNtCs86Lp2I5pN1o_13intent_engine4plan20find_duplicate_names
FNDA:51,_RNvNtCs86Lp2I5pN1o_13intent_engine4plan27flatten_task_tree_recursive
FNDA:1048,_RNvNvMs1_NtCs86Lp2I5pN1o_13intent_engine4planNtB7_12PlanExecutor10tarjan_scc13strongconnect
FNDA:20,_RNvNCNvNtNtCs86Lp2I5pN1o_13intent_engine4plan5testss_32test_plan_deep_nesting_20_levels015build_deep_tree
FNDA:1,_RNvNtNtCs86Lp2I5pN1o_13intent_engine4plan5testss_21test_task_tree_nested
FNDA:1,_RNvNtNtCs86Lp2I5pN1o_13intent_engine4plan5testss_22test_plan_result_error
FNDA:1,_RNvNtNtCs86Lp2I5pN1o_13intent_engine4plan5testss_24test_plan_result_success
FNDA:1,_RNvNtNtCs86Lp2I5pN1o_13intent_engine4plan5testss_26test_priority_value_as_str
FNDA:1,_RNvNtNtCs86Lp2I5pN1o_13intent_engine4plan5testss_26test_priority_value_to_int
FNDA:1,_RNvNtNtCs86Lp2I5pN1o_13intent_engine4plan5testss_28test_flatten_task_tree_empty
FNDA:1,_RNvNtNtCs86Lp2I5pN1o_13intent_engine4plan5testss_28test_plan_executor_valid_dag
FNDA:1,_RNvNtNtCs86Lp2I5pN1o_13intent_engine4plan5testss_28test_priority_value_from_int
FNDA:1,_RNvNtNtCs86Lp2I5pN1o_13intent_engine4plan5testss_29test_extract_all_names_nested
FNDA:1,_RNvNtNtCs86Lp2I5pN1o_13intent_engine4plan5testss_29test_extract_all_names_simple
FNDA:1,_RNvNtNtCs86Lp2I5pN1o_13intent_engine4plan5testss_29test_flatten_task_tree_nested
FNDA:1,_RNvNtNtCs86Lp2I5pN1o_13intent_engine4plan5testss_29test_flatten_task_tree_simple
FNDA:1,_RNvNtNtCs86Lp2I5pN1o_13intent_engine4plan5testss_30test_classify_operations_mixed
FNDA:1,_RNvNtNtCs86Lp2I5pN1o_13intent_engine4plan5testss_30test_find_tasks_by_names_empty
FNDA:1,_RNvNtNtCs86Lp2I5pN1o_13intent_engine4plan5testss_30test_plan_executor_idempotency
FNDA:1,_RNvNtNtCs86Lp2I5pN1o_13intent_engine4plan5testss_30test_plan_executor_integration
FNDA:1,_RNvNtNtCs86Lp2I5pN1o_13intent_engine4plan5testss_31test_plan_executor_dependencies
FNDA:1,_RNvNtNtCs86Lp2I5pN1o_13intent_engine4plan5testss_31test_plan_executor_simple_cycle
FNDA:1,_RNvNtNtCs86Lp2I5pN1o_13intent_engine4plan5testss_31test_plan_request_serialization
FNDA:1,_RNvNtNtCs86Lp2I5pN1o_13intent_engine4plan5testss_32test_find_duplicate_names_nested
FNDA:1,_RNvNtNtCs86Lp2I5pN1o_13intent_engine4plan5testss_32test_find_tasks_by_names_partial
FNDA:1,_RNvNtNtCs86Lp2I5pN1o_13intent_engine4plan5testss_32test_plan_1000_tasks_performance
FNDA:1,_RNvNtNtCs86Lp2I5pN1o_13intent_engine4plan5testss_32test_plan_deep_nesting_20_levels
FNDA:1,_RNvNtNtCs86Lp2I5pN1o_13intent_engine4plan5testss_32test_plan_executor_complex_cycle
FNDA:1,_RNvNtNtCs86Lp2I5pN1o_13intent_engine4plan5testss_33test_flatten_preserves_all_fields
FNDA:1,_RNvNtNtCs86Lp2I5pN1o_13intent_engine4plan5testss_34test_plan_executor_self_dependency
FNDA:1,_RNvNtNtCs86Lp2I5pN1o_13intent_engine4plan5testss_35test_classify_operations_all_create
FNDA:1,_RNvNtNtCs86Lp2I5pN1o_13intent_engine4plan5testss_35test_classify_operations_all_update
FNDA:1,_RNvNtNtCs86Lp2I5pN1o_13intent_engine4plan5testss_35test_flatten_task_tree_deep_nesting
FNDA:1,_RNvNtNtCs86Lp2I5pN1o_13intent_engine4plan5testss_36test_flatten_task_tree_complex_mixed
FNDA:1,_RNvNtNtCs86Lp2I5pN1o_13intent_engine4plan5testss_36test_flatten_task_tree_many_siblings
FNDA:1,_RNvNtNtCs86Lp2I5pN1o_13intent_engine4plan5testss_37test_plan_executor_invalid_dependency
FNDA:1,_RNvNtNtCs86Lp2I5pN1o_13intent_engine4plan5testss_38test_plan_request_deserialization_full
FNDA:1,_RNvNtNtCs86Lp2I5pN1o_13intent_engine4plan5testss_39test_find_duplicate_names_no_duplicates
FNDA:1,_RNvNtNtCs86Lp2I5pN1o_13intent_engine4plan5testss_41test_classify_operations_explicit_task_id
FNDA:1,_RNvNtNtCs86Lp2I5pN1o_13intent_engine4plan5testss_41test_find_duplicate_names_with_duplicates
FNDA:1,_RNvNtNtCs86Lp2I5pN1o_13intent_engine4plan5testss_41test_plan_request_deserialization_minimal
FNDA:1,_RNvNtNtCs86Lp2I5pN1o_13intent_engine4plan5testss_52test_priority_value_case_insensitive_deserialization
FNDA:1,_RNCNvNtNtCs86Lp2I5pN1o_13intent_engine4plan14dataflow_testss_45test_complete_dataflow_status_and_active_form0B7_
FNF:96
FNH:89
DA:65,1
DA:66,1
DA:67,0
DA:68,1
DA:69,0
DA:71,1
DA:74,0
DA:75,0
DA:76,0
DA:77,0
DA:78,0
DA:79,0
DA:81,0
DA:84,0
DA:85,0
DA:86,0
DA:87,0
DA:88,0
DA:90,0
DA:105,1034
DA:106,1034
DA:107,3
DA:108,6
DA:109,1001
DA:110,24
DA:112,1034
DA:115,5
DA:116,5
DA:117,1
DA:118,1
DA:119,1
DA:120,1
DA:121,1
DA:123,5
DA:126,4
DA:127,4
DA:128,1
DA:129,1
DA:130,1
DA:131,1
DA:133,4
DA:161,11
DA:162,11
DA:163,11
DA:164,11
DA:165,11
DA:166,11
DA:167,11
DA:168,11
DA:169,11
DA:170,11
DA:171,11
DA:172,11
DA:173,11
DA:174,11
DA:175,11
DA:178,5
DA:179,5
DA:180,5
DA:181,5
DA:182,5
DA:183,5
DA:184,5
DA:185,5
DA:186,5
DA:187,5
DA:195,82
DA:196,82
DA:198,2195
DA:199,2113
DA:201,2113
DA:202,49
DA:203,2064
DA:206,82
DA:207,82
DA:222,21
DA:223,21
DA:224,21
DA:226,51
DA:227,51
DA:229,1126
DA:230,1075
DA:231,1075
DA:232,1075
DA:233,1075
DA:234,1075
DA:235,1075
DA:236,1075
DA:237,1075
DA:238,1075
DA:239,1075
DA:241,1075
DA:244,1075
DA:245,30
DA:246,30
DA:247,30
DA:248,30
DA:249,1045
DA:252,51
DA:253,51
DA:270,4
DA:271,4
DA:272,4
DA:273,4
DA:274,4
DA:276,11
DA:278,7
DA:280,1
DA:281,1
DA:282,1
DA:283,1
DA:284,6
DA:286,3
DA:287,3
DA:288,3
DA:289,3
DA:292,3
DA:295,7
DA:298,4
DA:299,4
DA:302,17
DA:303,17
DA:304,17
DA:306,1057
DA:307,1057
DA:308,1057
DA:309,1057
DA:310,2
DA:311,2
DA:312,1055
DA:315,17
DA:316,17
DA:333,13
DA:334,13
DA:335,13
DA:338,14
DA:340,14
DA:341,14
DA:342,0
DA:343,0
DA:344,0
DA:345,0
DA:346,14
DA:349,14
DA:352,14
DA:355,14
DA:358,14
DA:359,1
DA:360,13
DA:363,13
DA:364,3
DA:365,10
DA:368,10
DA:369,0
DA:370,10
DA:373,10
DA:376,10
DA:377,10
DA:378,10
DA:380,1053
DA:381,1043
DA:383,6
DA:384,6
DA:385,6
DA:388,1037
DA:389,1037
DA:390,1037
DA:395,10
DA:396,10
DA:399,10
DA:400,10
DA:401,10
DA:404,10
DA:408,10
DA:409,10
DA:410,10
DA:412,10
DA:414,1
DA:417,1
DA:418,1
DA:419,0
DA:420,9
DA:423,10
DA:424,10
DA:425,10
DA:426,10
DA:427,10
DA:428,10
DA:429,14
DA:432,16
DA:433,16
DA:434,1
DA:435,15
DA:437,15
DA:441,15
DA:442,15
DA:443,15
DA:447,15
DA:448,1068
DA:449,1053
DA:450,1053
DA:452,15
DA:454,23
DA:455,8
DA:456,8
DA:457,8
DA:458,8
DA:460,15
DA:461,16
DA:464,1037
DA:465,1037
DA:466,1037
DA:467,1037
DA:468,1037
DA:469,1037
DA:470,1037
DA:473,1037
DA:474,1
DA:475,1036
DA:478,1037
DA:479,1037
DA:480,1037
DA:481,1037
DA:482,1037
DA:483,1037
DA:484,1037
DA:485,1037
DA:486,1037
DA:487,1037
DA:488,1037
DA:489,1037
DA:490,1037
DA:491,1037
DA:493,1037
DA:494,1037
DA:498,6
DA:499,6
DA:500,6
DA:501,6
DA:502,6
DA:503,6
DA:505,6
DA:506,6
DA:507,6
DA:508,6
DA:509,6
DA:510,6
DA:511,0
DA:514,6
DA:515,4
DA:516,4
DA:517,4
DA:518,4
DA:519,4
DA:520,2
DA:523,6
DA:524,0
DA:525,0
DA:526,0
DA:527,0
DA:528,0
DA:529,6
DA:532,6
DA:533,0
DA:534,0
DA:535,0
DA:536,0
DA:537,0
DA:538,6
DA:544,6
DA:545,6
DA:548,10
DA:549,10
DA:550,10
DA:551,10
DA:552,10
DA:553,10
DA:554,1053
DA:555,1043
DA:556,27
DA:557,0
DA:558,0
DA:560,27
DA:561,0
DA:562,0
DA:564,27
DA:565,27
DA:566,27
DA:567,27
DA:568,27
DA:569,1016
DA:572,10
DA:573,10
DA:576,10
DA:577,10
DA:578,10
DA:579,10
DA:580,10
DA:581,10
DA:582,10
DA:584,1053
DA:585,1043
DA:586,7
DA:587,0
DA:588,0
DA:590,16
DA:591,9
DA:592,0
DA:593,0
DA:594,0
DA:595,0
DA:596,0
DA:598,9
DA:599,9
DA:600,9
DA:601,9
DA:602,9
DA:603,9
DA:604,9
DA:606,9
DA:608,1036
DA:611,10
DA:612,10
DA:615,14
DA:616,14
DA:617,1050
DA:619,1063
DA:620,1065
DA:621,16
DA:622,1
DA:623,1
DA:624,1
DA:625,1
DA:626,15
DA:630,13
DA:631,14
DA:636,10
DA:638,10
DA:639,10
DA:640,10
DA:641,10
DA:644,10
DA:645,0
DA:646,0
DA:647,0
DA:648,0
DA:649,0
DA:650,10
DA:652,10
DA:653,10
DA:656,13
DA:657,13
DA:658,0
DA:659,13
DA:662,13
DA:663,13
DA:664,13
DA:665,1049
DA:666,13
DA:669,13
DA:670,1049
DA:671,1064
DA:672,15
DA:673,15
DA:674,15
DA:679,1061
DA:680,1049
DA:681,1
DA:682,1
DA:683,1
DA:684,1
DA:685,1048
DA:689,12
DA:692,1055
DA:693,1045
DA:695,2
DA:696,2
DA:697,5
DA:698,2
DA:700,2
DA:701,2
DA:702,2
DA:703,2
DA:704,1043
DA:707,10
DA:708,13
DA:712,12
DA:713,12
DA:714,12
DA:715,12
DA:716,12
DA:717,12
DA:718,12
DA:719,12
DA:722,1048
DA:723,1048
DA:724,1048
DA:725,1048
DA:726,1048
DA:727,1048
DA:728,1048
DA:729,1048
DA:730,1048
DA:731,1048
DA:733,1048
DA:734,1048
DA:735,1048
DA:736,1048
DA:737,1048
DA:740,1048
DA:741,14
DA:742,3
DA:743,3
DA:744,3
DA:745,11
DA:746,2
DA:747,2
DA:748,9
DA:752,1048
DA:753,1045
DA:755,1048
DA:756,1048
DA:757,1048
DA:758,1048
DA:759,1045
DA:760,3
DA:762,1045
DA:763,3
DA:764,1048
DA:767,1048
DA:768,1048
DA:769,1045
DA:770,1045
DA:771,1045
DA:772,1045
DA:773,1045
DA:774,1045
DA:775,1045
DA:776,1045
DA:777,1045
DA:778,1045
DA:779,1045
DA:782,12
DA:783,12
DA:791,1
DA:792,1
DA:793,1
DA:794,1
DA:795,1
DA:796,1
DA:799,1
DA:800,1
DA:801,1
DA:802,1
DA:803,1
DA:804,1
DA:805,1
DA:808,1
DA:809,1
DA:810,1
DA:811,1
DA:812,1
DA:813,1
DA:816,1
DA:817,1
DA:818,1
DA:820,1
DA:821,1
DA:822,1
DA:823,1
DA:824,1
DA:825,1
DA:826,1
DA:827,1
DA:830,1
DA:831,1
DA:832,1
DA:833,1
DA:834,1
DA:835,1
DA:836,1
DA:837,1
DA:838,1
DA:839,1
DA:840,1
DA:841,1
DA:842,1
DA:843,1
DA:845,1
DA:847,1
DA:848,1
DA:849,1
DA:850,1
DA:851,1
DA:852,1
DA:854,1
DA:855,1
DA:856,1
DA:858,1
DA:859,1
DA:860,1
DA:861,1
DA:864,1
DA:865,1
DA:866,1
DA:867,1
DA:868,1
DA:869,1
DA:870,1
DA:871,1
DA:872,1
DA:873,1
DA:874,1
DA:875,1
DA:876,1
DA:878,1
DA:879,1
DA:880,1
DA:881,1
DA:882,1
DA:885,1
DA:886,1
DA:887,1
DA:888,1
DA:890,1
DA:892,1
DA:893,1
DA:894,1
DA:895,1
DA:896,1
DA:897,1
DA:898,1
DA:901,1
DA:902,1
DA:904,1
DA:905,1
DA:906,1
DA:907,1
DA:908,1
DA:909,1
DA:910,1
DA:913,1
DA:914,1
DA:915,1
DA:916,1
DA:917,1
DA:918,1
DA:919,1
DA:920,1
DA:921,1
DA:922,1
DA:923,1
DA:924,1
DA:925,1
DA:926,1
DA:927,1
DA:928,1
DA:929,1
DA:930,1
DA:931,1
DA:932,1
DA:933,1
DA:934,1
DA:935,1
DA:936,1
DA:937,1
DA:938,1
DA:939,1
DA:940,1
DA:941,1
DA:942,1
DA:943,1
DA:944,1
DA:946,1
DA:947,1
DA:949,1
DA:950,1
DA:951,1
DA:954,1
DA:956,1
DA:957,1
DA:958,1
DA:962,1
DA:965,1
DA:966,1
DA:967,1
DA:968,1
DA:969,1
DA:970,1
DA:971,1
DA:972,1
DA:973,1
DA:974,1
DA:975,1
DA:976,1
DA:977,1
DA:978,1
DA:979,1
DA:980,1
DA:981,1
DA:982,1
DA:983,1
DA:984,1
DA:985,1
DA:986,1
DA:989,1
DA:990,1
DA:991,1
DA:994,1
DA:995,1
DA:996,1
DA:997,1
DA:998,1
DA:999,1
DA:1000,1
DA:1001,1
DA:1002,1
DA:1003,1
DA:1004,1
DA:1005,1
DA:1006,1
DA:1007,1
DA:1008,1
DA:1009,1
DA:1010,1
DA:1011,1
DA:1012,1
DA:1013,1
DA:1014,1
DA:1015,1
DA:1016,1
DA:1017,1
DA:1018,1
DA:1019,1
DA:1020,1
DA:1021,1
DA:1022,1
DA:1023,1
DA:1024,1
DA:1025,1
DA:1026,1
DA:1027,1
DA:1028,1
DA:1029,1
DA:1030,1
DA:1031,1
DA:1032,1
DA:1033,1
DA:1034,1
DA:1036,1
DA:1037,1
DA:1038,1
DA:1041,1
DA:1042,1
DA:1043,1
DA:1044,1
DA:1045,1
DA:1046,1
DA:1047,1
DA:1048,1
DA:1049,1
DA:1050,1
DA:1051,1
DA:1053,1
DA:1054,1
DA:1055,1
DA:1056,1
DA:1057,1
DA:1058,1
DA:1059,1
DA:1060,1
DA:1063,1
DA:1064,1
DA:1065,1
DA:1066,1
DA:1067,1
DA:1068,1
DA:1069,1
DA:1070,1
DA:1071,1
DA:1072,1
DA:1073,1
DA:1074,1
DA:1075,1
DA:1076,1
DA:1077,1
DA:1078,1
DA:1079,1
DA:1080,1
DA:1081,1
DA:1082,1
DA:1083,1
DA:1084,1
DA:1085,1
DA:1086,1
DA:1087,1
DA:1088,1
DA:1089,1
DA:1090,1
DA:1091,1
DA:1092,1
DA:1093,1
DA:1094,1
DA:1096,1
DA:1097,1
DA:1100,1
DA:1101,1
DA:1104,1
DA:1105,1
DA:1107,1
DA:1108,1
DA:1109,1
DA:1112,1
DA:1113,1
DA:1114,1
DA:1115,1
DA:1116,1
DA:1117,1
DA:1118,1
DA:1119,1
DA:1120,1
DA:1121,1
DA:1122,1
DA:1123,1
DA:1124,1
DA:1125,1
DA:1126,1
DA:1127,1
DA:1128,1
DA:1129,1
DA:1130,1
DA:1131,1
DA:1132,1
DA:1133,1
DA:1136,1
DA:1137,1
DA:1139,1
DA:1140,1
DA:1141,1
DA:1142,1
DA:1145,1
DA:1146,1
DA:1147,1
DA:1148,1
DA:1149,1
DA:1150,1
DA:1151,1
DA:1152,1
DA:1153,1
DA:1154,1
DA:1155,1
DA:1156,1
DA:1157,1
DA:1158,1
DA:1159,1
DA:1160,1
DA:1161,1
DA:1162,1
DA:1163,1
DA:1164,1
DA:1165,1
DA:1166,1
DA:1169,1
DA:1170,1
DA:1171,1
DA:1173,1
DA:1175,1
DA:1176,1
DA:1177,1
DA:1180,1
DA:1181,1
DA:1184,1
DA:1187,1
DA:1188,1
DA:1189,1
DA:1190,1
DA:1191,1
DA:1192,1
DA:1193,1
DA:1194,1
DA:1195,1
DA:1196,1
DA:1197,1
DA:1198,1
DA:1199,1
DA:1200,1
DA:1201,1
DA:1202,1
DA:1203,1
DA:1204,1
DA:1205,1
DA:1206,1
DA:1207,1
DA:1208,1
DA:1211,1
DA:1212,1
DA:1214,1
DA:1216,1
DA:1217,1
DA:1218,1
DA:1221,1
DA:1222,1
DA:1225,1
DA:1226,1
DA:1227,1
DA:1228,1
DA:1229,1
DA:1230,1
DA:1231,1
DA:1232,1
DA:1233,1
DA:1234,1
DA:1235,1
DA:1237,1
DA:1239,1
DA:1242,1
DA:1243,1
DA:1244,1
DA:1247,1
DA:1250,1
DA:1251,1
DA:1252,1
DA:1253,1
DA:1254,1
DA:1255,1
DA:1256,1
DA:1257,1
DA:1258,1
DA:1259,1
DA:1260,1
DA:1261,1
DA:1262,1
DA:1263,1
DA:1264,1
DA:1265,1
DA:1266,1
DA:1267,1
DA:1268,1
DA:1269,1
DA:1270,1
DA:1271,1
DA:1274,1
DA:1275,1
DA:1276,1
DA:1279,1
DA:1280,1
DA:1281,1
DA:1282,1
DA:1283,1
DA:1284,1
DA:1285,1
DA:1286,1
DA:1287,1
DA:1288,1
DA:1289,1
DA:1290,1
DA:1291,1
DA:1292,1
DA:1293,1
DA:1294,1
DA:1295,1
DA:1296,1
DA:1297,1
DA:1298,1
DA:1299,1
DA:1300,1
DA:1301,1
DA:1302,1
DA:1303,1
DA:1304,1
DA:1305,1
DA:1306,1
DA:1307,1
DA:1308,1
DA:1309,1
DA:1310,1
DA:1313,1
DA:1314,1
DA:1315,1
DA:1316,1
DA:1319,1
DA:1320,1
DA:1321,1
DA:1322,1
DA:1323,1
DA:1324,1
DA:1325,1
DA:1326,1
DA:1327,1
DA:1328,1
DA:1329,1
DA:1330,1
DA:1331,1
DA:1332,1
DA:1333,1
DA:1334,1
DA:1335,1
DA:1336,1
DA:1337,1
DA:1338,1
DA:1340,1
DA:1341,1
DA:1342,1
DA:1343,1
DA:1346,1
DA:1347,1
DA:1348,1
DA:1349,1
DA:1350,1
DA:1353,1
DA:1355,1
DA:1356,1
DA:1357,1
DA:1358,1
DA:1359,1
DA:1360,1
DA:1361,1
DA:1362,1
DA:1363,1
DA:1364,1
DA:1365,1
DA:1366,1
DA:1367,1
DA:1368,1
DA:1369,1
DA:1370,1
DA:1371,1
DA:1372,1
DA:1373,1
DA:1374,1
DA:1375,1
DA:1376,1
DA:1377,1
DA:1378,1
DA:1379,1
DA:1380,1
DA:1381,1
DA:1382,1
DA:1383,1
DA:1384,1
DA:1385,1
DA:1386,1
DA:1387,1
DA:1388,1
DA:1389,1
DA:1390,1
DA:1391,1
DA:1393,1
DA:1394,1
DA:1397,1
DA:1398,1
DA:1400,1
DA:1401,1
DA:1403,1
DA:1404,1
DA:1406,1
DA:1407,1
DA:1408,1
DA:1411,1
DA:1412,1
DA:1413,1
DA:1414,10
DA:1415,10
DA:1416,10
DA:1417,10
DA:1418,10
DA:1419,10
DA:1420,10
DA:1421,10
DA:1422,10
DA:1423,1
DA:1425,1
DA:1426,1
DA:1427,1
DA:1428,1
DA:1429,1
DA:1430,1
DA:1431,1
DA:1432,1
DA:1433,1
DA:1434,1
DA:1436,1
DA:1437,1
DA:1440,10
DA:1441,10
DA:1443,1
DA:1446,1
DA:1448,1
DA:1449,1
DA:1450,1
DA:1451,1
DA:1452,1
DA:1453,1
DA:1454,1
DA:1455,1
DA:1456,1
DA:1457,1
DA:1458,1
DA:1459,1
DA:1460,1
DA:1461,1
DA:1462,1
DA:1463,1
DA:1464,1
DA:1465,1
DA:1466,1
DA:1467,1
DA:1468,1
DA:1469,1
DA:1470,1
DA:1471,1
DA:1472,1
DA:1473,1
DA:1474,1
DA:1475,1
DA:1476,1
DA:1477,1
DA:1478,1
DA:1479,1
DA:1480,1
DA:1481,1
DA:1482,1
DA:1483,1
DA:1484,1
DA:1485,1
DA:1486,1
DA:1487,1
DA:1488,1
DA:1489,1
DA:1490,1
DA:1491,1
DA:1492,1
DA:1493,1
DA:1494,1
DA:1495,1
DA:1496,1
DA:1497,1
DA:1498,1
DA:1501,1
DA:1502,1
DA:1505,1
DA:1506,1
DA:1508,1
DA:1509,1
DA:1511,1
DA:1512,1
DA:1514,1
DA:1515,1
DA:1517,1
DA:1518,1
DA:1519,1
DA:1520,1
DA:1523,1
DA:1526,1
DA:1529,1
DA:1530,1
DA:1531,1
DA:1532,1
DA:1533,1
DA:1534,1
DA:1535,1
DA:1536,1
DA:1537,1
DA:1538,1
DA:1539,1
DA:1540,1
DA:1541,1
DA:1542,1
DA:1543,1
DA:1544,1
DA:1545,1
DA:1546,1
DA:1547,1
DA:1548,1
DA:1549,1
DA:1550,1
DA:1551,1
DA:1552,1
DA:1553,1
DA:1554,1
DA:1555,1
DA:1556,1
DA:1557,1
DA:1558,1
DA:1559,1
DA:1560,1
DA:1561,1
DA:1564,1
DA:1565,1
DA:1568,1
DA:1569,1
DA:1570,1
DA:1571,1
DA:1572,1
DA:1575,1
DA:1576,1
DA:1577,1
DA:1578,1
DA:1581,1
DA:1582,1
DA:1583,1
DA:1586,1
DA:1587,1
DA:1588,1
DA:1589,1
DA:1590,1
DA:1591,1
DA:1593,1
DA:1594,1
DA:1595,1
DA:1596,1
DA:1599,1
DA:1600,1
DA:1601,1
DA:1602,1
DA:1603,1
DA:1604,1
DA:1606,1
DA:1607,1
DA:1610,1
DA:1611,1
DA:1612,1
DA:1613,1
DA:1614,1
DA:1615,1
DA:1616,1
DA:1618,1
DA:1619,1
DA:1620,1
DA:1623,1
DA:1626,1
DA:1629,1
DA:1630,1
DA:1631,1
DA:1632,1
DA:1633,1
DA:1634,1
DA:1635,1
DA:1636,1
DA:1637,1
DA:1638,1
DA:1639,1
DA:1640,1
DA:1641,1
DA:1642,1
DA:1643,1
DA:1644,1
DA:1645,1
DA:1646,1
DA:1647,1
DA:1648,1
DA:1649,1
DA:1650,1
DA:1651,1
DA:1652,1
DA:1653,1
DA:1654,1
DA:1655,1
DA:1656,1
DA:1657,1
DA:1658,1
DA:1659,1
DA:1660,1
DA:1661,1
DA:1663,1
DA:1666,1
DA:1667,1
DA:1668,1
DA:1669,1
DA:1670,1
DA:1673,1
DA:1674,1
DA:1675,1
DA:1678,1
DA:1679,1
DA:1680,1
DA:1681,1
DA:1682,1
DA:1685,1
DA:1686,1
DA:1687,1
DA:1689,1
DA:1690,1
DA:1691,1
DA:1694,1
DA:1695,1
DA:1696,1
DA:1697,1
DA:1698,1
DA:1700,1
DA:1701,1
DA:1704,1
DA:1705,1
DA:1706,1
DA:1707,1
DA:1708,1
DA:1709,1
DA:1710,1
DA:1711,1
DA:1712,1
DA:1713,1
DA:1714,1
DA:1715,1
DA:1716,1
DA:1717,1
DA:1718,1
DA:1719,1
DA:1720,1
DA:1721,1
DA:1722,1
DA:1723,1
DA:1724,1
DA:1725,1
DA:1726,1
DA:1727,1
DA:1728,1
DA:1729,1
DA:1730,1
DA:1731,1
DA:1732,1
DA:1733,1
DA:1734,1
DA:1735,1
DA:1736,1
DA:1738,1
DA:1739,1
DA:1740,1
DA:1741,1
DA:1744,1
DA:1745,1
DA:1746,1
DA:1747,1
DA:1748,1
DA:1749,1
DA:1751,1
DA:1752,1
DA:1754,1
DA:1755,1
DA:1756,1
DA:1757,1
DA:1758,1
DA:1760,1
DA:1761,1
DA:1764,1
DA:1767,1
DA:1770,1
DA:1771,1
DA:1772,1
DA:1773,1
DA:1774,1
DA:1775,1
DA:1776,1
DA:1777,1
DA:1778,1
DA:1779,1
DA:1780,1
DA:1781,1
DA:1782,1
DA:1783,1
DA:1784,1
DA:1785,1
DA:1786,1
DA:1787,1
DA:1788,1
DA:1789,1
DA:1790,1
DA:1791,1
DA:1792,1
DA:1793,1
DA:1794,1
DA:1795,1
DA:1796,1
DA:1797,1
DA:1798,1
DA:1799,1
DA:1800,1
DA:1801,1
DA:1802,1
DA:1803,1
DA:1804,1
DA:1805,1
DA:1806,1
DA:1807,1
DA:1808,1
DA:1809,1
DA:1810,1
DA:1811,1
DA:1812,1
DA:1813,1
DA:1815,1
DA:1816,1
DA:1818,1
DA:1819,1
DA:1820,1
DA:1823,1
DA:1824,1
DA:1825,1
DA:1826,1
DA:1829,1
DA:1830,1
DA:1831,1
DA:1832,1
DA:1833,1
DA:1834,1
DA:1836,1
DA:1837,1
DA:1840,1
DA:1841,1
DA:1842,1
DA:1843,1
DA:1844,1
DA:1845,1
DA:1847,1
DA:1848,1
DA:1851,1
DA:1852,1
DA:1853,1
DA:1854,1
DA:1855,1
DA:1856,1
DA:1858,1
DA:1859,1
DA:1860,1
DA:1862,1
DA:1863,1
DA:1865,1
DA:1866,1
DA:1869,1
DA:1872,1
DA:1875,1
DA:1876,1
DA:1877,1
DA:1878,1
DA:1879,1
DA:1880,1
DA:1881,1
DA:1882,1
DA:1883,1
DA:1884,1
DA:1885,1
DA:1886,1
DA:1888,1
DA:1889,1
DA:1891,1
DA:1892,1
DA:1893,1
DA:1894,1
DA:1895,1
DA:1896,1
DA:1897,1
DA:1898,1
DA:1899,1
DA:1902,1
DA:1905,1
DA:1908,1
DA:1909,1
DA:1910,1
DA:1911,1
DA:1912,1
DA:1913,1
DA:1914,1
DA:1915,1
DA:1916,1
DA:1917,1
DA:1918,1
DA:1919,1
DA:1920,1
DA:1921,1
DA:1922,1
DA:1923,1
DA:1924,1
DA:1925,1
DA:1926,1
DA:1927,1
DA:1928,1
DA:1929,1
DA:1930,1
DA:1931,1
DA:1933,1
DA:1934,1
DA:1936,1
DA:1937,1
DA:1938,1
DA:1939,1
DA:1940,1
DA:1941,0
DA:1944,1
DA:1945,1
DA:1946,1
DA:1947,1
DA:1948,1
DA:1949,1
DA:1952,1
DA:1955,1
DA:1958,1
DA:1959,1
DA:1960,1
DA:1961,1
DA:1962,1
DA:1963,1
DA:1964,1
DA:1965,1
DA:1966,1
DA:1967,1
DA:1968,1
DA:1969,1
DA:1970,1
DA:1971,1
DA:1972,1
DA:1973,1
DA:1974,1
DA:1975,1
DA:1976,1
DA:1977,1
DA:1978,1
DA:1979,1
DA:1980,1
DA:1981,1
DA:1982,1
DA:1983,1
DA:1984,1
DA:1985,1
DA:1986,1
DA:1987,1
DA:1988,1
DA:1989,1
DA:1990,1
DA:1991,1
DA:1993,1
DA:1994,1
DA:1996,1
DA:1997,1
DA:1998,1
DA:1999,1
DA:2000,1
DA:2001,0
DA:2004,1
DA:2005,1
DA:2006,1
DA:2007,1
DA:2008,1
DA:2009,1
DA:2012,1
DA:2015,1
DA:2023,1
DA:2024,1
DA:2025,1
DA:2026,1
DA:2027,1
DA:2028,1
DA:2029,1
DA:2030,1
DA:2031,1
DA:2032,1
DA:2033,1
DA:2034,1
DA:2035,1
DA:2036,1
DA:2037,1
DA:2038,1
DA:2039,1
DA:2040,1
DA:2041,1
DA:2042,1
DA:2043,1
DA:2044,1
DA:2045,1
DA:2046,1
DA:2047,1
DA:2048,1
DA:2049,1
DA:2050,1
DA:2051,1
DA:2052,1
DA:2053,1
DA:2054,1
DA:2055,1
DA:2056,1
DA:2057,1
DA:2058,1
DA:2059,1
DA:2060,1
DA:2061,1
DA:2062,1
DA:2063,1
DA:2064,1
DA:2065,1
DA:2066,1
DA:2068,1
DA:2069,1
DA:2071,1
DA:2072,1
DA:2073,0
DA:2075,1
DA:2076,1
DA:2077,1
DA:2080,1
DA:2083,1
DA:2086,1
DA:2087,1
DA:2088,1
DA:2089,1
DA:2090,1
DA:2091,1
DA:2092,1
DA:2093,1
DA:2094,1
DA:2095,1
DA:2096,1
DA:2097,1
DA:2099,1
DA:2100,1
DA:2102,1
DA:2103,1
DA:2104,0
DA:2106,1
DA:2107,1
DA:2108,1
DA:2109,1
DA:2110,1
DA:2111,1
DA:2112,1
DA:2113,1
DA:2117,1
DA:2120,1
DA:2121,1
DA:2123,1
DA:2124,1
DA:2125,1
DA:2128,1
DA:2131,1
DA:2132,1
DA:2135,1
DA:2136,1
DA:2137,1
DA:2138,1
DA:2139,1
DA:2140,1
DA:2141,1
DA:2142,1
DA:2143,1
DA:2144,1
DA:2145,1
DA:2146,1
DA:2147,1
DA:2148,1
DA:2149,1
DA:2150,1
DA:2151,1
DA:2152,1
DA:2153,1
DA:2154,1
DA:2155,1
DA:2156,1
DA:2157,1
DA:2158,1
DA:2159,1
DA:2162,1
DA:2163,1
DA:2164,1
DA:2165,1
DA:2167,1
DA:2169,1
DA:2170,1
DA:2171,1
DA:2172,1
DA:2173,1
DA:2177,1
DA:2180,1
DA:2181,1
DA:2184,1
DA:2185,1001
DA:2186,1000
DA:2187,1000
DA:2188,1000
DA:2189,1000
DA:2190,1000
DA:2191,1000
DA:2192,1000
DA:2193,1000
DA:2194,1000
DA:2195,1000
DA:2196,1000
DA:2198,1
DA:2200,1
DA:2201,1
DA:2202,1
DA:2204,1
DA:2205,1
DA:2206,1
DA:2207,1
DA:2208,0
DA:2212,1
DA:2213,1
DA:2216,1
DA:2219,1
DA:2220,1
DA:2223,20
DA:2225,20
DA:2226,20
DA:2227,20
DA:2228,20
DA:2229,19
DA:2231,1
DA:2233,20
DA:2234,20
DA:2235,20
DA:2236,20
DA:2238,20
DA:2240,1
DA:2241,1
DA:2242,1
DA:2244,1
DA:2245,1
DA:2246,1
DA:2248,1
DA:2249,1
DA:2251,0
DA:2253,1
DA:2254,1
DA:2255,0
DA:2259,1
DA:2260,1
DA:2263,1
DA:2264,1
DA:2265,1
DA:2266,1
DA:2267,1
DA:2268,1
DA:2269,1
DA:2270,1
DA:2271,1
DA:2272,1
DA:2273,1
DA:2275,1
DA:2276,1
DA:2278,1
DA:2279,1
DA:2280,1
DA:2281,1
DA:2282,1
DA:2283,1
DA:2284,1
DA:2294,1
DA:2296,1
DA:2299,1
DA:2300,1
DA:2301,1
DA:2302,1
DA:2303,1
DA:2304,1
DA:2305,1
DA:2306,1
DA:2307,1
DA:2308,1
DA:2309,1
DA:2310,1
DA:2312,1
DA:2313,1
DA:2315,1
DA:2316,1
DA:2319,1
DA:2320,1
DA:2321,1
DA:2322,1
DA:2323,1
DA:2325,1
DA:2326,1
DA:2329,1
DA:2330,1
DA:2331,1
DA:2333,1
DA:2337,1
DA:2338,1
DA:2339,1
DA:2340,1
DA:2342,1
DA:2343,1
DA:2344,1
DA:2345,1
BRF:0
BRH:0
LF:1735
LH:1666
end_of_record
SF:/mnt/d/prj/intent-engine/src/priority.rs
FN:33,_RNvMs_NtCsjp9E11WtBq9_13intent_engine8priorityNtB4_13PriorityLevel12parse_to_int
FN:50,_RNvMs_NtCsjp9E11WtBq9_13intent_engine8priorityNtB4_13PriorityLevel14parse_optional
FN:39,_RNvMs_NtCsjp9E11WtBq9_13intent_engine8priorityNtB4_13PriorityLevel6to_str
FN:17,_RNvXNtCsjp9E11WtBq9_13intent_engine8priorityNtB2_13PriorityLevelNtNtNtCs4Vq2ZLagKfv_4core3str6traits7FromStr8from_str
FN:33,_RNvMs_NtCs86Lp2I5pN1o_13intent_engine8priorityNtB4_13PriorityLevel12parse_to_int
FN:50,_RNvMs_NtCs86Lp2I5pN1o_13intent_engine8priorityNtB4_13PriorityLevel14parse_optional
FN:39,_RNvMs_NtCs86Lp2I5pN1o_13intent_engine8priorityNtB4_13PriorityLevel6to_str
FN:17,_RNvXNtCs86Lp2I5pN1o_13intent_engine8priorityNtB2_13PriorityLevelNtNtNtCs4Vq2ZLagKfv_4core3str6traits7FromStr8from_str
FN:106,_RNvNtNtCs86Lp2I5pN1o_13intent_engine8priority5testss_19test_parse_optional
FN:97,_RNvNtNtCs86Lp2I5pN1o_13intent_engine8priority5testss_20test_priority_to_str
FN:63,_RNvNtNtCs86Lp2I5pN1o_13intent_engine8priority5testss_22test_priority_from_str
FN:78,_RNvNtNtCs86Lp2I5pN1o_13intent_engine8priority5testss_27test_standard_fromstr_trait
FN:72,_RNvNtNtCs86Lp2I5pN1o_13intent_engine8priority5testss_30test_priority_from_str_invalid
FNDA:0,_RNvMs_NtCsjp9E11WtBq9_13intent_engine8priorityNtB4_13PriorityLevel12parse_to_int
FNDA:0,_RNvMs_NtCsjp9E11WtBq9_13intent_engine8priorityNtB4_13PriorityLevel14parse_optional
FNDA:0,_RNvMs_NtCsjp9E11WtBq9_13intent_engine8priorityNtB4_13PriorityLevel6to_str
FNDA:0,_RNvXNtCsjp9E11WtBq9_13intent_engine8priorityNtB2_13PriorityLevelNtNtNtCs4Vq2ZLagKfv_4core3str6traits7FromStr8from_str
FNDA:11,_RNvMs_NtCs86Lp2I5pN1o_13intent_engine8priorityNtB4_13PriorityLevel12parse_to_int
FNDA:3,_RNvMs_NtCs86Lp2I5pN1o_13intent_engine8priorityNtB4_13PriorityLevel14parse_optional
FNDA:5,_RNvMs_NtCs86Lp2I5pN1o_13intent_engine8priorityNtB4_13PriorityLevel6to_str
FNDA:16,_RNvXNtCs86Lp2I5pN1o_13intent_engine8priorityNtB2_13PriorityLevelNtNtNtCs4Vq2ZLagKfv_4core3str6traits7FromStr8from_str
FNDA:1,_RNvNtNtCs86Lp2I5pN1o_13intent_engine8priority5testss_19test_parse_optional
FNDA:1,_RNvNtNtCs86Lp2I5pN1o_13intent_engine8priority5testss_20test_priority_to_str
FNDA:1,_RNvNtNtCs86Lp2I5pN1o_13intent_engine8priority5testss_22test_priority_from_str
FNDA:1,_RNvNtNtCs86Lp2I5pN1o_13intent_engine8priority5testss_27test_standard_fromstr_trait
FNDA:1,_RNvNtNtCs86Lp2I5pN1o_13intent_engine8priority5testss_30test_priority_from_str_invalid
FNF:9
FNH:9
DA:17,16
DA:18,16
DA:19,16
DA:20,13
DA:21,9
DA:22,7
DA:23,5
DA:24,5
DA:25,5
DA:26,5
DA:28,16
DA:33,11
DA:34,11
DA:35,7
DA:36,11
DA:39,5
DA:40,5
DA:41,1
DA:42,1
DA:43,1
DA:44,1
DA:45,1
DA:47,5
DA:50,3
DA:51,3
DA:52,2
DA:53,1
DA:55,3
DA:63,1
DA:64,1
DA:65,1
DA:66,1
DA:67,1
DA:68,1
DA:69,1
DA:72,1
DA:73,1
DA:74,1
DA:75,1
DA:78,1
DA:80,1
DA:81,1
DA:84,1
DA:85,1
DA:88,1
DA:89,1
DA:92,1
DA:93,1
DA:94,1
DA:97,1
DA:98,1
DA:99,1
DA:100,1
DA:101,1
DA:102,1
DA:103,1
DA:106,1
DA:107,1
DA:108,1
DA:111,1
DA:112,1
DA:113,1
BRF:0
BRH:0
LF:62
LH:62
end_of_record
SF:/mnt/d/prj/intent-engine/src/project.rs
FN:406,_RNCNvMNtCsjp9E11WtBq9_13intent_engine7projectNtB4_14ProjectContext12load_or_init0B6_
FN:280,_RNCNvMNtCsjp9E11WtBq9_13intent_engine7projectNtB4_14ProjectContext18initialize_project0B6_
FN:353,_RNCNvMNtCsjp9E11WtBq9_13intent_engine7projectNtB4_14ProjectContext21initialize_project_at0B6_
FN:60,_RNCNvMNtCsjp9E11WtBq9_13intent_engine7projectNtB4_14ProjectContext22get_database_path_info0B6_
FN:61,_RNCNvMNtCsjp9E11WtBq9_13intent_engine7projectNtB4_14ProjectContext22get_database_path_infos_0B6_
FN:380,_RNCNvMNtCsjp9E11WtBq9_13intent_engine7projectNtB4_14ProjectContext4load0B6_
FN:406,_RNvMNtCsjp9E11WtBq9_13intent_engine7projectNtB2_14ProjectContext12load_or_init
FN:151,_RNvMNtCsjp9E11WtBq9_13intent_engine7projectNtB2_14ProjectContext17find_project_root
FN:269,_RNvMNtCsjp9E11WtBq9_13intent_engine7projectNtB2_14ProjectContext18infer_project_root
FN:280,_RNvMNtCsjp9E11WtBq9_13intent_engine7projectNtB2_14ProjectContext18initialize_project
FN:353,_RNvMNtCsjp9E11WtBq9_13intent_engine7projectNtB2_14ProjectContext21initialize_project_at
FN:57,_RNvMNtCsjp9E11WtBq9_13intent_engine7projectNtB2_14ProjectContext22get_database_path_info
FN:240,_RNvMNtCsjp9E11WtBq9_13intent_engine7projectNtB2_14ProjectContext23infer_project_root_from
FN:380,_RNvMNtCsjp9E11WtBq9_13intent_engine7projectNtB2_14ProjectContext4load
FN:433,_RNCNvNtNtCs86Lp2I5pN1o_13intent_engine7project5testss_26test_project_context_debug0B7_
FN:406,_RNvMNtCs86Lp2I5pN1o_13intent_engine7projectNtB2_14ProjectContext12load_or_init
FN:151,_RNvMNtCs86Lp2I5pN1o_13intent_engine7projectNtB2_14ProjectContext17find_project_root
FN:269,_RNvMNtCs86Lp2I5pN1o_13intent_engine7projectNtB2_14ProjectContext18infer_project_root
FN:280,_RNvMNtCs86Lp2I5pN1o_13intent_engine7projectNtB2_14ProjectContext18initialize_project
FN:353,_RNvMNtCs86Lp2I5pN1o_13intent_engine7projectNtB2_14ProjectContext21initialize_project_at
FN:57,_RNvMNtCs86Lp2I5pN1o_13intent_engine7projectNtB2_14ProjectContext22get_database_path_info
FN:240,_RNvMNtCs86Lp2I5pN1o_13intent_engine7projectNtB2_14ProjectContext23infer_project_root_from
FN:380,_RNvMNtCs86Lp2I5pN1o_13intent_engine7projectNtB2_14ProjectContext4load
FN:1120,_RNCNvNtNtCs86Lp2I5pN1o_13intent_engine7project5testss_42test_get_database_path_info_home_directory0B7_
FN:1121,_RNCNvNtNtCs86Lp2I5pN1o_13intent_engine7project5testss_42test_get_database_path_info_home_directorys_0B7_
FN:1161,_RNCNvNtNtCs86Lp2I5pN1o_13intent_engine7project5testss_47test_get_database_path_info_prefers_first_match0B7_
FN:406,_RNCNvMNtCs86Lp2I5pN1o_13intent_engine7projectNtB4_14ProjectContext12load_or_init0B6_
FN:280,_RNCNvMNtCs86Lp2I5pN1o_13intent_engine7projectNtB4_14ProjectContext18initialize_project0B6_
FN:353,_RNCNvMNtCs86Lp2I5pN1o_13intent_engine7projectNtB4_14ProjectContext21initialize_project_at0B6_
FN:60,_RNCNvMNtCs86Lp2I5pN1o_13intent_engine7projectNtB4_14ProjectContext22get_database_path_info0B6_
FN:61,_RNCNvMNtCs86Lp2I5pN1o_13intent_engine7projectNtB4_14ProjectContext22get_database_path_infos_0B6_
FN:380,_RNCNvMNtCs86Lp2I5pN1o_13intent_engine7projectNtB4_14ProjectContext4load0B6_
FN:424,_RNvNtNtCs86Lp2I5pN1o_13intent_engine7project5testss_14test_constants
FN:430,_RNvNtNtCs86Lp2I5pN1o_13intent_engine7project5testss_26test_project_context_debug
FN:634,_RNvNtNtCs86Lp2I5pN1o_13intent_engine7project5testss_29test_database_path_info_debug
FN:439,_RNvNtNtCs86Lp2I5pN1o_13intent_engine7project5testss_30test_project_root_markers_list
FN:1049,_RNvNtNtCs86Lp2I5pN1o_13intent_engine7project5testss_32test_database_path_info_all_none
FN:1073,_RNvNtNtCs86Lp2I5pN1o_13intent_engine7project5testss_32test_database_path_info_all_some
FN:552,_RNvNtNtCs86Lp2I5pN1o_13intent_engine7project5testss_32test_database_path_info_creation
FN:455,_RNvNtNtCs86Lp2I5pN1o_13intent_engine7project5testss_32test_infer_project_root_with_git
FN:1263,_RNvNtNtCs86Lp2I5pN1o_13intent_engine7project5testss_34test_database_path_info_long_paths
FN:447,_RNvNtNtCs86Lp2I5pN1o_13intent_engine7project5testss_34test_project_root_markers_priority
FN:1205,_RNvNtNtCs86Lp2I5pN1o_13intent_engine7project5testss_35test_database_path_info_json_schema
FN:496,_RNvNtNtCs86Lp2I5pN1o_13intent_engine7project5testss_35test_directory_traversal_info_clone
FN:511,_RNvNtNtCs86Lp2I5pN1o_13intent_engine7project5testss_35test_directory_traversal_info_debug
FN:464,_RNvNtNtCs86Lp2I5pN1o_13intent_engine7project5testss_36test_all_major_project_types_covered
FN:576,_RNvNtNtCs86Lp2I5pN1o_13intent_engine7project5testss_36test_database_path_info_with_env_var
FN:1129,_RNvNtNtCs86Lp2I5pN1o_13intent_engine7project5testss_36test_get_database_path_info_no_panic
FN:654,_RNvNtNtCs86Lp2I5pN1o_13intent_engine7project5testss_37test_database_path_info_serialization
FN:753,_RNvNtNtCs86Lp2I5pN1o_13intent_engine7project5testss_37test_get_database_path_info_structure
FN:958,_RNvNtNtCs86Lp2I5pN1o_13intent_engine7project5testss_38test_database_path_info_full_roundtrip
FN:482,_RNvNtNtCs86Lp2I5pN1o_13intent_engine7project5testss_38test_directory_traversal_info_creation
FN:678,_RNvNtNtCs86Lp2I5pN1o_13intent_engine7project5testss_39test_database_path_info_deserialization
FN:895,_RNvNtNtCs86Lp2I5pN1o_13intent_engine7project5testss_39test_database_path_info_env_var_invalid
FN:600,_RNvNtNtCs86Lp2I5pN1o_13intent_engine7project5testss_40test_database_path_info_with_directories
FN:1234,_RNvNtNtCs86Lp2I5pN1o_13intent_engine7project5testss_40test_directory_traversal_info_empty_path
FN:789,_RNvNtNtCs86Lp2I5pN1o_13intent_engine7project5testss_40test_get_database_path_info_includes_cwd
FN:863,_RNvNtNtCs86Lp2I5pN1o_13intent_engine7project5testss_41test_database_path_info_no_database_found
FN:703,_RNvNtNtCs86Lp2I5pN1o_13intent_engine7project5testss_42test_database_path_info_complete_structure
FN:1249,_RNvNtNtCs86Lp2I5pN1o_13intent_engine7project5testss_42test_directory_traversal_info_unicode_path
FN:1101,_RNvNtNtCs86Lp2I5pN1o_13intent_engine7project5testss_42test_get_database_path_info_home_directory
FN:921,_RNvNtNtCs86Lp2I5pN1o_13intent_engine7project5testss_43test_database_path_info_home_directory_used
FN:525,_RNvNtNtCs86Lp2I5pN1o_13intent_engine7project5testss_43test_directory_traversal_info_serialization
FN:541,_RNvNtNtCs86Lp2I5pN1o_13intent_engine7project5testss_45test_directory_traversal_info_deserialization
FN:1284,_RNvNtNtCs86Lp2I5pN1o_13intent_engine7project5testss_45test_get_database_path_info_env_var_detection
FN:809,_RNvNtNtCs86Lp2I5pN1o_13intent_engine7project5testss_45test_get_database_path_info_resolution_method
FN:1014,_RNvNtNtCs86Lp2I5pN1o_13intent_engine7project5testss_46test_directory_traversal_info_all_combinations
FN:772,_RNvNtNtCs86Lp2I5pN1o_13intent_engine7project5testss_46test_get_database_path_info_checks_current_dir
FN:831,_RNvNtNtCs86Lp2I5pN1o_13intent_engine7project5testss_46test_get_database_path_info_selected_directory
FN:1184,_RNvNtNtCs86Lp2I5pN1o_13intent_engine7project5testss_47test_database_path_info_partial_deserialization
FN:1154,_RNvNtNtCs86Lp2I5pN1o_13intent_engine7project5testss_47test_get_database_path_info_prefers_first_match
FN:1032,_RNvNtNtCs86Lp2I5pN1o_13intent_engine7project5testss_49test_directory_traversal_info_exact_serialization
FNDA:0,_RNCNvMNtCsjp9E11WtBq9_13intent_engine7projectNtB4_14ProjectContext12load_or_init0B6_
FNDA:0,_RNCNvMNtCsjp9E11WtBq9_13intent_engine7projectNtB4_14ProjectContext18initialize_project0B6_
FNDA:0,_RNCNvMNtCsjp9E11WtBq9_13intent_engine7projectNtB4_14ProjectContext21initialize_project_at0B6_
FNDA:0,_RNCNvMNtCsjp9E11WtBq9_13intent_engine7projectNtB4_14ProjectContext22get_database_path_info0B6_
FNDA:0,_RNCNvMNtCsjp9E11WtBq9_13intent_engine7projectNtB4_14ProjectContext22get_database_path_infos_0B6_
FNDA:0,_RNCNvMNtCsjp9E11WtBq9_13intent_engine7projectNtB4_14ProjectContext4load0B6_
FNDA:0,_RNvMNtCsjp9E11WtBq9_13intent_engine7projectNtB2_14ProjectContext12load_or_init
FNDA:0,_RNvMNtCsjp9E11WtBq9_13intent_engine7projectNtB2_14ProjectContext17find_project_root
FNDA:0,_RNvMNtCsjp9E11WtBq9_13intent_engine7projectNtB2_14ProjectContext18infer_project_root
FNDA:0,_RNvMNtCsjp9E11WtBq9_13intent_engine7projectNtB2_14ProjectContext18initialize_project
FNDA:0,_RNvMNtCsjp9E11WtBq9_13intent_engine7projectNtB2_14ProjectContext21initialize_project_at
FNDA:0,_RNvMNtCsjp9E11WtBq9_13intent_engine7projectNtB2_14ProjectContext22get_database_path_info
FNDA:0,_RNvMNtCsjp9E11WtBq9_13intent_engine7projectNtB2_14ProjectContext23infer_project_root_from
FNDA:0,_RNvMNtCsjp9E11WtBq9_13intent_engine7projectNtB2_14ProjectContext4load
FNDA:0,_RNCNvNtNtCs86Lp2I5pN1o_13intent_engine7project5testss_26test_project_context_debug0B7_
FNDA:15,_RNvMNtCs86Lp2I5pN1o_13intent_engine7projectNtB2_14ProjectContext12load_or_init
FNDA:31,_RNvMNtCs86Lp2I5pN1o_13intent_engine7projectNtB2_14ProjectContext17find_project_root
FNDA:31,_RNvMNtCs86Lp2I5pN1o_13intent_engine7projectNtB2_14ProjectContext18infer_project_root
FNDA:0,_RNvMNtCs86Lp2I5pN1o_13intent_engine7projectNtB2_14ProjectContext18initialize_project
FNDA:0,_RNvMNtCs86Lp2I5pN1o_13intent_engine7projectNtB2_14ProjectContext21initialize_project_at
FNDA:9,_RNvMNtCs86Lp2I5pN1o_13intent_engine7projectNtB2_14ProjectContext22get_database_path_info
FNDA:31,_RNvMNtCs86Lp2I5pN1o_13intent_engine7projectNtB2_14ProjectContext23infer_project_root_from
FNDA:31,_RNvMNtCs86Lp2I5pN1o_13intent_engine7projectNtB2_14ProjectContext4load
FNDA:0,_RNCNvNtNtCs86Lp2I5pN1o_13intent_engine7project5testss_42test_get_database_path_info_home_directory0B7_
FNDA:0,_RNCNvNtNtCs86Lp2I5pN1o_13intent_engine7project5testss_42test_get_database_path_info_home_directorys_0B7_
FNDA:1,_RNCNvNtNtCs86Lp2I5pN1o_13intent_engine7project5testss_47test_get_database_path_info_prefers_first_match0B7_
FNDA:15,_RNCNvMNtCs86Lp2I5pN1o_13intent_engine7projectNtB4_14ProjectContext12load_or_init0B6_
FNDA:0,_RNCNvMNtCs86Lp2I5pN1o_13intent_engine7projectNtB4_14ProjectContext18initialize_project0B6_
FNDA:0,_RNCNvMNtCs86Lp2I5pN1o_13intent_engine7projectNtB4_14ProjectContext21initialize_project_at0B6_
FNDA:9,_RNCNvMNtCs86Lp2I5pN1o_13intent_engine7projectNtB4_14ProjectContext22get_database_path_info0B6_
FNDA:0,_RNCNvMNtCs86Lp2I5pN1o_13intent_engine7projectNtB4_14ProjectContext22get_database_path_infos_0B6_
FNDA:31,_RNCNvMNtCs86Lp2I5pN1o_13intent_engine7projectNtB4_14ProjectContext4load0B6_
FNDA:1,_RNvNtNtCs86Lp2I5pN1o_13intent_engine7project5testss_14test_constants
FNDA:1,_RNvNtNtCs86Lp2I5pN1o_13intent_engine7project5testss_26test_project_context_debug
FNDA:1,_RNvNtNtCs86Lp2I5pN1o_13intent_engine7project5testss_29test_database_path_info_debug
FNDA:1,_RNvNtNtCs86Lp2I5pN1o_13intent_engine7project5testss_30test_project_root_markers_list
FNDA:1,_RNvNtNtCs86Lp2I5pN1o_13intent_engine7project5testss_32test_database_path_info_all_none
FNDA:1,_RNvNtNtCs86Lp2I5pN1o_13intent_engine7project5testss_32test_database_path_info_all_some
FNDA:1,_RNvNtNtCs86Lp2I5pN1o_13intent_engine7project5testss_32test_database_path_info_creation
FNDA:1,_RNvNtNtCs86Lp2I5pN1o_13intent_engine7project5testss_32test_infer_project_root_with_git
FNDA:1,_RNvNtNtCs86Lp2I5pN1o_13intent_engine7project5testss_34test_database_path_info_long_paths
FNDA:1,_RNvNtNtCs86Lp2I5pN1o_13intent_engine7project5testss_34test_project_root_markers_priority
FNDA:1,_RNvNtNtCs86Lp2I5pN1o_13intent_engine7project5testss_35test_database_path_info_json_schema
FNDA:1,_RNvNtNtCs86Lp2I5pN1o_13intent_engine7project5testss_35test_directory_traversal_info_clone
FNDA:1,_RNvNtNtCs86Lp2I5pN1o_13intent_engine7project5testss_35test_directory_traversal_info_debug
FNDA:1,_RNvNtNtCs86Lp2I5pN1o_13intent_engine7project5testss_36test_all_major_project_types_covered
FNDA:1,_RNvNtNtCs86Lp2I5pN1o_13intent_engine7project5testss_36test_database_path_info_with_env_var
FNDA:1,_RNvNtNtCs86Lp2I5pN1o_13intent_engine7project5testss_36test_get_database_path_info_no_panic
FNDA:1,_RNvNtNtCs86Lp2I5pN1o_13intent_engine7project5testss_37test_database_path_info_serialization
FNDA:1,_RNvNtNtCs86Lp2I5pN1o_13intent_engine7project5testss_37test_get_database_path_info_structure
FNDA:1,_RNvNtNtCs86Lp2I5pN1o_13intent_engine7project5testss_38test_database_path_info_full_roundtrip
FNDA:1,_RNvNtNtCs86Lp2I5pN1o_13intent_engine7project5testss_38test_directory_traversal_info_creation
FNDA:1,_RNvNtNtCs86Lp2I5pN1o_13intent_engine7project5testss_39test_database_path_info_deserialization
FNDA:1,_RNvNtNtCs86Lp2I5pN1o_13intent_engine7project5testss_39test_database_path_info_env_var_invalid
FNDA:1,_RNvNtNtCs86Lp2I5pN1o_13intent_engine7project5testss_40test_database_path_info_with_directories
FNDA:1,_RNvNtNtCs86Lp2I5pN1o_13intent_engine7project5testss_40test_directory_traversal_info_empty_path
FNDA:1,_RNvNtNtCs86Lp2I5pN1o_13intent_engine7project5testss_40test_get_database_path_info_includes_cwd
FNDA:1,_RNvNtNtCs86Lp2I5pN1o_13intent_engine7project5testss_41test_database_path_info_no_database_found
FNDA:1,_RNvNtNtCs86Lp2I5pN1o_13intent_engine7project5testss_42test_database_path_info_complete_structure
FNDA:1,_RNvNtNtCs86Lp2I5pN1o_13intent_engine7project5testss_42test_directory_traversal_info_unicode_path
FNDA:1,_RNvNtNtCs86Lp2I5pN1o_13intent_engine7project5testss_42test_get_database_path_info_home_directory
FNDA:1,_RNvNtNtCs86Lp2I5pN1o_13intent_engine7project5testss_43test_database_path_info_home_directory_used
FNDA:1,_RNvNtNtCs86Lp2I5pN1o_13intent_engine7project5testss_43test_directory_traversal_info_serialization
FNDA:1,_RNvNtNtCs86Lp2I5pN1o_13intent_engine7project5testss_45test_directory_traversal_info_deserialization
FNDA:1,_RNvNtNtCs86Lp2I5pN1o_13intent_engine7project5testss_45test_get_database_path_info_env_var_detection
FNDA:1,_RNvNtNtCs86Lp2I5pN1o_13intent_engine7project5testss_45test_get_database_path_info_resolution_method
FNDA:1,_RNvNtNtCs86Lp2I5pN1o_13intent_engine7project5testss_46test_directory_traversal_info_all_combinations
FNDA:1,_RNvNtNtCs86Lp2I5pN1o_13intent_engine7project5testss_46test_get_database_path_info_checks_current_dir
FNDA:1,_RNvNtNtCs86Lp2I5pN1o_13intent_engine7project5testss_46test_get_database_path_info_selected_directory
FNDA:1,_RNvNtNtCs86Lp2I5pN1o_13intent_engine7project5testss_47test_database_path_info_partial_deserialization
FNDA:1,_RNvNtNtCs86Lp2I5pN1o_13intent_engine7project5testss_47test_get_database_path_info_prefers_first_match
FNDA:1,_RNvNtNtCs86Lp2I5pN1o_13intent_engine7project5testss_49test_directory_traversal_info_exact_serialization
FNF:58
FNH:50
DA:57,9
DA:58,9
DA:59,9
DA:60,9
DA:61,9
DA:63,9
DA:64,9
DA:65,9
DA:66,9
DA:67,9
DA:68,9
DA:69,9
DA:70,9
DA:71,9
DA:72,9
DA:73,9
DA:76,9
DA:77,0
DA:78,0
DA:80,0
DA:81,0
DA:82,0
DA:83,0
DA:87,9
DA:90,9
DA:92,27
DA:93,27
DA:95,27
DA:97,27
DA:98,27
DA:99,27
DA:100,27
DA:101,27
DA:103,27
DA:104,9
DA:105,9
DA:106,9
DA:107,9
DA:108,18
DA:110,27
DA:111,9
DA:112,18
DA:114,0
DA:118,9
DA:126,9
DA:127,9
DA:128,9
DA:129,9
DA:131,9
DA:132,0
DA:133,0
DA:134,0
DA:135,9
DA:136,0
DA:138,9
DA:139,9
DA:151,31
DA:155,31
DA:156,31
DA:160,31
DA:162,31
DA:164,31
DA:165,31
DA:171,31
DA:174,0
DA:177,0
DA:178,0
DA:179,31
DA:181,31
DA:182,0
DA:183,31
DA:184,31
DA:185,0
DA:189,0
DA:190,0
DA:193,0
DA:194,0
DA:195,0
DA:196,0
DA:198,0
DA:199,0
DA:200,0
DA:202,0
DA:206,0
DA:207,0
DA:208,0
DA:209,0
DA:210,0
DA:211,0
DA:212,0
DA:213,0
DA:226,0
DA:227,31
DA:240,31
DA:241,31
DA:245,837
DA:246,744
DA:247,744
DA:248,0
DA:249,744
DA:253,93
DA:255,31
DA:256,62
DA:259,31
DA:260,31
DA:269,31
DA:270,31
DA:271,31
DA:272,31
DA:280,0
DA:281,0
DA:284,0
DA:285,0
DA:287,0
DA:292,0
DA:293,0
DA:294,0
DA:295,0
DA:296,0
DA:298,0
DA:302,0
DA:303,0
DA:306,0
DA:307,0
DA:308,0
DA:311,0
DA:314,0
DA:316,0
DA:317,0
DA:318,0
DA:319,0
DA:320,0
DA:321,0
DA:353,0
DA:356,0
DA:358,0
DA:359,0
DA:362,0
DA:363,0
DA:364,0
DA:367,0
DA:370,0
DA:372,0
DA:373,0
DA:374,0
DA:375,0
DA:376,0
DA:377,0
DA:380,31
DA:381,31
DA:382,31
DA:386,31
DA:387,0
DA:388,31
DA:390,31
DA:392,31
DA:396,31
DA:398,31
DA:399,31
DA:400,31
DA:401,31
DA:402,31
DA:403,31
DA:406,15
DA:407,15
DA:408,15
DA:409,0
DA:410,0
DA:412,15
DA:424,1
DA:425,1
DA:426,1
DA:427,1
DA:430,1
DA:433,1
DA:434,0
DA:435,0
DA:436,1
DA:439,1
DA:441,1
DA:442,1
DA:443,1
DA:444,1
DA:447,1
DA:449,1
DA:450,1
DA:455,1
DA:459,1
DA:460,1
DA:464,1
DA:465,1
DA:468,1
DA:469,1
DA:472,1
DA:473,1
DA:474,1
DA:475,1
DA:476,1
DA:477,1
DA:478,1
DA:482,1
DA:483,1
DA:484,1
DA:485,1
DA:486,1
DA:487,1
DA:489,1
DA:490,1
DA:491,1
DA:492,1
DA:496,1
DA:497,1
DA:498,1
DA:499,1
DA:500,1
DA:501,1
DA:503,1
DA:504,1
DA:505,1
DA:506,1
DA:507,1
DA:511,1
DA:512,1
DA:513,1
DA:514,1
DA:515,1
DA:516,1
DA:518,1
DA:519,1
DA:520,1
DA:521,1
DA:525,1
DA:526,1
DA:527,1
DA:528,1
DA:529,1
DA:530,1
DA:532,1
DA:533,1
DA:534,1
DA:535,1
DA:536,1
DA:537,1
DA:541,1
DA:542,1
DA:543,1
DA:545,1
DA:546,1
DA:547,1
DA:548,1
DA:552,1
DA:553,1
DA:554,1
DA:555,1
DA:556,1
DA:557,1
DA:558,1
DA:559,1
DA:560,1
DA:561,1
DA:562,1
DA:563,1
DA:565,1
DA:566,1
DA:567,1
DA:568,1
DA:569,1
DA:570,1
DA:571,1
DA:572,1
DA:576,1
DA:577,1
DA:578,1
DA:579,1
DA:580,1
DA:581,1
DA:582,1
DA:583,1
DA:584,1
DA:585,1
DA:586,1
DA:587,1
DA:589,1
DA:590,1
DA:591,1
DA:592,1
DA:594,1
DA:596,1
DA:600,1
DA:601,1
DA:602,1
DA:603,1
DA:604,1
DA:605,1
DA:606,1
DA:607,1
DA:608,1
DA:609,1
DA:610,1
DA:611,1
DA:614,1
DA:615,1
DA:616,1
DA:617,1
DA:618,1
DA:619,1
DA:620,1
DA:621,1
DA:622,1
DA:623,1
DA:624,1
DA:626,1
DA:627,1
DA:628,1
DA:629,1
DA:630,1
DA:634,1
DA:635,1
DA:636,1
DA:637,1
DA:638,1
DA:639,1
DA:640,1
DA:641,1
DA:642,1
DA:643,1
DA:644,1
DA:645,1
DA:647,1
DA:648,1
DA:649,1
DA:650,1
DA:654,1
DA:655,1
DA:656,1
DA:657,1
DA:658,1
DA:659,1
DA:660,1
DA:661,1
DA:662,1
DA:663,1
DA:664,1
DA:665,1
DA:667,1
DA:668,1
DA:669,1
DA:670,1
DA:671,1
DA:672,1
DA:673,1
DA:674,1
DA:678,1
DA:679,1
DA:680,1
DA:681,1
DA:682,1
DA:683,1
DA:684,1
DA:685,1
DA:686,1
DA:687,1
DA:688,1
DA:689,1
DA:691,1
DA:692,1
DA:693,1
DA:694,1
DA:695,1
DA:696,1
DA:697,1
DA:698,1
DA:699,1
DA:703,1
DA:704,1
DA:705,1
DA:706,1
DA:707,1
DA:708,1
DA:709,1
DA:710,1
DA:711,1
DA:712,1
DA:713,1
DA:714,1
DA:715,1
DA:716,1
DA:717,1
DA:718,1
DA:719,1
DA:722,1
DA:723,1
DA:724,1
DA:725,1
DA:726,1
DA:727,1
DA:728,1
DA:729,1
DA:730,1
DA:731,1
DA:732,1
DA:735,1
DA:736,1
DA:737,1
DA:738,1
DA:741,1
DA:742,1
DA:743,1
DA:746,1
DA:747,1
DA:748,1
DA:749,1
DA:753,1
DA:754,1
DA:757,1
DA:760,1
DA:761,0
DA:762,0
DA:764,1
DA:765,1
DA:766,0
DA:768,1
DA:772,1
DA:773,1
DA:776,1
DA:779,1
DA:780,1
DA:781,1
DA:782,0
DA:784,0
DA:785,1
DA:789,1
DA:790,1
DA:793,1
DA:794,1
DA:797,1
DA:798,1
DA:800,1
DA:801,1
DA:802,0
DA:804,0
DA:805,1
DA:809,1
DA:810,1
DA:813,1
DA:814,1
DA:815,1
DA:816,0
DA:819,1
DA:820,1
DA:821,1
DA:822,1
DA:823,0
DA:824,0
DA:826,0
DA:827,1
DA:831,1
DA:832,1
DA:835,1
DA:836,1
DA:837,1
DA:840,1
DA:841,1
DA:842,1
DA:843,1
DA:844,1
DA:846,1
DA:847,1
DA:848,0
DA:852,1
DA:853,1
DA:854,1
DA:855,0
DA:857,0
DA:858,0
DA:859,1
DA:863,1
DA:864,1
DA:865,1
DA:866,1
DA:867,1
DA:868,1
DA:869,1
DA:870,1
DA:871,1
DA:872,1
DA:873,1
DA:874,1
DA:875,1
DA:876,1
DA:877,1
DA:878,1
DA:879,1
DA:880,1
DA:881,1
DA:882,1
DA:883,1
DA:884,1
DA:885,1
DA:887,1
DA:888,1
DA:889,1
DA:890,1
DA:891,1
DA:895,1
DA:896,1
DA:897,1
DA:898,1
DA:899,1
DA:900,1
DA:901,1
DA:902,1
DA:903,1
DA:904,1
DA:905,1
DA:906,1
DA:907,1
DA:908,1
DA:909,1
DA:910,1
DA:912,1
DA:913,1
DA:914,1
DA:916,1
DA:917,1
DA:921,1
DA:922,1
DA:923,1
DA:924,1
DA:925,1
DA:926,1
DA:927,1
DA:928,1
DA:929,1
DA:930,1
DA:931,1
DA:932,1
DA:933,1
DA:934,1
DA:935,1
DA:936,1
DA:937,1
DA:938,1
DA:939,1
DA:940,1
DA:941,1
DA:942,1
DA:943,1
DA:945,1
DA:946,1
DA:948,1
DA:950,1
DA:952,1
DA:954,1
DA:958,1
DA:959,1
DA:960,1
DA:961,1
DA:962,1
DA:963,1
DA:964,1
DA:965,1
DA:966,1
DA:967,1
DA:968,1
DA:969,1
DA:970,1
DA:971,1
DA:972,1
DA:973,1
DA:974,1
DA:975,1
DA:976,1
DA:977,1
DA:978,1
DA:979,1
DA:980,1
DA:983,1
DA:986,1
DA:989,1
DA:993,1
DA:994,1
DA:995,1
DA:996,1
DA:997,1
DA:998,1
DA:1000,1
DA:1001,1
DA:1005,1
DA:1009,1
DA:1010,1
DA:1014,1
DA:1016,1
DA:1018,4
DA:1019,4
DA:1020,4
DA:1021,4
DA:1022,4
DA:1023,4
DA:1025,4
DA:1026,4
DA:1028,1
DA:1032,1
DA:1033,1
DA:1034,1
DA:1035,1
DA:1036,1
DA:1037,1
DA:1039,1
DA:1040,1
DA:1042,1
DA:1043,1
DA:1044,1
DA:1045,1
DA:1049,1
DA:1050,1
DA:1051,1
DA:1052,1
DA:1053,1
DA:1054,1
DA:1055,1
DA:1056,1
DA:1057,1
DA:1058,1
DA:1059,1
DA:1060,1
DA:1062,1
DA:1063,1
DA:1064,1
DA:1065,1
DA:1066,1
DA:1067,1
DA:1068,1
DA:1069,1
DA:1073,1
DA:1074,1
DA:1075,1
DA:1076,1
DA:1077,1
DA:1078,1
DA:1079,1
DA:1080,1
DA:1081,1
DA:1082,1
DA:1083,1
DA:1084,1
DA:1085,1
DA:1086,1
DA:1087,1
DA:1088,1
DA:1090,1
DA:1091,1
DA:1092,1
DA:1093,1
DA:1094,1
DA:1095,1
DA:1096,1
DA:1097,1
DA:1101,1
DA:1103,1
DA:1104,1
DA:1105,1
DA:1106,1
DA:1107,1
DA:1114,1
DA:1117,0
DA:1118,0
DA:1119,0
DA:1120,0
DA:1121,0
DA:1124,1
DA:1125,1
DA:1129,1
DA:1132,1
DA:1135,1
DA:1139,1
DA:1141,0
DA:1142,0
DA:1143,0
DA:1145,0
DA:1146,0
DA:1147,0
DA:1149,1
DA:1150,1
DA:1154,1
DA:1155,1
DA:1158,1
DA:1159,1
DA:1160,1
DA:1161,1
DA:1162,1
DA:1165,1
DA:1166,1
DA:1167,1
DA:1168,1
DA:1169,1
DA:1171,1
DA:1173,0
DA:1174,0
DA:1175,0
DA:1176,0
DA:1178,1
DA:1179,0
DA:1180,1
DA:1184,1
DA:1186,1
DA:1187,1
DA:1188,1
DA:1189,1
DA:1190,1
DA:1191,1
DA:1192,1
DA:1193,1
DA:1194,1
DA:1195,1
DA:1196,1
DA:1198,1
DA:1199,1
DA:1200,1
DA:1201,1
DA:1205,1
DA:1206,1
DA:1207,1
DA:1208,1
DA:1209,1
DA:1210,1
DA:1211,1
DA:1212,1
DA:1213,1
DA:1214,1
DA:1215,1
DA:1216,1
DA:1218,1
DA:1221,1
DA:1222,1
DA:1223,1
DA:1224,1
DA:1225,1
DA:1226,1
DA:1227,1
DA:1228,1
DA:1229,1
DA:1230,1
DA:1234,1
DA:1235,1
DA:1236,1
DA:1237,1
DA:1238,1
DA:1239,1
DA:1241,1
DA:1242,1
DA:1243,1
DA:1244,1
DA:1245,1
DA:1249,1
DA:1250,1
DA:1251,1
DA:1252,1
DA:1253,1
DA:1254,1
DA:1256,1
DA:1257,1
DA:1258,1
DA:1259,1
DA:1263,1
DA:1264,1
DA:1265,1
DA:1266,1
DA:1267,1
DA:1268,1
DA:1269,1
DA:1270,1
DA:1271,1
DA:1272,1
DA:1273,1
DA:1274,1
DA:1275,1
DA:1277,1
DA:1278,1
DA:1279,1
DA:1280,1
DA:1284,1
DA:1285,1
DA:1288,1
DA:1289,0
DA:1290,0
DA:1291,0
DA:1293,0
DA:1294,0
DA:1295,0
DA:1297,0
DA:1298,0
DA:1299,0
DA:1302,1
DA:1303,1
DA:1304,0
DA:1306,1
DA:1307,1
DA:1308,0
DA:1310,1
DA:1311,1
DA:1312,0
DA:1315,1
BRF:0
BRH:0
LF:813
LH:684
end_of_record
SF:/mnt/d/prj/intent-engine/src/report.rs
FN:25,_RNCNCNvMNtCsjp9E11WtBq9_13intent_engine6reportNtB6_13ReportManager15generate_report00B8_
FN:76,_RNCNCNvMNtCsjp9E11WtBq9_13intent_engine6reportNtB6_13ReportManager15generate_report0s0_0B8_
FN:77,_RNCNCNvMNtCsjp9E11WtBq9_13intent_engine6reportNtB6_13ReportManager15generate_report0s1_0B8_
FN:112,_RNCNCNvMNtCsjp9E11WtBq9_13intent_engine6reportNtB6_13ReportManager15generate_report0s2_0B8_
FN:75,_RNCNCNvMNtCsjp9E11WtBq9_13intent_engine6reportNtB6_13ReportManager15generate_report0s_0B8_
FN:23,_RNCNvMNtCsjp9E11WtBq9_13intent_engine6reportNtB4_13ReportManager15generate_report0B6_
FN:137,_RNCNvMNtCsjp9E11WtBq9_13intent_engine6reportNtB4_13ReportManager19filter_tasks_by_fts0B6_
FN:16,_RNvMNtCsjp9E11WtBq9_13intent_engine6reportNtB2_13ReportManager15generate_report
FN:133,_RNvMNtCsjp9E11WtBq9_13intent_engine6reportNtB2_13ReportManager19filter_tasks_by_fts
FN:11,_RNvMNtCsjp9E11WtBq9_13intent_engine6reportNtB2_13ReportManager3new
FN:16,_RNvMNtCs86Lp2I5pN1o_13intent_engine6reportNtB2_13ReportManager15generate_report
FN:133,_RNvMNtCs86Lp2I5pN1o_13intent_engine6reportNtB2_13ReportManager19filter_tasks_by_fts
FN:11,_RNvMNtCs86Lp2I5pN1o_13intent_engine6reportNtB2_13ReportManager3new
FN:25,_RNCNCNvMNtCs86Lp2I5pN1o_13intent_engine6reportNtB6_13ReportManager15generate_report00B8_
FN:76,_RNCNCNvMNtCs86Lp2I5pN1o_13intent_engine6reportNtB6_13ReportManager15generate_report0s0_0B8_
FN:77,_RNCNCNvMNtCs86Lp2I5pN1o_13intent_engine6reportNtB6_13ReportManager15generate_report0s1_0B8_
FN:112,_RNCNCNvMNtCs86Lp2I5pN1o_13intent_engine6reportNtB6_13ReportManager15generate_report0s2_0B8_
FN:75,_RNCNCNvMNtCs86Lp2I5pN1o_13intent_engine6reportNtB6_13ReportManager15generate_report0s_0B8_
FN:23,_RNCNvMNtCs86Lp2I5pN1o_13intent_engine6reportNtB4_13ReportManager15generate_report0B6_
FN:137,_RNCNvMNtCs86Lp2I5pN1o_13intent_engine6reportNtB4_13ReportManager19filter_tasks_by_fts0B6_
FN:305,_RNvNtNtCs86Lp2I5pN1o_13intent_engine6report5testss_17test_empty_report
FN:262,_RNvNtNtCs86Lp2I5pN1o_13intent_engine6report5testss_24test_parse_duration_days
FN:202,_RNvNtNtCs86Lp2I5pN1o_13intent_engine6report5testss_25test_generate_report_full
FN:268,_RNvNtNtCs86Lp2I5pN1o_13intent_engine6report5testss_25test_parse_duration_hours
FN:274,_RNvNtNtCs86Lp2I5pN1o_13intent_engine6report5testss_27test_parse_duration_invalid
FN:280,_RNvNtNtCs86Lp2I5pN1o_13intent_engine6report5testss_29test_filter_tasks_by_fts_name
FN:417,_RNvNtNtCs86Lp2I5pN1o_13intent_engine6report5testss_29test_filter_tasks_by_fts_spec
FN:501,_RNvNtNtCs86Lp2I5pN1o_13intent_engine6report5testss_29test_report_date_range_absent
FN:471,_RNvNtNtCs86Lp2I5pN1o_13intent_engine6report5testss_30test_filter_tasks_by_fts_empty
FN:482,_RNvNtNtCs86Lp2I5pN1o_13intent_engine6report5testss_30test_report_date_range_present
FN:319,_RNvNtNtCs86Lp2I5pN1o_13intent_engine6report5testss_30test_report_filter_consistency
FN:344,_RNvNtNtCs86Lp2I5pN1o_13intent_engine6report5testss_31test_generate_report_with_since
FN:240,_RNvNtNtCs86Lp2I5pN1o_13intent_engine6report5testss_32test_generate_report_with_events
FN:175,_RNvNtNtCs86Lp2I5pN1o_13intent_engine6report5testss_33test_generate_report_summary_only
FN:365,_RNvNtNtCs86Lp2I5pN1o_13intent_engine6report5testss_35test_generate_report_filter_by_spec
FN:518,_RNvNtNtCs86Lp2I5pN1o_13intent_engine6report5testss_36test_report_events_count_consistency
FN:220,_RNvNtNtCs86Lp2I5pN1o_13intent_engine6report5testss_37test_generate_report_filter_by_status
FN:552,_RNvNtNtCs86Lp2I5pN1o_13intent_engine6report5testss_41test_generate_report_all_filters_combined
FN:440,_RNvNtNtCs86Lp2I5pN1o_13intent_engine6report5testss_43test_filter_tasks_by_fts_both_name_and_spec
FN:390,_RNvNtNtCs86Lp2I5pN1o_13intent_engine6report5testss_46test_generate_report_combined_status_and_since
FN:305,_RNCNvNtNtCs86Lp2I5pN1o_13intent_engine6report5testss_17test_empty_report0B7_
FN:262,_RNCNvNtNtCs86Lp2I5pN1o_13intent_engine6report5testss_24test_parse_duration_days0B7_
FN:202,_RNCNvNtNtCs86Lp2I5pN1o_13intent_engine6report5testss_25test_generate_report_full0B7_
FN:268,_RNCNvNtNtCs86Lp2I5pN1o_13intent_engine6report5testss_25test_parse_duration_hours0B7_
FN:274,_RNCNvNtNtCs86Lp2I5pN1o_13intent_engine6report5testss_27test_parse_duration_invalid0B7_
FN:280,_RNCNvNtNtCs86Lp2I5pN1o_13intent_engine6report5testss_29test_filter_tasks_by_fts_name0B7_
FN:417,_RNCNvNtNtCs86Lp2I5pN1o_13intent_engine6report5testss_29test_filter_tasks_by_fts_spec0B7_
FN:501,_RNCNvNtNtCs86Lp2I5pN1o_13intent_engine6report5testss_29test_report_date_range_absent0B7_
FN:471,_RNCNvNtNtCs86Lp2I5pN1o_13intent_engine6report5testss_30test_filter_tasks_by_fts_empty0B7_
FN:482,_RNCNvNtNtCs86Lp2I5pN1o_13intent_engine6report5testss_30test_report_date_range_present0B7_
FN:319,_RNCNvNtNtCs86Lp2I5pN1o_13intent_engine6report5testss_30test_report_filter_consistency0B7_
FN:344,_RNCNvNtNtCs86Lp2I5pN1o_13intent_engine6report5testss_31test_generate_report_with_since0B7_
FN:240,_RNCNvNtNtCs86Lp2I5pN1o_13intent_engine6report5testss_32test_generate_report_with_events0B7_
FN:175,_RNCNvNtNtCs86Lp2I5pN1o_13intent_engine6report5testss_33test_generate_report_summary_only0B7_
FN:365,_RNCNvNtNtCs86Lp2I5pN1o_13intent_engine6report5testss_35test_generate_report_filter_by_spec0B7_
FN:518,_RNCNvNtNtCs86Lp2I5pN1o_13intent_engine6report5testss_36test_report_events_count_consistency0B7_
FN:220,_RNCNvNtNtCs86Lp2I5pN1o_13intent_engine6report5testss_37test_generate_report_filter_by_status0B7_
FN:552,_RNCNvNtNtCs86Lp2I5pN1o_13intent_engine6report5testss_41test_generate_report_all_filters_combined0B7_
FN:440,_RNCNvNtNtCs86Lp2I5pN1o_13intent_engine6report5testss_43test_filter_tasks_by_fts_both_name_and_spec0B7_
FN:390,_RNCNvNtNtCs86Lp2I5pN1o_13intent_engine6report5testss_46test_generate_report_combined_status_and_since0B7_
FNDA:0,_RNCNCNvMNtCsjp9E11WtBq9_13intent_engine6reportNtB6_13ReportManager15generate_report00B8_
FNDA:0,_RNCNCNvMNtCsjp9E11WtBq9_13intent_engine6reportNtB6_13ReportManager15generate_report0s0_0B8_
FNDA:0,_RNCNCNvMNtCsjp9E11WtBq9_13intent_engine6reportNtB6_13ReportManager15generate_report0s1_0B8_
FNDA:0,_RNCNCNvMNtCsjp9E11WtBq9_13intent_engine6reportNtB6_13ReportManager15generate_report0s2_0B8_
FNDA:0,_RNCNCNvMNtCsjp9E11WtBq9_13intent_engine6reportNtB6_13ReportManager15generate_report0s_0B8_
FNDA:0,_RNCNvMNtCsjp9E11WtBq9_13intent_engine6reportNtB4_13ReportManager15generate_report0B6_
FNDA:0,_RNCNvMNtCsjp9E11WtBq9_13intent_engine6reportNtB4_13ReportManager19filter_tasks_by_fts0B6_
FNDA:0,_RNvMNtCsjp9E11WtBq9_13intent_engine6reportNtB2_13ReportManager15generate_report
FNDA:0,_RNvMNtCsjp9E11WtBq9_13intent_engine6reportNtB2_13ReportManager19filter_tasks_by_fts
FNDA:0,_RNvMNtCsjp9E11WtBq9_13intent_engine6reportNtB2_13ReportManager3new
FNDA:17,_RNvMNtCs86Lp2I5pN1o_13intent_engine6reportNtB2_13ReportManager15generate_report
FNDA:7,_RNvMNtCs86Lp2I5pN1o_13intent_engine6reportNtB2_13ReportManager19filter_tasks_by_fts
FNDA:19,_RNvMNtCs86Lp2I5pN1o_13intent_engine6reportNtB2_13ReportManager3new
FNDA:5,_RNCNCNvMNtCs86Lp2I5pN1o_13intent_engine6reportNtB6_13ReportManager15generate_report00B8_
FNDA:19,_RNCNCNvMNtCs86Lp2I5pN1o_13intent_engine6reportNtB6_13ReportManager15generate_report0s0_0B8_
FNDA:19,_RNCNCNvMNtCs86Lp2I5pN1o_13intent_engine6reportNtB6_13ReportManager15generate_report0s1_0B8_
FNDA:5,_RNCNCNvMNtCs86Lp2I5pN1o_13intent_engine6reportNtB6_13ReportManager15generate_report0s2_0B8_
FNDA:19,_RNCNCNvMNtCs86Lp2I5pN1o_13intent_engine6reportNtB6_13ReportManager15generate_report0s_0B8_
FNDA:17,_RNCNvMNtCs86Lp2I5pN1o_13intent_engine6reportNtB4_13ReportManager15generate_report0B6_
FNDA:7,_RNCNvMNtCs86Lp2I5pN1o_13intent_engine6reportNtB4_13ReportManager19filter_tasks_by_fts0B6_
FNDA:1,_RNvNtNtCs86Lp2I5pN1o_13intent_engine6report5testss_17test_empty_report
FNDA:1,_RNvNtNtCs86Lp2I5pN1o_13intent_engine6report5testss_24test_parse_duration_days
FNDA:1,_RNvNtNtCs86Lp2I5pN1o_13intent_engine6report5testss_25test_generate_report_full
FNDA:1,_RNvNtNtCs86Lp2I5pN1o_13intent_engine6report5testss_25test_parse_duration_hours
FNDA:1,_RNvNtNtCs86Lp2I5pN1o_13intent_engine6report5testss_27test_parse_duration_invalid
FNDA:1,_RNvNtNtCs86Lp2I5pN1o_13intent_engine6report5testss_29test_filter_tasks_by_fts_name
FNDA:1,_RNvNtNtCs86Lp2I5pN1o_13intent_engine6report5testss_29test_filter_tasks_by_fts_spec
FNDA:1,_RNvNtNtCs86Lp2I5pN1o_13intent_engine6report5testss_29test_report_date_range_absent
FNDA:1,_RNvNtNtCs86Lp2I5pN1o_13intent_engine6report5testss_30test_filter_tasks_by_fts_empty
FNDA:1,_RNvNtNtCs86Lp2I5pN1o_13intent_engine6report5testss_30test_report_date_range_present
FNDA:1,_RNvNtNtCs86Lp2I5pN1o_13intent_engine6report5testss_30test_report_filter_consistency
FNDA:1,_RNvNtNtCs86Lp2I5pN1o_13intent_engine6report5testss_31test_generate_report_with_since
FNDA:1,_RNvNtNtCs86Lp2I5pN1o_13intent_engine6report5testss_32test_generate_report_with_events
FNDA:1,_RNvNtNtCs86Lp2I5pN1o_13intent_engine6report5testss_33test_generate_report_summary_only
FNDA:1,_RNvNtNtCs86Lp2I5pN1o_13intent_engine6report5testss_35test_generate_report_filter_by_spec
FNDA:1,_RNvNtNtCs86Lp2I5pN1o_13intent_engine6report5testss_36test_report_events_count_consistency
FNDA:1,_RNvNtNtCs86Lp2I5pN1o_13intent_engine6report5testss_37test_generate_report_filter_by_status
FNDA:1,_RNvNtNtCs86Lp2I5pN1o_13intent_engine6report5testss_41test_generate_report_all_filters_combined
FNDA:1,_RNvNtNtCs86Lp2I5pN1o_13intent_engine6report5testss_43test_filter_tasks_by_fts_both_name_and_spec
FNDA:1,_RNvNtNtCs86Lp2I5pN1o_13intent_engine6report5testss_46test_generate_report_combined_status_and_since
FNDA:1,_RNCNvNtNtCs86Lp2I5pN1o_13intent_engine6report5testss_17test_empty_report0B7_
FNDA:1,_RNCNvNtNtCs86Lp2I5pN1o_13intent_engine6report5testss_24test_parse_duration_days0B7_
FNDA:1,_RNCNvNtNtCs86Lp2I5pN1o_13intent_engine6report5testss_25test_generate_report_full0B7_
FNDA:1,_RNCNvNtNtCs86Lp2I5pN1o_13intent_engine6report5testss_25test_parse_duration_hours0B7_
FNDA:1,_RNCNvNtNtCs86Lp2I5pN1o_13intent_engine6report5testss_27test_parse_duration_invalid0B7_
FNDA:1,_RNCNvNtNtCs86Lp2I5pN1o_13intent_engine6report5testss_29test_filter_tasks_by_fts_name0B7_
FNDA:1,_RNCNvNtNtCs86Lp2I5pN1o_13intent_engine6report5testss_29test_filter_tasks_by_fts_spec0B7_
FNDA:1,_RNCNvNtNtCs86Lp2I5pN1o_13intent_engine6report5testss_29test_report_date_range_absent0B7_
FNDA:1,_RNCNvNtNtCs86Lp2I5pN1o_13intent_engine6report5testss_30test_filter_tasks_by_fts_empty0B7_
FNDA:1,_RNCNvNtNtCs86Lp2I5pN1o_13intent_engine6report5testss_30test_report_date_range_present0B7_
FNDA:1,_RNCNvNtNtCs86Lp2I5pN1o_13intent_engine6report5testss_30test_report_filter_consistency0B7_
FNDA:1,_RNCNvNtNtCs86Lp2I5pN1o_13intent_engine6report5testss_31test_generate_report_with_since0B7_
FNDA:1,_RNCNvNtNtCs86Lp2I5pN1o_13intent_engine6report5testss_32test_generate_report_with_events0B7_
FNDA:1,_RNCNvNtNtCs86Lp2I5pN1o_13intent_engine6report5testss_33test_generate_report_summary_only0B7_
FNDA:1,_RNCNvNtNtCs86Lp2I5pN1o_13intent_engine6report5testss_35test_generate_report_filter_by_spec0B7_
FNDA:1,_RNCNvNtNtCs86Lp2I5pN1o_13intent_engine6report5testss_36test_report_events_count_consistency0B7_
FNDA:1,_RNCNvNtNtCs86Lp2I5pN1o_13intent_engine6report5testss_37test_generate_report_filter_by_status0B7_
FNDA:1,_RNCNvNtNtCs86Lp2I5pN1o_13intent_engine6report5testss_41test_generate_report_all_filters_combined0B7_
FNDA:1,_RNCNvNtNtCs86Lp2I5pN1o_13intent_engine6report5testss_43test_filter_tasks_by_fts_both_name_and_spec0B7_
FNDA:1,_RNCNvNtNtCs86Lp2I5pN1o_13intent_engine6report5testss_46test_generate_report_combined_status_and_since0B7_
FNF:50
FNH:50
DA:11,19
DA:12,19
DA:13,19
DA:16,17
DA:17,17
DA:18,17
DA:19,17
DA:20,17
DA:21,17
DA:22,17
DA:23,17
DA:25,17
DA:28,17
DA:29,17
DA:31,17
DA:32,4
DA:33,4
DA:34,13
DA:36,17
DA:37,5
DA:38,5
DA:39,12
DA:42,17
DA:43,4
DA:45,13
DA:49,17
DA:50,3
DA:51,3
DA:52,3
DA:54,3
DA:55,3
DA:56,5
DA:57,2
DA:58,2
DA:59,7
DA:60,4
DA:61,4
DA:62,3
DA:63,14
DA:64,13
DA:65,13
DA:66,20
DA:67,7
DA:68,7
DA:69,13
DA:71,1
DA:75,19
DA:76,19
DA:77,19
DA:79,17
DA:82,17
DA:83,9
DA:84,9
DA:86,9
DA:87,3
DA:88,3
DA:89,6
DA:91,9
DA:93,9
DA:94,12
DA:95,3
DA:96,3
DA:98,9
DA:100,8
DA:103,17
DA:104,9
DA:106,8
DA:107,8
DA:108,8
DA:111,17
DA:112,5
DA:113,5
DA:114,5
DA:117,17
DA:118,17
DA:119,17
DA:120,17
DA:121,17
DA:122,17
DA:123,17
DA:124,17
DA:125,17
DA:126,17
DA:127,17
DA:128,17
DA:130,17
DA:133,7
DA:134,7
DA:135,7
DA:136,7
DA:137,7
DA:138,7
DA:139,7
DA:141,7
DA:142,3
DA:143,3
DA:144,3
DA:145,3
DA:146,4
DA:148,7
DA:149,5
DA:150,5
DA:151,5
DA:152,5
DA:153,5
DA:155,7
DA:156,1
DA:157,6
DA:159,6
DA:161,6
DA:163,6
DA:164,7
DA:175,1
DA:176,1
DA:177,1
DA:178,1
DA:181,1
DA:182,1
DA:183,1
DA:184,1
DA:185,1
DA:186,1
DA:188,1
DA:189,1
DA:190,1
DA:191,1
DA:193,1
DA:194,1
DA:195,1
DA:196,1
DA:197,1
DA:198,1
DA:199,1
DA:202,1
DA:203,1
DA:204,1
DA:205,1
DA:207,1
DA:208,1
DA:210,1
DA:211,1
DA:212,1
DA:213,1
DA:215,1
DA:216,1
DA:217,1
DA:220,1
DA:221,1
DA:222,1
DA:223,1
DA:225,1
DA:226,1
DA:227,1
DA:229,1
DA:230,1
DA:231,1
DA:232,1
DA:234,1
DA:235,1
DA:236,1
DA:237,1
DA:240,1
DA:241,1
DA:242,1
DA:243,1
DA:244,1
DA:246,1
DA:247,1
DA:248,1
DA:249,1
DA:250,1
DA:252,1
DA:253,1
DA:254,1
DA:255,1
DA:257,1
DA:258,1
DA:259,1
DA:262,1
DA:263,1
DA:264,1
DA:265,1
DA:268,1
DA:269,1
DA:270,1
DA:271,1
DA:274,1
DA:275,1
DA:276,1
DA:277,1
DA:280,1
DA:281,1
DA:282,1
DA:283,1
DA:285,1
DA:286,1
DA:287,1
DA:288,1
DA:289,1
DA:290,1
DA:291,1
DA:292,1
DA:294,1
DA:295,1
DA:296,1
DA:297,1
DA:299,1
DA:300,1
DA:301,1
DA:302,1
DA:305,1
DA:306,1
DA:307,1
DA:309,1
DA:310,1
DA:311,1
DA:312,1
DA:314,1
DA:315,1
DA:316,1
DA:319,1
DA:320,1
DA:321,1
DA:322,1
DA:325,1
DA:326,1
DA:327,1
DA:328,1
DA:331,1
DA:332,1
DA:333,1
DA:334,1
DA:337,1
DA:338,1
DA:339,1
DA:340,1
DA:341,1
DA:344,1
DA:345,1
DA:346,1
DA:347,1
DA:350,1
DA:351,1
DA:354,1
DA:355,1
DA:356,1
DA:357,1
DA:360,1
DA:361,1
DA:362,1
DA:365,1
DA:366,1
DA:367,1
DA:368,1
DA:370,1
DA:371,1
DA:372,1
DA:373,1
DA:374,1
DA:375,1
DA:376,1
DA:377,1
DA:379,1
DA:380,1
DA:381,1
DA:382,1
DA:384,1
DA:385,1
DA:386,1
DA:387,1
DA:390,1
DA:391,1
DA:392,1
DA:393,1
DA:395,1
DA:396,1
DA:397,1
DA:400,1
DA:401,1
DA:402,1
DA:403,1
DA:404,1
DA:405,1
DA:406,1
DA:407,1
DA:408,1
DA:409,1
DA:411,1
DA:412,1
DA:413,1
DA:414,1
DA:417,1
DA:418,1
DA:419,1
DA:420,1
DA:422,1
DA:423,1
DA:424,1
DA:425,1
DA:426,1
DA:427,1
DA:428,1
DA:429,1
DA:431,1
DA:432,1
DA:433,1
DA:434,1
DA:436,1
DA:437,1
DA:440,1
DA:441,1
DA:442,1
DA:443,1
DA:445,1
DA:446,1
DA:447,1
DA:448,1
DA:449,1
DA:450,1
DA:451,1
DA:452,1
DA:453,1
DA:454,1
DA:455,1
DA:456,1
DA:459,1
DA:460,1
DA:461,1
DA:462,1
DA:463,1
DA:464,1
DA:465,1
DA:467,1
DA:468,1
DA:471,1
DA:472,1
DA:473,1
DA:476,1
DA:478,1
DA:479,1
DA:482,1
DA:483,1
DA:484,1
DA:485,1
DA:487,1
DA:489,1
DA:490,1
DA:491,1
DA:492,1
DA:495,1
DA:496,1
DA:497,1
DA:498,1
DA:501,1
DA:502,1
DA:503,1
DA:504,1
DA:506,1
DA:508,1
DA:509,1
DA:510,1
DA:511,1
DA:514,1
DA:515,1
DA:518,1
DA:519,1
DA:520,1
DA:521,1
DA:522,1
DA:524,1
DA:525,1
DA:526,1
DA:527,1
DA:528,1
DA:529,1
DA:530,1
DA:531,1
DA:532,1
DA:535,1
DA:536,1
DA:537,1
DA:538,1
DA:539,1
DA:540,1
DA:543,1
DA:544,1
DA:545,1
DA:546,1
DA:547,1
DA:548,1
DA:549,1
DA:552,1
DA:553,1
DA:554,1
DA:555,1
DA:557,1
DA:558,1
DA:559,1
DA:560,1
DA:561,1
DA:562,1
DA:563,1
DA:564,1
DA:565,1
DA:568,1
DA:569,1
DA:570,1
DA:571,1
DA:572,1
DA:573,1
DA:574,1
DA:575,1
DA:576,1
DA:577,1
DA:579,1
DA:580,1
DA:581,1
DA:582,1
DA:583,1
BRF:0
BRH:0
LF:465
LH:465
end_of_record
SF:/mnt/d/prj/intent-engine/src/search.rs
FN:101,_RNvMNtCsjp9E11WtBq9_13intent_engine6searchNtB2_13SearchManager3new
FN:124,_RNvMNtCsjp9E11WtBq9_13intent_engine6searchNtB2_13SearchManager6search
FN:83,_RNvNtCsjp9E11WtBq9_13intent_engine6search11escape_fts5
FN:16,_RNvNtCsjp9E11WtBq9_13intent_engine6search11is_cjk_char
FN:46,_RNvNtCsjp9E11WtBq9_13intent_engine6search19needs_like_fallback
FN:149,_RNCNCNvMNtCsjp9E11WtBq9_13intent_engine6searchNtB6_13SearchManager6search00B8_
FN:481,_RNCNCNvMNtCsjp9E11WtBq9_13intent_engine6searchNtB6_13SearchManager6search0s0_0B8_
FN:399,_RNCNCNvMNtCsjp9E11WtBq9_13intent_engine6searchNtB6_13SearchManager6search0s_0B8_
FN:132,_RNCNvMNtCsjp9E11WtBq9_13intent_engine6searchNtB4_13SearchManager6search0B6_
FN:57,_RNCNvNtCsjp9E11WtBq9_13intent_engine6search19needs_like_fallback0B5_
FN:149,_RNCNCNvMNtCs86Lp2I5pN1o_13intent_engine6searchNtB6_13SearchManager6search00B8_
FN:481,_RNCNCNvMNtCs86Lp2I5pN1o_13intent_engine6searchNtB6_13SearchManager6search0s0_0B8_
FN:399,_RNCNCNvMNtCs86Lp2I5pN1o_13intent_engine6searchNtB6_13SearchManager6search0s_0B8_
FN:132,_RNCNvMNtCs86Lp2I5pN1o_13intent_engine6searchNtB4_13SearchManager6search0B6_
FN:57,_RNCNvNtCs86Lp2I5pN1o_13intent_engine6search19needs_like_fallback0B5_
FN:507,_RNvNtNtCs86Lp2I5pN1o_13intent_engine6search5testss_16test_is_cjk_char
FN:641,_RNvNtNtCs86Lp2I5pN1o_13intent_engine6search5testss_22test_escape_fts5_basic
FN:629,_RNvNtNtCs86Lp2I5pN1o_13intent_engine6search5testss_23test_is_cjk_char_korean
FN:535,_RNvNtNtCs86Lp2I5pN1o_13intent_engine6search5testss_24test_needs_like_fallback
FN:612,_RNvNtNtCs86Lp2I5pN1o_13intent_engine6search5testss_25test_is_cjk_char_japanese
FN:651,_RNvNtNtCs86Lp2I5pN1o_13intent_engine6search5testss_30test_escape_fts5_double_quotes
FN:688,_RNvNtNtCs86Lp2I5pN1o_13intent_engine6search5testss_32test_escape_fts5_cjk_with_quotes
FN:671,_RNvNtNtCs86Lp2I5pN1o_13intent_engine6search5testss_32test_escape_fts5_complex_queries
FN:595,_RNvNtNtCs86Lp2I5pN1o_13intent_engine6search5testss_33test_is_cjk_char_extension_ranges
FN:576,_RNvNtNtCs86Lp2I5pN1o_13intent_engine6search5testss_35test_needs_like_fallback_edge_cases
FN:562,_RNvNtNtCs86Lp2I5pN1o_13intent_engine6search5testss_40test_needs_like_fallback_mixed_cjk_ascii
FN:701,_RNvNtNtCs86Lp2I5pN1o_13intent_engine6search5testss_46test_needs_like_fallback_unicode_normalization
FN:101,_RNvMNtCs86Lp2I5pN1o_13intent_engine6searchNtB2_13SearchManager3new
FN:124,_RNvMNtCs86Lp2I5pN1o_13intent_engine6searchNtB2_13SearchManager6search
FN:83,_RNvNtCs86Lp2I5pN1o_13intent_engine6search11escape_fts5
FN:16,_RNvNtCs86Lp2I5pN1o_13intent_engine6search11is_cjk_char
FN:46,_RNvNtCs86Lp2I5pN1o_13intent_engine6search19needs_like_fallback
FNDA:10,_RNvMNtCsjp9E11WtBq9_13intent_engine6searchNtB2_13SearchManager3new
FNDA:40,_RNvMNtCsjp9E11WtBq9_13intent_engine6searchNtB2_13SearchManager6search
FNDA:37,_RNvNtCsjp9E11WtBq9_13intent_engine6search11escape_fts5
FNDA:44,_RNvNtCsjp9E11WtBq9_13intent_engine6search11is_cjk_char
FNDA:37,_RNvNtCsjp9E11WtBq9_13intent_engine6search19needs_like_fallback
FNDA:41,_RNCNCNvMNtCsjp9E11WtBq9_13intent_engine6searchNtB6_13SearchManager6search00B8_
FNDA:42,_RNCNCNvMNtCsjp9E11WtBq9_13intent_engine6searchNtB6_13SearchManager6search0s0_0B8_
FNDA:10,_RNCNCNvMNtCsjp9E11WtBq9_13intent_engine6searchNtB6_13SearchManager6search0s_0B8_
FNDA:40,_RNCNvMNtCsjp9E11WtBq9_13intent_engine6searchNtB4_13SearchManager6search0B6_
FNDA:32,_RNCNvNtCsjp9E11WtBq9_13intent_engine6search19needs_like_fallback0B5_
FNDA:0,_RNCNCNvMNtCs86Lp2I5pN1o_13intent_engine6searchNtB6_13SearchManager6search00B8_
FNDA:0,_RNCNCNvMNtCs86Lp2I5pN1o_13intent_engine6searchNtB6_13SearchManager6search0s0_0B8_
FNDA:0,_RNCNCNvMNtCs86Lp2I5pN1o_13intent_engine6searchNtB6_13SearchManager6search0s_0B8_
FNDA:0,_RNCNvMNtCs86Lp2I5pN1o_13intent_engine6searchNtB4_13SearchManager6search0B6_
FNDA:18,_RNCNvNtCs86Lp2I5pN1o_13intent_engine6search19needs_like_fallback0B5_
FNDA:1,_RNvNtNtCs86Lp2I5pN1o_13intent_engine6search5testss_16test_is_cjk_char
FNDA:1,_RNvNtNtCs86Lp2I5pN1o_13intent_engine6search5testss_22test_escape_fts5_basic
FNDA:1,_RNvNtNtCs86Lp2I5pN1o_13intent_engine6search5testss_23test_is_cjk_char_korean
FNDA:1,_RNvNtNtCs86Lp2I5pN1o_13intent_engine6search5testss_24test_needs_like_fallback
FNDA:1,_RNvNtNtCs86Lp2I5pN1o_13intent_engine6search5testss_25test_is_cjk_char_japanese
FNDA:1,_RNvNtNtCs86Lp2I5pN1o_13intent_engine6search5testss_30test_escape_fts5_double_quotes
FNDA:1,_RNvNtNtCs86Lp2I5pN1o_13intent_engine6search5testss_32test_escape_fts5_cjk_with_quotes
FNDA:1,_RNvNtNtCs86Lp2I5pN1o_13intent_engine6search5testss_32test_escape_fts5_complex_queries
FNDA:1,_RNvNtNtCs86Lp2I5pN1o_13intent_engine6search5testss_33test_is_cjk_char_extension_ranges
FNDA:1,_RNvNtNtCs86Lp2I5pN1o_13intent_engine6search5testss_35test_needs_like_fallback_edge_cases
FNDA:1,_RNvNtNtCs86Lp2I5pN1o_13intent_engine6search5testss_40test_needs_like_fallback_mixed_cjk_ascii
FNDA:1,_RNvNtNtCs86Lp2I5pN1o_13intent_engine6search5testss_46test_needs_like_fallback_unicode_normalization
FNDA:0,_RNvMNtCs86Lp2I5pN1o_13intent_engine6searchNtB2_13SearchManager3new
FNDA:0,_RNvMNtCs86Lp2I5pN1o_13intent_engine6searchNtB2_13SearchManager6search
FNDA:24,_RNvNtCs86Lp2I5pN1o_13intent_engine6search11escape_fts5
FNDA:65,_RNvNtCs86Lp2I5pN1o_13intent_engine6search11is_cjk_char
FNDA:32,_RNvNtCs86Lp2I5pN1o_13intent_engine6search19needs_like_fallback
FNF:22
FNH:22
DA:16,109
DA:17,109
DA:18,109
DA:20,69
DA:22,16
DA:24,0
DA:25,0
DA:26,0
DA:27,0
DA:28,0
DA:30,29
DA:32,22
DA:34,10
DA:36,109
DA:46,69
DA:47,69
DA:50,69
DA:51,14
DA:52,55
DA:57,55
DA:58,21
DA:59,34
DA:61,34
DA:62,69
DA:83,61
DA:84,61
DA:85,61
DA:101,10
DA:102,10
DA:103,10
DA:124,40
DA:125,40
DA:126,40
DA:127,40
DA:128,40
DA:129,40
DA:130,40
DA:131,40
DA:132,40
DA:133,40
DA:134,40
DA:137,40
DA:138,2
DA:139,2
DA:140,2
DA:141,2
DA:142,2
DA:143,2
DA:144,2
DA:145,2
DA:146,38
DA:149,41
DA:150,38
DA:151,1
DA:152,1
DA:153,1
DA:154,1
DA:155,1
DA:156,1
DA:157,1
DA:158,1
DA:159,37
DA:162,37
DA:164,37
DA:165,37
DA:166,37
DA:169,37
DA:171,37
DA:173,24
DA:176,24
DA:178,24
DA:179,24
DA:180,24
DA:181,24
DA:182,24
DA:183,24
DA:184,24
DA:185,24
DA:188,24
DA:189,0
DA:191,24
DA:195,24
DA:196,24
DA:197,24
DA:198,24
DA:199,24
DA:200,24
DA:201,24
DA:202,24
DA:203,24
DA:204,24
DA:205,24
DA:206,24
DA:207,24
DA:208,24
DA:209,24
DA:210,24
DA:211,24
DA:212,24
DA:213,24
DA:217,24
DA:218,24
DA:219,24
DA:220,24
DA:221,24
DA:222,24
DA:223,24
DA:225,90
DA:226,66
DA:227,66
DA:228,66
DA:229,66
DA:230,66
DA:231,66
DA:232,66
DA:233,66
DA:234,66
DA:235,66
DA:236,66
DA:237,66
DA:238,66
DA:241,66
DA:242,65
DA:243,1
DA:244,1
DA:245,1
DA:247,0
DA:250,0
DA:253,66
DA:254,66
DA:255,66
DA:256,66
DA:257,66
DA:258,66
DA:259,66
DA:260,66
DA:262,0
DA:265,24
DA:267,0
DA:268,0
DA:269,0
DA:270,0
DA:271,0
DA:272,0
DA:273,0
DA:276,0
DA:277,0
DA:278,0
DA:279,0
DA:280,0
DA:281,0
DA:282,0
DA:283,0
DA:284,0
DA:285,0
DA:286,0
DA:287,0
DA:288,0
DA:289,0
DA:290,0
DA:291,0
DA:292,0
DA:293,0
DA:294,0
DA:296,0
DA:297,0
DA:298,0
DA:299,0
DA:300,0
DA:301,0
DA:302,0
DA:303,0
DA:304,0
DA:307,0
DA:310,0
DA:312,0
DA:313,0
DA:314,0
DA:315,0
DA:316,0
DA:317,0
DA:318,0
DA:319,0
DA:321,24
DA:325,13
DA:327,13
DA:328,13
DA:329,13
DA:330,13
DA:331,13
DA:332,13
DA:333,13
DA:336,13
DA:337,0
DA:339,13
DA:343,13
DA:344,13
DA:345,13
DA:346,13
DA:347,13
DA:348,13
DA:349,13
DA:350,13
DA:351,13
DA:352,13
DA:353,13
DA:354,13
DA:355,13
DA:356,13
DA:357,13
DA:358,13
DA:359,13
DA:360,13
DA:361,13
DA:362,13
DA:363,13
DA:364,13
DA:365,13
DA:366,13
DA:367,13
DA:371,13
DA:372,13
DA:373,13
DA:374,13
DA:375,13
DA:376,13
DA:378,26
DA:379,13
DA:380,13
DA:381,13
DA:382,13
DA:383,13
DA:384,13
DA:385,13
DA:386,13
DA:387,13
DA:388,13
DA:389,13
DA:390,13
DA:391,13
DA:392,13
DA:393,13
DA:396,13
DA:397,13
DA:398,13
DA:399,13
DA:400,13
DA:402,9
DA:404,4
DA:407,13
DA:408,13
DA:409,13
DA:410,13
DA:411,13
DA:412,13
DA:413,13
DA:414,13
DA:416,0
DA:419,13
DA:421,0
DA:422,0
DA:423,0
DA:424,0
DA:425,0
DA:426,0
DA:427,0
DA:430,0
DA:431,0
DA:432,0
DA:433,0
DA:434,0
DA:435,0
DA:436,0
DA:437,0
DA:438,0
DA:439,0
DA:440,0
DA:441,0
DA:442,0
DA:443,0
DA:444,0
DA:445,0
DA:446,0
DA:447,0
DA:448,0
DA:449,0
DA:450,0
DA:451,0
DA:453,0
DA:454,0
DA:455,0
DA:456,0
DA:457,0
DA:458,0
DA:459,0
DA:460,0
DA:461,0
DA:462,0
DA:463,0
DA:466,0
DA:468,0
DA:469,0
DA:470,0
DA:471,0
DA:472,0
DA:473,0
DA:474,0
DA:475,0
DA:477,13
DA:481,42
DA:484,37
DA:485,37
DA:488,37
DA:489,37
DA:491,37
DA:492,37
DA:493,37
DA:494,37
DA:495,37
DA:496,37
DA:497,37
DA:498,37
DA:499,40
DA:507,1
DA:509,1
DA:510,1
DA:511,1
DA:512,1
DA:515,1
DA:516,1
DA:519,1
DA:520,1
DA:523,1
DA:524,1
DA:527,1
DA:528,1
DA:529,1
DA:530,1
DA:531,1
DA:532,1
DA:535,1
DA:537,1
DA:538,1
DA:539,1
DA:540,1
DA:543,1
DA:544,1
DA:545,1
DA:548,1
DA:549,1
DA:552,1
DA:553,1
DA:554,1
DA:557,1
DA:558,1
DA:559,1
DA:562,1
DA:565,1
DA:566,1
DA:567,1
DA:570,1
DA:571,1
DA:572,1
DA:573,1
DA:576,1
DA:578,1
DA:581,1
DA:582,1
DA:585,1
DA:586,1
DA:587,1
DA:590,1
DA:591,1
DA:592,1
DA:595,1
DA:597,1
DA:598,1
DA:601,1
DA:602,1
DA:605,1
DA:606,1
DA:607,1
DA:608,1
DA:609,1
DA:612,1
DA:614,1
DA:615,1
DA:616,1
DA:619,1
DA:620,1
DA:621,1
DA:624,1
DA:625,1
DA:626,1
DA:629,1
DA:631,1
DA:632,1
DA:633,1
DA:636,1
DA:637,1
DA:638,1
DA:641,1
DA:643,1
DA:644,1
DA:647,1
DA:648,1
DA:651,1
DA:653,1
DA:656,1
DA:657,1
DA:662,1
DA:663,1
DA:666,1
DA:667,1
DA:668,1
DA:671,1
DA:673,1
DA:674,1
DA:679,1
DA:682,1
DA:683,1
DA:684,1
DA:685,1
DA:688,1
DA:690,1
DA:691,1
DA:694,1
DA:695,1
DA:698,1
DA:701,1
DA:706,1
DA:707,1
DA:710,1
DA:711,1
DA:712,1
BRF:0
BRH:0
LF:440
LH:335
end_of_record
SF:/mnt/d/prj/intent-engine/src/session_restore.rs
FN:265,_RNCNCNvMNtCsjp9E11WtBq9_13intent_engine15session_restoreNtB6_21SessionRestoreManager16restore_no_focus00B8_
FN:284,_RNCNCNvMNtCsjp9E11WtBq9_13intent_engine15session_restoreNtB6_21SessionRestoreManager16restore_no_focus0s_0B8_
FN:137,_RNCNCNvMNtCsjp9E11WtBq9_13intent_engine15session_restoreNtB6_21SessionRestoreManager7restore00B8_
FN:181,_RNCNCNvMNtCsjp9E11WtBq9_13intent_engine15session_restoreNtB6_21SessionRestoreManager7restore0s0_0B8_
FN:182,_RNCNCNvMNtCsjp9E11WtBq9_13intent_engine15session_restoreNtB6_21SessionRestoreManager7restore0s1_0B8_
FN:188,_RNCNCNvMNtCsjp9E11WtBq9_13intent_engine15session_restoreNtB6_21SessionRestoreManager7restore0s2_0B8_
FN:222,_RNCNCNvMNtCsjp9E11WtBq9_13intent_engine15session_restoreNtB6_21SessionRestoreManager7restore0s3_0B8_
FN:173,_RNCNCNvMNtCsjp9E11WtBq9_13intent_engine15session_restoreNtB6_21SessionRestoreManager7restore0s_0B8_
FN:256,_RNCNvMNtCsjp9E11WtBq9_13intent_engine15session_restoreNtB4_21SessionRestoreManager16restore_no_focus0B6_
FN:351,_RNCNvMNtCsjp9E11WtBq9_13intent_engine15session_restoreNtB4_21SessionRestoreManager19build_children_info0B6_
FN:359,_RNCNvMNtCsjp9E11WtBq9_13intent_engine15session_restoreNtB4_21SessionRestoreManager19build_children_infos_0B6_
FN:325,_RNCNvMNtCsjp9E11WtBq9_13intent_engine15session_restoreNtB4_21SessionRestoreManager19build_siblings_info0B6_
FN:335,_RNCNvMNtCsjp9E11WtBq9_13intent_engine15session_restoreNtB4_21SessionRestoreManager19build_siblings_infos0_0B6_
FN:336,_RNCNvMNtCsjp9E11WtBq9_13intent_engine15session_restoreNtB4_21SessionRestoreManager19build_siblings_infos1_0B6_
FN:337,_RNCNvMNtCsjp9E11WtBq9_13intent_engine15session_restoreNtB4_21SessionRestoreManager19build_siblings_infos2_0B6_
FN:327,_RNCNvMNtCsjp9E11WtBq9_13intent_engine15session_restoreNtB4_21SessionRestoreManager19build_siblings_infos_0B6_
FN:129,_RNCNvMNtCsjp9E11WtBq9_13intent_engine15session_restoreNtB4_21SessionRestoreManager7restore0B6_
FN:398,_RNvMNtCsjp9E11WtBq9_13intent_engine15session_restoreNtB2_21SessionRestoreManager12error_result
FN:389,_RNvMNtCsjp9E11WtBq9_13intent_engine15session_restoreNtB2_21SessionRestoreManager13truncate_spec
FN:253,_RNvMNtCsjp9E11WtBq9_13intent_engine15session_restoreNtB2_21SessionRestoreManager16restore_no_focus
FN:365,_RNvMNtCsjp9E11WtBq9_13intent_engine15session_restoreNtB2_21SessionRestoreManager16suggest_commands
FN:343,_RNvMNtCsjp9E11WtBq9_13intent_engine15session_restoreNtB2_21SessionRestoreManager19build_children_info
FN:318,_RNvMNtCsjp9E11WtBq9_13intent_engine15session_restoreNtB2_21SessionRestoreManager19build_siblings_info
FN:124,_RNvMNtCsjp9E11WtBq9_13intent_engine15session_restoreNtB2_21SessionRestoreManager3new
FN:129,_RNvMNtCsjp9E11WtBq9_13intent_engine15session_restoreNtB2_21SessionRestoreManager7restore
FN:398,_RNvMNtCs86Lp2I5pN1o_13intent_engine15session_restoreNtB2_21SessionRestoreManager12error_result
FN:389,_RNvMNtCs86Lp2I5pN1o_13intent_engine15session_restoreNtB2_21SessionRestoreManager13truncate_spec
FN:253,_RNvMNtCs86Lp2I5pN1o_13intent_engine15session_restoreNtB2_21SessionRestoreManager16restore_no_focus
FN:365,_RNvMNtCs86Lp2I5pN1o_13intent_engine15session_restoreNtB2_21SessionRestoreManager16suggest_commands
FN:343,_RNvMNtCs86Lp2I5pN1o_13intent_engine15session_restoreNtB2_21SessionRestoreManager19build_children_info
FN:318,_RNvMNtCs86Lp2I5pN1o_13intent_engine15session_restoreNtB2_21SessionRestoreManager19build_siblings_info
FN:124,_RNvMNtCs86Lp2I5pN1o_13intent_engine15session_restoreNtB2_21SessionRestoreManager3new
FN:129,_RNvMNtCs86Lp2I5pN1o_13intent_engine15session_restoreNtB2_21SessionRestoreManager7restore
FN:444,_RNvNtNtCs86Lp2I5pN1o_13intent_engine15session_restore5testss_18test_truncate_spec
FN:620,_RNvNtNtCs86Lp2I5pN1o_13intent_engine15session_restore5testss_21test_restore_no_focus
FN:452,_RNvNtNtCs86Lp2I5pN1o_13intent_engine15session_restore5testss_24test_truncate_spec_short
FN:767,_RNvNtNtCs86Lp2I5pN1o_13intent_engine15session_restore5testss_30test_build_children_info_empty
FN:760,_RNvNtNtCs86Lp2I5pN1o_13intent_engine15session_restore5testss_30test_build_siblings_info_empty
FN:591,_RNvNtNtCs86Lp2I5pN1o_13intent_engine15session_restore5testss_30test_restore_with_spec_preview
FN:460,_RNvNtNtCs86Lp2I5pN1o_13intent_engine15session_restore5testss_31test_restore_with_focus_minimal
FN:684,_RNvNtNtCs86Lp2I5pN1o_13intent_engine15session_restore5testss_32test_restore_custom_events_limit
FN:654,_RNvNtNtCs86Lp2I5pN1o_13intent_engine15session_restore5testss_32test_restore_recent_events_limit
FN:714,_RNvNtNtCs86Lp2I5pN1o_13intent_engine15session_restore5testss_35test_suggest_commands_with_children
FN:484,_RNvNtNtCs86Lp2I5pN1o_13intent_engine15session_restore5testss_36test_restore_with_focus_rich_context
FN:738,_RNvNtNtCs86Lp2I5pN1o_13intent_engine15session_restore5testss_37test_error_result_workspace_not_found
FN:584,_RNCNCNvNtNtCs86Lp2I5pN1o_13intent_engine15session_restore5testss_36test_restore_with_focus_rich_context00B9_
FN:620,_RNCNvNtNtCs86Lp2I5pN1o_13intent_engine15session_restore5testss_21test_restore_no_focus0B7_
FN:591,_RNCNvNtNtCs86Lp2I5pN1o_13intent_engine15session_restore5testss_30test_restore_with_spec_preview0B7_
FN:460,_RNCNvNtNtCs86Lp2I5pN1o_13intent_engine15session_restore5testss_31test_restore_with_focus_minimal0B7_
FN:684,_RNCNvNtNtCs86Lp2I5pN1o_13intent_engine15session_restore5testss_32test_restore_custom_events_limit0B7_
FN:654,_RNCNvNtNtCs86Lp2I5pN1o_13intent_engine15session_restore5testss_32test_restore_recent_events_limit0B7_
FN:734,_RNCNvNtNtCs86Lp2I5pN1o_13intent_engine15session_restore5testss_35test_suggest_commands_with_children0B7_
FN:484,_RNCNvNtNtCs86Lp2I5pN1o_13intent_engine15session_restore5testss_36test_restore_with_focus_rich_context0B7_
FN:756,_RNCNvNtNtCs86Lp2I5pN1o_13intent_engine15session_restore5testss_37test_error_result_workspace_not_found0B7_
FN:265,_RNCNCNvMNtCs86Lp2I5pN1o_13intent_engine15session_restoreNtB6_21SessionRestoreManager16restore_no_focus00B8_
FN:284,_RNCNCNvMNtCs86Lp2I5pN1o_13intent_engine15session_restoreNtB6_21SessionRestoreManager16restore_no_focus0s_0B8_
FN:137,_RNCNCNvMNtCs86Lp2I5pN1o_13intent_engine15session_restoreNtB6_21SessionRestoreManager7restore00B8_
FN:181,_RNCNCNvMNtCs86Lp2I5pN1o_13intent_engine15session_restoreNtB6_21SessionRestoreManager7restore0s0_0B8_
FN:182,_RNCNCNvMNtCs86Lp2I5pN1o_13intent_engine15session_restoreNtB6_21SessionRestoreManager7restore0s1_0B8_
FN:188,_RNCNCNvMNtCs86Lp2I5pN1o_13intent_engine15session_restoreNtB6_21SessionRestoreManager7restore0s2_0B8_
FN:222,_RNCNCNvMNtCs86Lp2I5pN1o_13intent_engine15session_restoreNtB6_21SessionRestoreManager7restore0s3_0B8_
FN:173,_RNCNCNvMNtCs86Lp2I5pN1o_13intent_engine15session_restoreNtB6_21SessionRestoreManager7restore0s_0B8_
FN:256,_RNCNvMNtCs86Lp2I5pN1o_13intent_engine15session_restoreNtB4_21SessionRestoreManager16restore_no_focus0B6_
FN:351,_RNCNvMNtCs86Lp2I5pN1o_13intent_engine15session_restoreNtB4_21SessionRestoreManager19build_children_info0B6_
FN:359,_RNCNvMNtCs86Lp2I5pN1o_13intent_engine15session_restoreNtB4_21SessionRestoreManager19build_children_infos_0B6_
FN:325,_RNCNvMNtCs86Lp2I5pN1o_13intent_engine15session_restoreNtB4_21SessionRestoreManager19build_siblings_info0B6_
FN:335,_RNCNvMNtCs86Lp2I5pN1o_13intent_engine15session_restoreNtB4_21SessionRestoreManager19build_siblings_infos0_0B6_
FN:336,_RNCNvMNtCs86Lp2I5pN1o_13intent_engine15session_restoreNtB4_21SessionRestoreManager19build_siblings_infos1_0B6_
FN:337,_RNCNvMNtCs86Lp2I5pN1o_13intent_engine15session_restoreNtB4_21SessionRestoreManager19build_siblings_infos2_0B6_
FN:327,_RNCNvMNtCs86Lp2I5pN1o_13intent_engine15session_restoreNtB4_21SessionRestoreManager19build_siblings_infos_0B6_
FN:129,_RNCNvMNtCs86Lp2I5pN1o_13intent_engine15session_restoreNtB4_21SessionRestoreManager7restore0B6_
FNDA:0,_RNCNCNvMNtCsjp9E11WtBq9_13intent_engine15session_restoreNtB6_21SessionRestoreManager16restore_no_focus00B8_
FNDA:0,_RNCNCNvMNtCsjp9E11WtBq9_13intent_engine15session_restoreNtB6_21SessionRestoreManager16restore_no_focus0s_0B8_
FNDA:0,_RNCNCNvMNtCsjp9E11WtBq9_13intent_engine15session_restoreNtB6_21SessionRestoreManager7restore00B8_
FNDA:0,_RNCNCNvMNtCsjp9E11WtBq9_13intent_engine15session_restoreNtB6_21SessionRestoreManager7restore0s0_0B8_
FNDA:0,_RNCNCNvMNtCsjp9E11WtBq9_13intent_engine15session_restoreNtB6_21SessionRestoreManager7restore0s1_0B8_
FNDA:0,_RNCNCNvMNtCsjp9E11WtBq9_13intent_engine15session_restoreNtB6_21SessionRestoreManager7restore0s2_0B8_
FNDA:0,_RNCNCNvMNtCsjp9E11WtBq9_13intent_engine15session_restoreNtB6_21SessionRestoreManager7restore0s3_0B8_
FNDA:0,_RNCNCNvMNtCsjp9E11WtBq9_13intent_engine15session_restoreNtB6_21SessionRestoreManager7restore0s_0B8_
FNDA:0,_RNCNvMNtCsjp9E11WtBq9_13intent_engine15session_restoreNtB4_21SessionRestoreManager16restore_no_focus0B6_
FNDA:0,_RNCNvMNtCsjp9E11WtBq9_13intent_engine15session_restoreNtB4_21SessionRestoreManager19build_children_info0B6_
FNDA:0,_RNCNvMNtCsjp9E11WtBq9_13intent_engine15session_restoreNtB4_21SessionRestoreManager19build_children_infos_0B6_
FNDA:0,_RNCNvMNtCsjp9E11WtBq9_13intent_engine15session_restoreNtB4_21SessionRestoreManager19build_siblings_info0B6_
FNDA:0,_RNCNvMNtCsjp9E11WtBq9_13intent_engine15session_restoreNtB4_21SessionRestoreManager19build_siblings_infos0_0B6_
FNDA:0,_RNCNvMNtCsjp9E11WtBq9_13intent_engine15session_restoreNtB4_21SessionRestoreManager19build_siblings_infos1_0B6_
FNDA:0,_RNCNvMNtCsjp9E11WtBq9_13intent_engine15session_restoreNtB4_21SessionRestoreManager19build_siblings_infos2_0B6_
FNDA:0,_RNCNvMNtCsjp9E11WtBq9_13intent_engine15session_restoreNtB4_21SessionRestoreManager19build_siblings_infos_0B6_
FNDA:0,_RNCNvMNtCsjp9E11WtBq9_13intent_engine15session_restoreNtB4_21SessionRestoreManager7restore0B6_
FNDA:0,_RNvMNtCsjp9E11WtBq9_13intent_engine15session_restoreNtB2_21SessionRestoreManager12error_result
FNDA:0,_RNvMNtCsjp9E11WtBq9_13intent_engine15session_restoreNtB2_21SessionRestoreManager13truncate_spec
FNDA:0,_RNvMNtCsjp9E11WtBq9_13intent_engine15session_restoreNtB2_21SessionRestoreManager16restore_no_focus
FNDA:0,_RNvMNtCsjp9E11WtBq9_13intent_engine15session_restoreNtB2_21SessionRestoreManager16suggest_commands
FNDA:0,_RNvMNtCsjp9E11WtBq9_13intent_engine15session_restoreNtB2_21SessionRestoreManager19build_children_info
FNDA:0,_RNvMNtCsjp9E11WtBq9_13intent_engine15session_restoreNtB2_21SessionRestoreManager19build_siblings_info
FNDA:0,_RNvMNtCsjp9E11WtBq9_13intent_engine15session_restoreNtB2_21SessionRestoreManager3new
FNDA:0,_RNvMNtCsjp9E11WtBq9_13intent_engine15session_restoreNtB2_21SessionRestoreManager7restore
FNDA:1,_RNvMNtCs86Lp2I5pN1o_13intent_engine15session_restoreNtB2_21SessionRestoreManager12error_result
FNDA:4,_RNvMNtCs86Lp2I5pN1o_13intent_engine15session_restoreNtB2_21SessionRestoreManager13truncate_spec
FNDA:1,_RNvMNtCs86Lp2I5pN1o_13intent_engine15session_restoreNtB2_21SessionRestoreManager16restore_no_focus
FNDA:6,_RNvMNtCs86Lp2I5pN1o_13intent_engine15session_restoreNtB2_21SessionRestoreManager16suggest_commands
FNDA:6,_RNvMNtCs86Lp2I5pN1o_13intent_engine15session_restoreNtB2_21SessionRestoreManager19build_children_info
FNDA:2,_RNvMNtCs86Lp2I5pN1o_13intent_engine15session_restoreNtB2_21SessionRestoreManager19build_siblings_info
FNDA:6,_RNvMNtCs86Lp2I5pN1o_13intent_engine15session_restoreNtB2_21SessionRestoreManager3new
FNDA:6,_RNvMNtCs86Lp2I5pN1o_13intent_engine15session_restoreNtB2_21SessionRestoreManager7restore
FNDA:1,_RNvNtNtCs86Lp2I5pN1o_13intent_engine15session_restore5testss_18test_truncate_spec
FNDA:1,_RNvNtNtCs86Lp2I5pN1o_13intent_engine15session_restore5testss_21test_restore_no_focus
FNDA:1,_RNvNtNtCs86Lp2I5pN1o_13intent_engine15session_restore5testss_24test_truncate_spec_short
FNDA:1,_RNvNtNtCs86Lp2I5pN1o_13intent_engine15session_restore5testss_30test_build_children_info_empty
FNDA:1,_RNvNtNtCs86Lp2I5pN1o_13intent_engine15session_restore5testss_30test_build_siblings_info_empty
FNDA:1,_RNvNtNtCs86Lp2I5pN1o_13intent_engine15session_restore5testss_30test_restore_with_spec_preview
FNDA:1,_RNvNtNtCs86Lp2I5pN1o_13intent_engine15session_restore5testss_31test_restore_with_focus_minimal
FNDA:1,_RNvNtNtCs86Lp2I5pN1o_13intent_engine15session_restore5testss_32test_restore_custom_events_limit
FNDA:1,_RNvNtNtCs86Lp2I5pN1o_13intent_engine15session_restore5testss_32test_restore_recent_events_limit
FNDA:1,_RNvNtNtCs86Lp2I5pN1o_13intent_engine15session_restore5testss_35test_suggest_commands_with_children
FNDA:1,_RNvNtNtCs86Lp2I5pN1o_13intent_engine15session_restore5testss_36test_restore_with_focus_rich_context
FNDA:1,_RNvNtNtCs86Lp2I5pN1o_13intent_engine15session_restore5testss_37test_error_result_workspace_not_found
FNDA:3,_RNCNCNvNtNtCs86Lp2I5pN1o_13intent_engine15session_restore5testss_36test_restore_with_focus_rich_context00B9_
FNDA:1,_RNCNvNtNtCs86Lp2I5pN1o_13intent_engine15session_restore5testss_21test_restore_no_focus0B7_
FNDA:1,_RNCNvNtNtCs86Lp2I5pN1o_13intent_engine15session_restore5testss_30test_restore_with_spec_preview0B7_
FNDA:1,_RNCNvNtNtCs86Lp2I5pN1o_13intent_engine15session_restore5testss_31test_restore_with_focus_minimal0B7_
FNDA:1,_RNCNvNtNtCs86Lp2I5pN1o_13intent_engine15session_restore5testss_32test_restore_custom_events_limit0B7_
FNDA:1,_RNCNvNtNtCs86Lp2I5pN1o_13intent_engine15session_restore5testss_32test_restore_recent_events_limit0B7_
FNDA:1,_RNCNvNtNtCs86Lp2I5pN1o_13intent_engine15session_restore5testss_35test_suggest_commands_with_children0B7_
FNDA:1,_RNCNvNtNtCs86Lp2I5pN1o_13intent_engine15session_restore5testss_36test_restore_with_focus_rich_context0B7_
FNDA:1,_RNCNvNtNtCs86Lp2I5pN1o_13intent_engine15session_restore5testss_37test_error_result_workspace_not_found0B7_
FNDA:1,_RNCNCNvMNtCs86Lp2I5pN1o_13intent_engine15session_restoreNtB6_21SessionRestoreManager16restore_no_focus00B8_
FNDA:2,_RNCNCNvMNtCs86Lp2I5pN1o_13intent_engine15session_restoreNtB6_21SessionRestoreManager16restore_no_focus0s_0B8_
FNDA:6,_RNCNCNvMNtCs86Lp2I5pN1o_13intent_engine15session_restoreNtB6_21SessionRestoreManager7restore00B8_
FNDA:5,_RNCNCNvMNtCs86Lp2I5pN1o_13intent_engine15session_restoreNtB6_21SessionRestoreManager7restore0s0_0B8_
FNDA:1,_RNCNCNvMNtCs86Lp2I5pN1o_13intent_engine15session_restoreNtB6_21SessionRestoreManager7restore0s1_0B8_
FNDA:1,_RNCNCNvMNtCs86Lp2I5pN1o_13intent_engine15session_restoreNtB6_21SessionRestoreManager7restore0s2_0B8_
FNDA:11,_RNCNCNvMNtCs86Lp2I5pN1o_13intent_engine15session_restoreNtB6_21SessionRestoreManager7restore0s3_0B8_
FNDA:2,_RNCNCNvMNtCs86Lp2I5pN1o_13intent_engine15session_restoreNtB6_21SessionRestoreManager7restore0s_0B8_
FNDA:1,_RNCNvMNtCs86Lp2I5pN1o_13intent_engine15session_restoreNtB4_21SessionRestoreManager16restore_no_focus0B6_
FNDA:2,_RNCNvMNtCs86Lp2I5pN1o_13intent_engine15session_restoreNtB4_21SessionRestoreManager19build_children_info0B6_
FNDA:2,_RNCNvMNtCs86Lp2I5pN1o_13intent_engine15session_restoreNtB4_21SessionRestoreManager19build_children_infos_0B6_
FNDA:3,_RNCNvMNtCs86Lp2I5pN1o_13intent_engine15session_restoreNtB4_21SessionRestoreManager19build_siblings_info0B6_
FNDA:3,_RNCNvMNtCs86Lp2I5pN1o_13intent_engine15session_restoreNtB4_21SessionRestoreManager19build_siblings_infos0_0B6_
FNDA:3,_RNCNvMNtCs86Lp2I5pN1o_13intent_engine15session_restoreNtB4_21SessionRestoreManager19build_siblings_infos1_0B6_
FNDA:3,_RNCNvMNtCs86Lp2I5pN1o_13intent_engine15session_restoreNtB4_21SessionRestoreManager19build_siblings_infos2_0B6_
FNDA:1,_RNCNvMNtCs86Lp2I5pN1o_13intent_engine15session_restoreNtB4_21SessionRestoreManager19build_siblings_infos_0B6_
FNDA:6,_RNCNvMNtCs86Lp2I5pN1o_13intent_engine15session_restoreNtB4_21SessionRestoreManager7restore0B6_
FNF:46
FNH:46
DA:124,6
DA:125,6
DA:126,6
DA:129,6
DA:130,6
DA:131,6
DA:132,6
DA:135,6
DA:136,6
DA:137,6
DA:140,6
DA:141,6
DA:142,6
DA:143,5
DA:146,1
DA:151,0
DA:152,0
DA:153,0
DA:154,0
DA:155,0
DA:156,0
DA:161,5
DA:162,5
DA:164,0
DA:165,0
DA:166,0
DA:167,0
DA:168,0
DA:169,0
DA:173,5
DA:175,5
DA:176,5
DA:177,5
DA:178,5
DA:179,5
DA:180,5
DA:181,5
DA:182,5
DA:186,5
DA:187,1
DA:188,1
DA:189,1
DA:190,1
DA:191,1
DA:193,4
DA:197,5
DA:198,1
DA:199,1
DA:200,1
DA:201,1
DA:203,4
DA:207,5
DA:208,5
DA:209,5
DA:210,5
DA:211,5
DA:215,5
DA:216,5
DA:217,5
DA:218,5
DA:219,5
DA:220,5
DA:221,5
DA:222,11
DA:223,11
DA:224,11
DA:225,11
DA:226,5
DA:229,5
DA:231,5
DA:232,5
DA:233,5
DA:234,5
DA:235,5
DA:236,5
DA:237,5
DA:238,5
DA:239,5
DA:240,5
DA:241,5
DA:242,5
DA:243,5
DA:244,5
DA:245,5
DA:246,5
DA:247,6
DA:253,1
DA:254,1
DA:255,1
DA:256,1
DA:257,1
DA:260,1
DA:263,1
DA:264,1
DA:265,1
DA:266,1
DA:267,1
DA:268,1
DA:271,1
DA:272,1
DA:273,1
DA:274,1
DA:275,1
DA:276,1
DA:277,1
DA:278,1
DA:279,1
DA:280,1
DA:281,1
DA:282,1
DA:283,1
DA:284,2
DA:285,2
DA:286,2
DA:287,2
DA:288,1
DA:290,1
DA:291,1
DA:292,1
DA:296,1
DA:297,1
DA:298,1
DA:299,1
DA:300,1
DA:301,1
DA:302,1
DA:303,1
DA:304,1
DA:305,1
DA:306,1
DA:307,0
DA:309,1
DA:311,1
DA:312,1
DA:313,1
DA:315,1
DA:318,2
DA:319,2
DA:320,1
DA:321,1
DA:323,1
DA:324,1
DA:325,3
DA:326,1
DA:327,1
DA:328,1
DA:329,1
DA:330,1
DA:331,1
DA:334,1
DA:335,3
DA:336,3
DA:337,3
DA:338,1
DA:340,2
DA:343,6
DA:344,6
DA:345,5
DA:346,1
DA:348,1
DA:349,1
DA:350,1
DA:351,2
DA:352,2
DA:353,2
DA:354,2
DA:355,1
DA:358,1
DA:359,2
DA:360,1
DA:362,6
DA:365,6
DA:366,6
DA:367,6
DA:368,6
DA:369,6
DA:372,6
DA:375,6
DA:376,2
DA:377,2
DA:378,2
DA:379,4
DA:380,4
DA:381,4
DA:383,6
DA:385,6
DA:386,6
DA:389,4
DA:390,4
DA:391,2
DA:393,2
DA:395,4
DA:398,1
DA:399,1
DA:400,1
DA:401,1
DA:402,1
DA:403,1
DA:404,1
DA:406,1
DA:409,0
DA:412,0
DA:416,1
DA:417,1
DA:418,1
DA:419,1
DA:420,1
DA:421,1
DA:422,1
DA:423,1
DA:424,1
DA:425,1
DA:426,1
DA:427,1
DA:428,1
DA:429,1
DA:430,1
DA:431,1
DA:432,1
DA:444,1
DA:445,1
DA:446,1
DA:447,1
DA:448,1
DA:449,1
DA:452,1
DA:453,1
DA:454,1
DA:455,1
DA:456,1
DA:457,1
DA:460,1
DA:461,1
DA:462,1
DA:465,1
DA:466,1
DA:468,1
DA:469,1
DA:472,1
DA:473,1
DA:476,1
DA:477,1
DA:478,1
DA:479,1
DA:480,1
DA:481,1
DA:484,1
DA:485,1
DA:486,1
DA:488,1
DA:489,1
DA:490,1
DA:493,1
DA:494,1
DA:495,1
DA:496,1
DA:499,1
DA:500,1
DA:501,1
DA:502,1
DA:503,1
DA:504,1
DA:505,1
DA:506,1
DA:508,1
DA:509,1
DA:510,1
DA:511,1
DA:512,1
DA:513,1
DA:514,1
DA:515,1
DA:516,1
DA:518,1
DA:519,1
DA:520,1
DA:521,1
DA:524,1
DA:525,1
DA:526,1
DA:527,1
DA:528,1
DA:529,1
DA:530,1
DA:531,1
DA:534,1
DA:535,1
DA:536,1
DA:537,1
DA:538,1
DA:539,1
DA:540,1
DA:541,1
DA:542,1
DA:543,1
DA:544,1
DA:545,1
DA:548,1
DA:549,1
DA:552,1
DA:554,1
DA:555,1
DA:556,1
DA:559,1
DA:560,1
DA:561,1
DA:564,1
DA:565,1
DA:566,1
DA:567,1
DA:568,1
DA:569,1
DA:570,1
DA:573,1
DA:574,1
DA:575,1
DA:576,1
DA:579,1
DA:580,1
DA:581,1
DA:584,3
DA:585,1
DA:586,1
DA:587,1
DA:588,1
DA:591,1
DA:592,1
DA:593,1
DA:595,1
DA:596,1
DA:599,1
DA:600,1
DA:601,1
DA:602,1
DA:603,1
DA:604,1
DA:607,1
DA:608,1
DA:611,1
DA:612,1
DA:613,1
DA:614,1
DA:615,1
DA:616,1
DA:617,1
DA:620,1
DA:621,1
DA:622,1
DA:624,1
DA:627,1
DA:628,1
DA:631,1
DA:632,1
DA:635,1
DA:636,1
DA:637,1
DA:639,1
DA:640,1
DA:641,1
DA:645,1
DA:648,1
DA:649,1
DA:650,1
DA:651,1
DA:654,1
DA:655,1
DA:656,1
DA:658,1
DA:659,1
DA:660,1
DA:663,1
DA:664,1
DA:667,11
DA:668,10
DA:669,10
DA:670,10
DA:671,10
DA:675,1
DA:676,1
DA:679,1
DA:680,1
DA:681,1
DA:684,1
DA:685,1
DA:686,1
DA:688,1
DA:689,1
DA:690,1
DA:693,1
DA:694,1
DA:697,11
DA:698,10
DA:699,10
DA:700,10
DA:701,10
DA:705,1
DA:706,1
DA:709,1
DA:710,1
DA:711,1
DA:714,1
DA:715,1
DA:716,1
DA:717,1
DA:718,1
DA:719,1
DA:720,1
DA:721,1
DA:722,1
DA:723,1
DA:725,1
DA:726,1
DA:727,1
DA:728,1
DA:729,1
DA:731,1
DA:733,1
DA:734,1
DA:735,1
DA:738,1
DA:739,1
DA:740,1
DA:741,1
DA:742,1
DA:743,1
DA:746,1
DA:747,1
DA:748,1
DA:749,1
DA:751,1
DA:753,1
DA:755,1
DA:756,1
DA:757,1
DA:760,1
DA:761,1
DA:762,1
DA:763,1
DA:764,1
DA:767,1
DA:768,1
DA:769,1
DA:770,1
DA:771,1
BRF:0
BRH:0
LF:470
LH:455
end_of_record
SF:/mnt/d/prj/intent-engine/src/setup/claude_code.rs
FN:125,_RNvMNtNtCsjp9E11WtBq9_13intent_engine5setup11claude_codeNtB2_15ClaudeCodeSetup16setup_mcp_config
FN:104,_RNvMNtNtCsjp9E11WtBq9_13intent_engine5setup11claude_codeNtB2_15ClaudeCodeSetup16setup_user_level
FN:15,_RNvMNtNtCsjp9E11WtBq9_13intent_engine5setup11claude_codeNtB2_15ClaudeCodeSetup19get_user_claude_dir
FN:176,_RNvMNtNtCsjp9E11WtBq9_13intent_engine5setup11claude_codeNtB2_15ClaudeCodeSetup19setup_project_level
FN:33,_RNvMNtNtCsjp9E11WtBq9_13intent_engine5setup11claude_codeNtB2_15ClaudeCodeSetup22create_claude_settings
FN:21,_RNvMNtNtCsjp9E11WtBq9_13intent_engine5setup11claude_codeNtB2_15ClaudeCodeSetup22get_project_claude_dir
FN:55,_RNvMNtNtCsjp9E11WtBq9_13intent_engine5setup11claude_codeNtB2_15ClaudeCodeSetup24setup_hooks_and_settings
FN:227,_RNvXs_NtNtCsjp9E11WtBq9_13intent_engine5setup11claude_codeNtB4_15ClaudeCodeSetupNtB6_11SetupModule17test_connectivity
FN:200,_RNvXs_NtNtCsjp9E11WtBq9_13intent_engine5setup11claude_codeNtB4_15ClaudeCodeSetupNtB6_11SetupModule4name
FN:204,_RNvXs_NtNtCsjp9E11WtBq9_13intent_engine5setup11claude_codeNtB4_15ClaudeCodeSetupNtB6_11SetupModule5setup
FN:227,_RNvXs_NtNtCs86Lp2I5pN1o_13intent_engine5setup11claude_codeNtB4_15ClaudeCodeSetupNtB6_11SetupModule17test_connectivity
FN:302,_RNvNtNtNtCs86Lp2I5pN1o_13intent_engine5setup11claude_code5testss_24test_get_user_claude_dir
FN:321,_RNvNtNtNtCs86Lp2I5pN1o_13intent_engine5setup11claude_code5testss_27test_claude_code_setup_name
FN:312,_RNvNtNtNtCs86Lp2I5pN1o_13intent_engine5setup11claude_code5testss_27test_get_project_claude_dir
FN:266,_RNvNtNtNtCs86Lp2I5pN1o_13intent_engine5setup11claude_code5testss_37test_create_claude_settings_structure
FN:455,_RNvNtNtNtCs86Lp2I5pN1o_13intent_engine5setup11claude_code5testss_38test_setup_mcp_config_creates_new_file
FN:431,_RNvNtNtNtCs86Lp2I5pN1o_13intent_engine5setup11claude_code5testss_40test_setup_hooks_and_settings_json_valid
FN:479,_RNvNtNtNtCs86Lp2I5pN1o_13intent_engine5setup11claude_code5testss_40test_setup_mcp_config_preserves_existing
FN:408,_RNvNtNtNtCs86Lp2I5pN1o_13intent_engine5setup11claude_code5testss_42test_setup_hooks_and_settings_hook_content
FN:329,_RNvNtNtNtCs86Lp2I5pN1o_13intent_engine5setup11claude_code5testss_43test_create_claude_settings_paths_preserved
FN:512,_RNvNtNtNtCs86Lp2I5pN1o_13intent_engine5setup11claude_code5testss_45test_setup_mcp_config_no_force_skips_existing
FN:283,_RNvNtNtNtCs86Lp2I5pN1o_13intent_engine5setup11claude_code5testss_46test_create_claude_settings_session_start_hook
FN:377,_RNvNtNtNtCs86Lp2I5pN1o_13intent_engine5setup11claude_code5testss_46test_setup_hooks_and_settings_force_overwrites
FN:345,_RNvNtNtNtCs86Lp2I5pN1o_13intent_engine5setup11claude_code5testss_49test_setup_hooks_and_settings_creates_directories
FN:125,_RNvMNtNtCs86Lp2I5pN1o_13intent_engine5setup11claude_codeNtB2_15ClaudeCodeSetup16setup_mcp_config
FN:104,_RNvMNtNtCs86Lp2I5pN1o_13intent_engine5setup11claude_codeNtB2_15ClaudeCodeSetup16setup_user_level
FN:15,_RNvMNtNtCs86Lp2I5pN1o_13intent_engine5setup11claude_codeNtB2_15ClaudeCodeSetup19get_user_claude_dir
FN:176,_RNvMNtNtCs86Lp2I5pN1o_13intent_engine5setup11claude_codeNtB2_15ClaudeCodeSetup19setup_project_level
FN:33,_RNvMNtNtCs86Lp2I5pN1o_13intent_engine5setup11claude_codeNtB2_15ClaudeCodeSetup22create_claude_settings
FN:21,_RNvMNtNtCs86Lp2I5pN1o_13intent_engine5setup11claude_codeNtB2_15ClaudeCodeSetup22get_project_claude_dir
FN:55,_RNvMNtNtCs86Lp2I5pN1o_13intent_engine5setup11claude_codeNtB2_15ClaudeCodeSetup24setup_hooks_and_settings
FN:200,_RNvXs_NtNtCs86Lp2I5pN1o_13intent_engine5setup11claude_codeNtB4_15ClaudeCodeSetupNtB6_11SetupModule4name
FN:204,_RNvXs_NtNtCs86Lp2I5pN1o_13intent_engine5setup11claude_codeNtB4_15ClaudeCodeSetupNtB6_11SetupModule5setup
FNDA:0,_RNvMNtNtCsjp9E11WtBq9_13intent_engine5setup11claude_codeNtB2_15ClaudeCodeSetup16setup_mcp_config
FNDA:0,_RNvMNtNtCsjp9E11WtBq9_13intent_engine5setup11claude_codeNtB2_15ClaudeCodeSetup16setup_user_level
FNDA:0,_RNvMNtNtCsjp9E11WtBq9_13intent_engine5setup11claude_codeNtB2_15ClaudeCodeSetup19get_user_claude_dir
FNDA:0,_RNvMNtNtCsjp9E11WtBq9_13intent_engine5setup11claude_codeNtB2_15ClaudeCodeSetup19setup_project_level
FNDA:0,_RNvMNtNtCsjp9E11WtBq9_13intent_engine5setup11claude_codeNtB2_15ClaudeCodeSetup22create_claude_settings
FNDA:0,_RNvMNtNtCsjp9E11WtBq9_13intent_engine5setup11claude_codeNtB2_15ClaudeCodeSetup22get_project_claude_dir
FNDA:0,_RNvMNtNtCsjp9E11WtBq9_13intent_engine5setup11claude_codeNtB2_15ClaudeCodeSetup24setup_hooks_and_settings
FNDA:0,_RNvXs_NtNtCsjp9E11WtBq9_13intent_engine5setup11claude_codeNtB4_15ClaudeCodeSetupNtB6_11SetupModule17test_connectivity
FNDA:0,_RNvXs_NtNtCsjp9E11WtBq9_13intent_engine5setup11claude_codeNtB4_15ClaudeCodeSetupNtB6_11SetupModule4name
FNDA:0,_RNvXs_NtNtCsjp9E11WtBq9_13intent_engine5setup11claude_codeNtB4_15ClaudeCodeSetupNtB6_11SetupModule5setup
FNDA:0,_RNvXs_NtNtCs86Lp2I5pN1o_13intent_engine5setup11claude_codeNtB4_15ClaudeCodeSetupNtB6_11SetupModule17test_connectivity
FNDA:1,_RNvNtNtNtCs86Lp2I5pN1o_13intent_engine5setup11claude_code5testss_24test_get_user_claude_dir
FNDA:1,_RNvNtNtNtCs86Lp2I5pN1o_13intent_engine5setup11claude_code5testss_27test_claude_code_setup_name
FNDA:1,_RNvNtNtNtCs86Lp2I5pN1o_13intent_engine5setup11claude_code5testss_27test_get_project_claude_dir
FNDA:1,_RNvNtNtNtCs86Lp2I5pN1o_13intent_engine5setup11claude_code5testss_37test_create_claude_settings_structure
FNDA:1,_RNvNtNtNtCs86Lp2I5pN1o_13intent_engine5setup11claude_code5testss_38test_setup_mcp_config_creates_new_file
FNDA:1,_RNvNtNtNtCs86Lp2I5pN1o_13intent_engine5setup11claude_code5testss_40test_setup_hooks_and_settings_json_valid
FNDA:1,_RNvNtNtNtCs86Lp2I5pN1o_13intent_engine5setup11claude_code5testss_40test_setup_mcp_config_preserves_existing
FNDA:1,_RNvNtNtNtCs86Lp2I5pN1o_13intent_engine5setup11claude_code5testss_42test_setup_hooks_and_settings_hook_content
FNDA:1,_RNvNtNtNtCs86Lp2I5pN1o_13intent_engine5setup11claude_code5testss_43test_create_claude_settings_paths_preserved
FNDA:1,_RNvNtNtNtCs86Lp2I5pN1o_13intent_engine5setup11claude_code5testss_45test_setup_mcp_config_no_force_skips_existing
FNDA:1,_RNvNtNtNtCs86Lp2I5pN1o_13intent_engine5setup11claude_code5testss_46test_create_claude_settings_session_start_hook
FNDA:1,_RNvNtNtNtCs86Lp2I5pN1o_13intent_engine5setup11claude_code5testss_46test_setup_hooks_and_settings_force_overwrites
FNDA:1,_RNvNtNtNtCs86Lp2I5pN1o_13intent_engine5setup11claude_code5testss_49test_setup_hooks_and_settings_creates_directories
FNDA:3,_RNvMNtNtCs86Lp2I5pN1o_13intent_engine5setup11claude_codeNtB2_15ClaudeCodeSetup16setup_mcp_config
FNDA:0,_RNvMNtNtCs86Lp2I5pN1o_13intent_engine5setup11claude_codeNtB2_15ClaudeCodeSetup16setup_user_level
FNDA:1,_RNvMNtNtCs86Lp2I5pN1o_13intent_engine5setup11claude_codeNtB2_15ClaudeCodeSetup19get_user_claude_dir
FNDA:0,_RNvMNtNtCs86Lp2I5pN1o_13intent_engine5setup11claude_codeNtB2_15ClaudeCodeSetup19setup_project_level
FNDA:8,_RNvMNtNtCs86Lp2I5pN1o_13intent_engine5setup11claude_codeNtB2_15ClaudeCodeSetup22create_claude_settings
FNDA:1,_RNvMNtNtCs86Lp2I5pN1o_13intent_engine5setup11claude_codeNtB2_15ClaudeCodeSetup22get_project_claude_dir
FNDA:6,_RNvMNtNtCs86Lp2I5pN1o_13intent_engine5setup11claude_codeNtB2_15ClaudeCodeSetup24setup_hooks_and_settings
FNDA:1,_RNvXs_NtNtCs86Lp2I5pN1o_13intent_engine5setup11claude_codeNtB4_15ClaudeCodeSetupNtB6_11SetupModule4name
FNDA:0,_RNvXs_NtNtCs86Lp2I5pN1o_13intent_engine5setup11claude_codeNtB4_15ClaudeCodeSetupNtB6_11SetupModule5setup
FNF:23
FNH:19
DA:15,1
DA:16,1
DA:17,1
DA:18,1
DA:21,1
DA:22,1
DA:23,1
DA:24,1
DA:33,8
DA:34,8
DA:35,8
DA:36,8
DA:37,8
DA:38,8
DA:39,8
DA:44,8
DA:55,6
DA:56,6
DA:57,6
DA:58,6
DA:59,6
DA:60,6
DA:61,6
DA:64,6
DA:65,6
DA:68,6
DA:69,1
DA:70,1
DA:71,1
DA:72,1
DA:73,5
DA:76,5
DA:77,5
DA:78,5
DA:79,5
DA:80,5
DA:83,5
DA:84,5
DA:87,5
DA:88,0
DA:89,0
DA:90,0
DA:91,0
DA:92,5
DA:94,5
DA:96,5
DA:97,5
DA:98,5
DA:100,5
DA:101,6
DA:104,0
DA:105,0
DA:107,0
DA:110,0
DA:111,0
DA:114,0
DA:116,0
DA:117,0
DA:118,0
DA:119,0
DA:120,0
DA:121,0
DA:122,0
DA:125,3
DA:126,3
DA:127,3
DA:128,3
DA:129,3
DA:130,3
DA:131,3
DA:133,0
DA:134,0
DA:138,3
DA:139,3
DA:142,3
DA:145,3
DA:146,2
DA:147,1
DA:148,1
DA:149,1
DA:150,1
DA:151,1
DA:152,1
DA:155,2
DA:156,1
DA:157,1
DA:159,2
DA:160,2
DA:161,2
DA:162,2
DA:165,2
DA:166,2
DA:167,2
DA:169,2
DA:170,2
DA:171,2
DA:172,2
DA:173,3
DA:176,0
DA:177,0
DA:178,0
DA:179,0
DA:181,0
DA:184,0
DA:185,0
DA:188,0
DA:190,0
DA:191,0
DA:192,0
DA:193,0
DA:194,0
DA:195,0
DA:196,0
DA:200,1
DA:201,1
DA:202,1
DA:204,0
DA:205,0
DA:206,0
DA:207,0
DA:210,0
DA:211,0
DA:214,0
DA:215,0
DA:217,0
DA:218,0
DA:219,0
DA:220,0
DA:221,0
DA:222,0
DA:225,0
DA:227,0
DA:229,0
DA:230,0
DA:231,0
DA:232,0
DA:234,0
DA:235,0
DA:236,0
DA:237,0
DA:238,0
DA:239,0
DA:240,0
DA:242,0
DA:243,0
DA:244,0
DA:245,0
DA:246,0
DA:249,0
DA:250,0
DA:251,0
DA:252,0
DA:254,0
DA:266,1
DA:267,1
DA:269,1
DA:272,1
DA:275,1
DA:276,1
DA:277,1
DA:278,1
DA:279,1
DA:280,1
DA:283,1
DA:284,1
DA:286,1
DA:288,1
DA:289,1
DA:291,1
DA:292,1
DA:294,1
DA:295,1
DA:296,1
DA:297,1
DA:302,1
DA:304,1
DA:305,1
DA:307,1
DA:308,1
DA:309,1
DA:312,1
DA:313,1
DA:314,1
DA:316,1
DA:317,1
DA:318,1
DA:321,1
DA:322,1
DA:323,1
DA:324,1
DA:329,1
DA:331,1
DA:333,1
DA:336,1
DA:337,1
DA:338,1
DA:339,1
DA:340,1
DA:345,1
DA:346,1
DA:347,1
DA:349,1
DA:350,1
DA:351,1
DA:352,1
DA:353,1
DA:354,1
DA:356,1
DA:357,1
DA:359,1
DA:362,1
DA:365,1
DA:366,1
DA:369,1
DA:370,1
DA:373,1
DA:374,1
DA:377,1
DA:378,1
DA:379,1
DA:382,1
DA:383,1
DA:384,1
DA:385,1
DA:386,1
DA:387,1
DA:388,1
DA:391,1
DA:392,1
DA:393,1
DA:396,1
DA:397,1
DA:398,1
DA:399,1
DA:400,1
DA:401,1
DA:402,1
DA:403,1
DA:404,1
DA:405,1
DA:408,1
DA:409,1
DA:410,1
DA:412,1
DA:413,1
DA:414,1
DA:415,1
DA:416,1
DA:417,1
DA:419,1
DA:422,1
DA:423,1
DA:426,1
DA:427,1
DA:428,1
DA:431,1
DA:432,1
DA:433,1
DA:435,1
DA:436,1
DA:437,1
DA:438,1
DA:439,1
DA:440,1
DA:442,1
DA:445,1
DA:446,1
DA:447,1
DA:450,1
DA:451,1
DA:452,1
DA:455,1
DA:456,1
DA:457,1
DA:459,1
DA:460,1
DA:461,1
DA:462,1
DA:463,1
DA:464,1
DA:466,1
DA:467,1
DA:469,1
DA:470,1
DA:473,1
DA:474,1
DA:475,1
DA:476,1
DA:479,1
DA:480,1
DA:481,1
DA:484,1
DA:485,1
DA:486,1
DA:487,1
DA:491,1
DA:492,1
DA:494,1
DA:495,1
DA:496,1
DA:497,1
DA:498,1
DA:499,1
DA:501,1
DA:502,1
DA:505,1
DA:506,1
DA:507,1
DA:508,1
DA:509,1
DA:512,1
DA:513,1
DA:514,1
DA:517,1
DA:518,1
DA:519,1
DA:520,1
DA:524,1
DA:525,1
DA:527,1
DA:528,1
DA:529,1
DA:530,1
DA:531,1
DA:532,1
DA:534,1
DA:535,1
DA:538,1
DA:539,1
DA:540,1
BRF:0
BRH:0
LF:330
LH:259
end_of_record
SF:/mnt/d/prj/intent-engine/src/setup/common.rs
FN:132,_RNCNCNvNtNtCsjp9E11WtBq9_13intent_engine5setup6common14find_ie_binarys0_00B9_
FN:26,_RNCNvNtNtCsjp9E11WtBq9_13intent_engine5setup6common12get_home_dir0B7_
FN:28,_RNCNvNtNtCsjp9E11WtBq9_13intent_engine5setup6common12get_home_dirs_0B7_
FN:40,_RNCNvNtNtCsjp9E11WtBq9_13intent_engine5setup6common13create_backup0B7_
FN:99,_RNCNvNtNtCsjp9E11WtBq9_13intent_engine5setup6common14find_ie_binary0B7_
FN:130,_RNCNvNtNtCsjp9E11WtBq9_13intent_engine5setup6common14find_ie_binarys0_0B7_
FN:111,_RNCNvNtNtCsjp9E11WtBq9_13intent_engine5setup6common14find_ie_binarys_0B7_
FN:53,_RNCNvNtNtCsjp9E11WtBq9_13intent_engine5setup6common16read_json_config0B7_
FN:11,_RNCNvNtNtCsjp9E11WtBq9_13intent_engine5setup6common21resolve_absolute_path0B7_
FN:24,_RNvNtNtCsjp9E11WtBq9_13intent_engine5setup6common12get_home_dir
FN:32,_RNvNtNtCsjp9E11WtBq9_13intent_engine5setup6common13create_backup
FN:72,_RNvNtNtCsjp9E11WtBq9_13intent_engine5setup6common14find_ie_binary
FN:142,_RNvNtNtCsjp9E11WtBq9_13intent_engine5setup6common14set_executable
FN:49,_RNvNtNtCsjp9E11WtBq9_13intent_engine5setup6common16read_json_config
FN:60,_RNvNtNtCsjp9E11WtBq9_13intent_engine5setup6common17write_json_config
FN:10,_RNvNtNtCsjp9E11WtBq9_13intent_engine5setup6common21resolve_absolute_path
FN:191,_RNvNtNtNtCs86Lp2I5pN1o_13intent_engine5setup6common5testss_17test_get_home_dir
FN:340,_RNvNtNtNtCs86Lp2I5pN1o_13intent_engine5setup6common5testss_19test_find_ie_binary
FN:247,_RNvNtNtNtCs86Lp2I5pN1o_13intent_engine5setup6common5testss_20test_json_config_ops
FN:365,_RNvNtNtNtCs86Lp2I5pN1o_13intent_engine5setup6common5testss_24test_set_executable_unix
FN:167,_RNvNtNtNtCs86Lp2I5pN1o_13intent_engine5setup6common5testss_26test_resolve_absolute_path
FN:316,_RNvNtNtNtCs86Lp2I5pN1o_13intent_engine5setup6common5testss_30test_json_config_complex_types
FN:202,_RNvNtNtNtCs86Lp2I5pN1o_13intent_engine5setup6common5testss_31test_create_backup_creates_file
FN:229,_RNvNtNtNtCs86Lp2I5pN1o_13intent_engine5setup6common5testss_34test_create_backup_filename_format
FN:269,_RNvNtNtNtCs86Lp2I5pN1o_13intent_engine5setup6common5testss_34test_read_json_config_invalid_json
FN:219,_RNvNtNtNtCs86Lp2I5pN1o_13intent_engine5setup6common5testss_35test_create_backup_nonexistent_file
FN:182,_RNvNtNtNtCs86Lp2I5pN1o_13intent_engine5setup6common5testss_35test_resolve_absolute_path_relative
FN:295,_RNvNtNtNtCs86Lp2I5pN1o_13intent_engine5setup6common5testss_36test_write_json_config_pretty_format
FN:282,_RNvNtNtNtCs86Lp2I5pN1o_13intent_engine5setup6common5testss_41test_write_json_config_creates_parent_dir
FN:175,_RNvNtNtNtCs86Lp2I5pN1o_13intent_engine5setup6common5testss_43test_resolve_absolute_path_already_absolute
FN:24,_RNvNtNtCs86Lp2I5pN1o_13intent_engine5setup6common12get_home_dir
FN:32,_RNvNtNtCs86Lp2I5pN1o_13intent_engine5setup6common13create_backup
FN:72,_RNvNtNtCs86Lp2I5pN1o_13intent_engine5setup6common14find_ie_binary
FN:142,_RNvNtNtCs86Lp2I5pN1o_13intent_engine5setup6common14set_executable
FN:49,_RNvNtNtCs86Lp2I5pN1o_13intent_engine5setup6common16read_json_config
FN:60,_RNvNtNtCs86Lp2I5pN1o_13intent_engine5setup6common17write_json_config
FN:10,_RNvNtNtCs86Lp2I5pN1o_13intent_engine5setup6common21resolve_absolute_path
FN:132,_RNCNCNvNtNtCs86Lp2I5pN1o_13intent_engine5setup6common14find_ie_binarys0_00B9_
FN:26,_RNCNvNtNtCs86Lp2I5pN1o_13intent_engine5setup6common12get_home_dir0B7_
FN:28,_RNCNvNtNtCs86Lp2I5pN1o_13intent_engine5setup6common12get_home_dirs_0B7_
FN:40,_RNCNvNtNtCs86Lp2I5pN1o_13intent_engine5setup6common13create_backup0B7_
FN:99,_RNCNvNtNtCs86Lp2I5pN1o_13intent_engine5setup6common14find_ie_binary0B7_
FN:130,_RNCNvNtNtCs86Lp2I5pN1o_13intent_engine5setup6common14find_ie_binarys0_0B7_
FN:111,_RNCNvNtNtCs86Lp2I5pN1o_13intent_engine5setup6common14find_ie_binarys_0B7_
FN:53,_RNCNvNtNtCs86Lp2I5pN1o_13intent_engine5setup6common16read_json_config0B7_
FN:11,_RNCNvNtNtCs86Lp2I5pN1o_13intent_engine5setup6common21resolve_absolute_path0B7_
FNDA:0,_RNCNCNvNtNtCsjp9E11WtBq9_13intent_engine5setup6common14find_ie_binarys0_00B9_
FNDA:0,_RNCNvNtNtCsjp9E11WtBq9_13intent_engine5setup6common12get_home_dir0B7_
FNDA:0,_RNCNvNtNtCsjp9E11WtBq9_13intent_engine5setup6common12get_home_dirs_0B7_
FNDA:0,_RNCNvNtNtCsjp9E11WtBq9_13intent_engine5setup6common13create_backup0B7_
FNDA:0,_RNCNvNtNtCsjp9E11WtBq9_13intent_engine5setup6common14find_ie_binary0B7_
FNDA:0,_RNCNvNtNtCsjp9E11WtBq9_13intent_engine5setup6common14find_ie_binarys0_0B7_
FNDA:0,_RNCNvNtNtCsjp9E11WtBq9_13intent_engine5setup6common14find_ie_binarys_0B7_
FNDA:0,_RNCNvNtNtCsjp9E11WtBq9_13intent_engine5setup6common16read_json_config0B7_
FNDA:0,_RNCNvNtNtCsjp9E11WtBq9_13intent_engine5setup6common21resolve_absolute_path0B7_
FNDA:0,_RNvNtNtCsjp9E11WtBq9_13intent_engine5setup6common12get_home_dir
FNDA:0,_RNvNtNtCsjp9E11WtBq9_13intent_engine5setup6common13create_backup
FNDA:0,_RNvNtNtCsjp9E11WtBq9_13intent_engine5setup6common14find_ie_binary
FNDA:0,_RNvNtNtCsjp9E11WtBq9_13intent_engine5setup6common14set_executable
FNDA:0,_RNvNtNtCsjp9E11WtBq9_13intent_engine5setup6common16read_json_config
FNDA:0,_RNvNtNtCsjp9E11WtBq9_13intent_engine5setup6common17write_json_config
FNDA:0,_RNvNtNtCsjp9E11WtBq9_13intent_engine5setup6common21resolve_absolute_path
FNDA:1,_RNvNtNtNtCs86Lp2I5pN1o_13intent_engine5setup6common5testss_17test_get_home_dir
FNDA:1,_RNvNtNtNtCs86Lp2I5pN1o_13intent_engine5setup6common5testss_19test_find_ie_binary
FNDA:1,_RNvNtNtNtCs86Lp2I5pN1o_13intent_engine5setup6common5testss_20test_json_config_ops
FNDA:1,_RNvNtNtNtCs86Lp2I5pN1o_13intent_engine5setup6common5testss_24test_set_executable_unix
FNDA:1,_RNvNtNtNtCs86Lp2I5pN1o_13intent_engine5setup6common5testss_26test_resolve_absolute_path
FNDA:1,_RNvNtNtNtCs86Lp2I5pN1o_13intent_engine5setup6common5testss_30test_json_config_complex_types
FNDA:1,_RNvNtNtNtCs86Lp2I5pN1o_13intent_engine5setup6common5testss_31test_create_backup_creates_file
FNDA:1,_RNvNtNtNtCs86Lp2I5pN1o_13intent_engine5setup6common5testss_34test_create_backup_filename_format
FNDA:1,_RNvNtNtNtCs86Lp2I5pN1o_13intent_engine5setup6common5testss_34test_read_json_config_invalid_json
FNDA:1,_RNvNtNtNtCs86Lp2I5pN1o_13intent_engine5setup6common5testss_35test_create_backup_nonexistent_file
FNDA:1,_RNvNtNtNtCs86Lp2I5pN1o_13intent_engine5setup6common5testss_35test_resolve_absolute_path_relative
FNDA:1,_RNvNtNtNtCs86Lp2I5pN1o_13intent_engine5setup6common5testss_36test_write_json_config_pretty_format
FNDA:1,_RNvNtNtNtCs86Lp2I5pN1o_13intent_engine5setup6common5testss_41test_write_json_config_creates_parent_dir
FNDA:1,_RNvNtNtNtCs86Lp2I5pN1o_13intent_engine5setup6common5testss_43test_resolve_absolute_path_already_absolute
FNDA:2,_RNvNtNtCs86Lp2I5pN1o_13intent_engine5setup6common12get_home_dir
FNDA:3,_RNvNtNtCs86Lp2I5pN1o_13intent_engine5setup6common13create_backup
FNDA:4,_RNvNtNtCs86Lp2I5pN1o_13intent_engine5setup6common14find_ie_binary
FNDA:6,_RNvNtNtCs86Lp2I5pN1o_13intent_engine5setup6common14set_executable
FNDA:7,_RNvNtNtCs86Lp2I5pN1o_13intent_engine5setup6common16read_json_config
FNDA:11,_RNvNtNtCs86Lp2I5pN1o_13intent_engine5setup6common17write_json_config
FNDA:8,_RNvNtNtCs86Lp2I5pN1o_13intent_engine5setup6common21resolve_absolute_path
FNDA:0,_RNCNCNvNtNtCs86Lp2I5pN1o_13intent_engine5setup6common14find_ie_binarys0_00B9_
FNDA:0,_RNCNvNtNtCs86Lp2I5pN1o_13intent_engine5setup6common12get_home_dir0B7_
FNDA:0,_RNCNvNtNtCs86Lp2I5pN1o_13intent_engine5setup6common12get_home_dirs_0B7_
FNDA:2,_RNCNvNtNtCs86Lp2I5pN1o_13intent_engine5setup6common13create_backup0B7_
FNDA:0,_RNCNvNtNtCs86Lp2I5pN1o_13intent_engine5setup6common14find_ie_binary0B7_
FNDA:0,_RNCNvNtNtCs86Lp2I5pN1o_13intent_engine5setup6common14find_ie_binarys0_0B7_
FNDA:0,_RNCNvNtNtCs86Lp2I5pN1o_13intent_engine5setup6common14find_ie_binarys_0B7_
FNDA:1,_RNCNvNtNtCs86Lp2I5pN1o_13intent_engine5setup6common16read_json_config0B7_
FNDA:3,_RNCNvNtNtCs86Lp2I5pN1o_13intent_engine5setup6common21resolve_absolute_path0B7_
FNF:30
FNH:24
DA:10,8
DA:11,8
DA:14,3
DA:15,1
DA:17,2
DA:18,2
DA:20,3
DA:21,8
DA:24,2
DA:25,2
DA:26,2
DA:27,2
DA:28,2
DA:29,2
DA:32,3
DA:33,3
DA:34,1
DA:35,2
DA:37,2
DA:38,2
DA:39,2
DA:40,2
DA:44,2
DA:45,2
DA:46,3
DA:49,7
DA:50,7
DA:51,5
DA:52,5
DA:53,5
DA:55,2
DA:57,7
DA:60,11
DA:62,11
DA:63,11
DA:64,0
DA:66,11
DA:67,11
DA:68,11
DA:69,11
DA:72,4
DA:75,4
DA:77,4
DA:78,4
DA:79,4
DA:80,4
DA:81,4
DA:82,4
DA:84,0
DA:85,4
DA:86,0
DA:87,0
DA:90,4
DA:91,0
DA:92,0
DA:93,0
DA:94,0
DA:95,4
DA:98,4
DA:99,4
DA:101,0
DA:102,0
DA:103,0
DA:104,0
DA:106,0
DA:107,0
DA:108,0
DA:110,0
DA:111,4
DA:113,0
DA:114,0
DA:115,0
DA:116,0
DA:117,0
DA:120,0
DA:121,0
DA:122,0
DA:123,0
DA:126,0
DA:127,0
DA:128,0
DA:129,0
DA:130,4
DA:132,0
DA:133,0
DA:134,0
DA:135,0
DA:136,0
DA:137,0
DA:138,4
DA:142,6
DA:144,6
DA:145,6
DA:146,6
DA:147,6
DA:148,6
DA:149,6
DA:150,6
DA:167,1
DA:168,1
DA:169,1
DA:170,1
DA:171,1
DA:172,1
DA:175,1
DA:176,1
DA:177,1
DA:178,1
DA:179,1
DA:182,1
DA:183,1
DA:184,1
DA:185,1
DA:186,1
DA:191,1
DA:192,1
DA:193,1
DA:195,1
DA:196,1
DA:197,1
DA:202,1
DA:203,1
DA:204,1
DA:205,1
DA:208,1
DA:209,1
DA:210,1
DA:211,1
DA:214,1
DA:215,1
DA:216,1
DA:219,1
DA:220,1
DA:221,1
DA:224,1
DA:225,1
DA:226,1
DA:229,1
DA:230,1
DA:231,1
DA:232,1
DA:234,1
DA:235,1
DA:237,1
DA:238,1
DA:241,1
DA:242,1
DA:247,1
DA:248,1
DA:249,1
DA:252,1
DA:253,1
DA:256,1
DA:257,1
DA:258,1
DA:260,1
DA:261,1
DA:264,1
DA:265,1
DA:266,1
DA:269,1
DA:270,1
DA:271,1
DA:274,1
DA:277,1
DA:278,1
DA:279,1
DA:282,1
DA:283,1
DA:284,1
DA:286,1
DA:287,1
DA:290,1
DA:291,1
DA:292,1
DA:295,1
DA:296,1
DA:297,1
DA:299,1
DA:300,1
DA:301,1
DA:302,1
DA:305,1
DA:308,1
DA:311,1
DA:312,1
DA:313,1
DA:316,1
DA:317,1
DA:318,1
DA:320,1
DA:321,1
DA:322,1
DA:323,1
DA:324,1
DA:325,1
DA:326,1
DA:327,1
DA:331,1
DA:332,1
DA:334,1
DA:335,1
DA:340,1
DA:342,1
DA:344,1
DA:345,1
DA:347,1
DA:349,0
DA:351,0
DA:352,0
DA:353,0
DA:354,0
DA:355,0
DA:359,1
DA:365,1
DA:368,1
DA:369,1
DA:370,1
DA:373,1
DA:376,1
DA:377,1
DA:378,1
DA:381,1
DA:382,1
BRF:0
BRH:0
LF:233
LH:186
end_of_record
SF:/mnt/d/prj/intent-engine/src/setup/interactive.rs
FN:43,_RNvMNtNtCsjp9E11WtBq9_13intent_engine5setup11interactiveNtB2_11SetupTarget11description
FN:54,_RNvMNtNtCsjp9E11WtBq9_13intent_engine5setup11interactiveNtB2_11SetupTarget11status_icon
FN:34,_RNvMNtNtCsjp9E11WtBq9_13intent_engine5setup11interactiveNtB2_11SetupTarget12display_name
FN:114,_RNvMNtNtCsjp9E11WtBq9_13intent_engine5setup11interactiveNtB2_11SetupTarget13is_selectable
FN:103,_RNvMNtNtCsjp9E11WtBq9_13intent_engine5setup11interactiveNtB2_11SetupTarget15format_for_menu
FN:70,_RNvMNtNtCsjp9E11WtBq9_13intent_engine5setup11interactiveNtB2_11SetupTarget18status_description
FN:143,_RNvMs_NtNtCsjp9E11WtBq9_13intent_engine5setup11interactiveNtB4_11SetupWizard25detect_claude_code_status
FN:126,_RNvMs_NtNtCsjp9E11WtBq9_13intent_engine5setup11interactiveNtB4_11SetupWizard3new
FN:167,_RNvMs_NtNtCsjp9E11WtBq9_13intent_engine5setup11interactiveNtB4_11SetupWizard3run
FN:219,_RNvXs0_NtNtCsjp9E11WtBq9_13intent_engine5setup11interactiveNtB5_11SetupWizardNtNtCs4Vq2ZLagKfv_4core7default7Default7default
FN:171,_RNCNvMs_NtNtCsjp9E11WtBq9_13intent_engine5setup11interactiveNtB6_11SetupWizard3run0Ba_
FN:177,_RNCNvMs_NtNtCsjp9E11WtBq9_13intent_engine5setup11interactiveNtB6_11SetupWizard3runs_0Ba_
FN:219,_RNvXs0_NtNtCs86Lp2I5pN1o_13intent_engine5setup11interactiveNtB5_11SetupWizardNtNtCs4Vq2ZLagKfv_4core7default7Default7default
FN:171,_RNCNvMs_NtNtCs86Lp2I5pN1o_13intent_engine5setup11interactiveNtB6_11SetupWizard3run0Ba_
FN:177,_RNCNvMs_NtNtCs86Lp2I5pN1o_13intent_engine5setup11interactiveNtB6_11SetupWizard3runs_0Ba_
FN:43,_RNvMNtNtCs86Lp2I5pN1o_13intent_engine5setup11interactiveNtB2_11SetupTarget11description
FN:54,_RNvMNtNtCs86Lp2I5pN1o_13intent_engine5setup11interactiveNtB2_11SetupTarget11status_icon
FN:34,_RNvMNtNtCs86Lp2I5pN1o_13intent_engine5setup11interactiveNtB2_11SetupTarget12display_name
FN:114,_RNvMNtNtCs86Lp2I5pN1o_13intent_engine5setup11interactiveNtB2_11SetupTarget13is_selectable
FN:103,_RNvMNtNtCs86Lp2I5pN1o_13intent_engine5setup11interactiveNtB2_11SetupTarget15format_for_menu
FN:70,_RNvMNtNtCs86Lp2I5pN1o_13intent_engine5setup11interactiveNtB2_11SetupTarget18status_description
FN:143,_RNvMs_NtNtCs86Lp2I5pN1o_13intent_engine5setup11interactiveNtB4_11SetupWizard25detect_claude_code_status
FN:126,_RNvMs_NtNtCs86Lp2I5pN1o_13intent_engine5setup11interactiveNtB4_11SetupWizard3new
FN:167,_RNvMs_NtNtCs86Lp2I5pN1o_13intent_engine5setup11interactiveNtB4_11SetupWizard3run
FNDA:0,_RNvMNtNtCsjp9E11WtBq9_13intent_engine5setup11interactiveNtB2_11SetupTarget11description
FNDA:0,_RNvMNtNtCsjp9E11WtBq9_13intent_engine5setup11interactiveNtB2_11SetupTarget11status_icon
FNDA:0,_RNvMNtNtCsjp9E11WtBq9_13intent_engine5setup11interactiveNtB2_11SetupTarget12display_name
FNDA:0,_RNvMNtNtCsjp9E11WtBq9_13intent_engine5setup11interactiveNtB2_11SetupTarget13is_selectable
FNDA:0,_RNvMNtNtCsjp9E11WtBq9_13intent_engine5setup11interactiveNtB2_11SetupTarget15format_for_menu
FNDA:0,_RNvMNtNtCsjp9E11WtBq9_13intent_engine5setup11interactiveNtB2_11SetupTarget18status_description
FNDA:0,_RNvMs_NtNtCsjp9E11WtBq9_13intent_engine5setup11interactiveNtB4_11SetupWizard25detect_claude_code_status
FNDA:0,_RNvMs_NtNtCsjp9E11WtBq9_13intent_engine5setup11interactiveNtB4_11SetupWizard3new
FNDA:0,_RNvMs_NtNtCsjp9E11WtBq9_13intent_engine5setup11interactiveNtB4_11SetupWizard3run
FNDA:0,_RNvXs0_NtNtCsjp9E11WtBq9_13intent_engine5setup11interactiveNtB5_11SetupWizardNtNtCs4Vq2ZLagKfv_4core7default7Default7default
FNDA:0,_RNCNvMs_NtNtCsjp9E11WtBq9_13intent_engine5setup11interactiveNtB6_11SetupWizard3run0Ba_
FNDA:0,_RNCNvMs_NtNtCsjp9E11WtBq9_13intent_engine5setup11interactiveNtB6_11SetupWizard3runs_0Ba_
FNDA:0,_RNvXs0_NtNtCs86Lp2I5pN1o_13intent_engine5setup11interactiveNtB5_11SetupWizardNtNtCs4Vq2ZLagKfv_4core7default7Default7default
FNDA:0,_RNCNvMs_NtNtCs86Lp2I5pN1o_13intent_engine5setup11interactiveNtB6_11SetupWizard3run0Ba_
FNDA:0,_RNCNvMs_NtNtCs86Lp2I5pN1o_13intent_engine5setup11interactiveNtB6_11SetupWizard3runs_0Ba_
FNDA:0,_RNvMNtNtCs86Lp2I5pN1o_13intent_engine5setup11interactiveNtB2_11SetupTarget11description
FNDA:0,_RNvMNtNtCs86Lp2I5pN1o_13intent_engine5setup11interactiveNtB2_11SetupTarget11status_icon
FNDA:0,_RNvMNtNtCs86Lp2I5pN1o_13intent_engine5setup11interactiveNtB2_11SetupTarget12display_name
FNDA:0,_RNvMNtNtCs86Lp2I5pN1o_13intent_engine5setup11interactiveNtB2_11SetupTarget13is_selectable
FNDA:0,_RNvMNtNtCs86Lp2I5pN1o_13intent_engine5setup11interactiveNtB2_11SetupTarget15format_for_menu
FNDA:0,_RNvMNtNtCs86Lp2I5pN1o_13intent_engine5setup11interactiveNtB2_11SetupTarget18status_description
FNDA:0,_RNvMs_NtNtCs86Lp2I5pN1o_13intent_engine5setup11interactiveNtB4_11SetupWizard25detect_claude_code_status
FNDA:0,_RNvMs_NtNtCs86Lp2I5pN1o_13intent_engine5setup11interactiveNtB4_11SetupWizard3new
FNDA:0,_RNvMs_NtNtCs86Lp2I5pN1o_13intent_engine5setup11interactiveNtB4_11SetupWizard3run
FNF:12
FNH:0
DA:34,0
DA:35,0
DA:36,0
DA:37,0
DA:38,0
DA:40,0
DA:43,0
DA:44,0
DA:46,0
DA:48,0
DA:49,0
DA:51,0
DA:54,0
DA:55,0
DA:56,0
DA:57,0
DA:58,0
DA:61,0
DA:62,0
DA:63,0
DA:64,0
DA:65,0
DA:67,0
DA:70,0
DA:71,0
DA:72,0
DA:73,0
DA:74,0
DA:77,0
DA:78,0
DA:79,0
DA:81,0
DA:84,0
DA:85,0
DA:86,0
DA:87,0
DA:89,0
DA:92,0
DA:95,0
DA:98,0
DA:100,0
DA:103,0
DA:104,0
DA:105,0
DA:106,0
DA:107,0
DA:108,0
DA:109,0
DA:111,0
DA:114,0
DA:115,0
DA:116,0
DA:126,0
DA:127,0
DA:128,0
DA:129,0
DA:130,0
DA:131,0
DA:132,0
DA:133,0
DA:134,0
DA:135,0
DA:136,0
DA:137,0
DA:138,0
DA:139,0
DA:140,0
DA:143,0
DA:144,0
DA:145,0
DA:146,0
DA:149,0
DA:150,0
DA:151,0
DA:153,0
DA:154,0
DA:155,0
DA:157,0
DA:158,0
DA:159,0
DA:160,0
DA:162,0
DA:164,0
DA:167,0
DA:168,0
DA:169,0
DA:171,0
DA:173,0
DA:174,0
DA:175,0
DA:176,0
DA:177,0
DA:179,0
DA:182,0
DA:183,0
DA:184,0
DA:185,0
DA:186,0
DA:188,0
DA:189,0
DA:190,0
DA:191,0
DA:192,0
DA:194,0
DA:196,0
DA:197,0
DA:198,0
DA:199,0
DA:200,0
DA:201,0
DA:202,0
DA:205,0
DA:207,0
DA:208,0
DA:209,0
DA:211,0
DA:212,0
DA:213,0
DA:215,0
DA:219,0
DA:220,0
DA:221,0
BRF:0
BRH:0
LF:124
LH:0
end_of_record
SF:/mnt/d/prj/intent-engine/src/setup/mod.rs
FN:29,_RNvXNtCsjp9E11WtBq9_13intent_engine5setupNtB2_10SetupScopeNtNtNtCs4Vq2ZLagKfv_4core3str6traits7FromStr8from_str
FN:54,_RNvXs_NtCsjp9E11WtBq9_13intent_engine5setupNtB4_12SetupOptionsNtNtCs4Vq2ZLagKfv_4core7default7Default7default
FN:54,_RNvXs_NtCs86Lp2I5pN1o_13intent_engine5setupNtB4_12SetupOptionsNtNtCs4Vq2ZLagKfv_4core7default7Default7default
FN:29,_RNvXNtCs86Lp2I5pN1o_13intent_engine5setupNtB2_10SetupScopeNtNtNtCs4Vq2ZLagKfv_4core3str6traits7FromStr8from_str
FNDA:0,_RNvXNtCsjp9E11WtBq9_13intent_engine5setupNtB2_10SetupScopeNtNtNtCs4Vq2ZLagKfv_4core3str6traits7FromStr8from_str
FNDA:0,_RNvXs_NtCsjp9E11WtBq9_13intent_engine5setupNtB4_12SetupOptionsNtNtCs4Vq2ZLagKfv_4core7default7Default7default
FNDA:0,_RNvXs_NtCs86Lp2I5pN1o_13intent_engine5setupNtB4_12SetupOptionsNtNtCs4Vq2ZLagKfv_4core7default7Default7default
FNDA:0,_RNvXNtCs86Lp2I5pN1o_13intent_engine5setupNtB2_10SetupScopeNtNtNtCs4Vq2ZLagKfv_4core3str6traits7FromStr8from_str
FNF:2
FNH:0
DA:29,0
DA:30,0
DA:31,0
DA:32,0
DA:33,0
DA:34,0
DA:35,0
DA:36,0
DA:37,0
DA:39,0
DA:54,0
DA:55,0
DA:56,0
DA:57,0
DA:58,0
DA:59,0
DA:60,0
BRF:0
BRH:0
LF:17
LH:0
end_of_record
SF:/mnt/d/prj/intent-engine/src/sql_constants.rs
FN:155,_RNvNtNtCs86Lp2I5pN1o_13intent_engine13sql_constants5testss_21test_select_task_full
FN:171,_RNvNtNtCs86Lp2I5pN1o_13intent_engine13sql_constants5testss_22test_check_task_exists
FN:163,_RNvNtNtCs86Lp2I5pN1o_13intent_engine13sql_constants5testss_23test_select_event_by_id
FN:134,_RNvNtNtCs86Lp2I5pN1o_13intent_engine13sql_constants5testss_24test_task_columns_format
FN:148,_RNvNtNtCs86Lp2I5pN1o_13intent_engine13sql_constants5testss_25test_event_columns_format
FN:142,_RNvNtNtCs86Lp2I5pN1o_13intent_engine13sql_constants5testss_32test_task_columns_no_spec_format
FNDA:1,_RNvNtNtCs86Lp2I5pN1o_13intent_engine13sql_constants5testss_21test_select_task_full
FNDA:1,_RNvNtNtCs86Lp2I5pN1o_13intent_engine13sql_constants5testss_22test_check_task_exists
FNDA:1,_RNvNtNtCs86Lp2I5pN1o_13intent_engine13sql_constants5testss_23test_select_event_by_id
FNDA:1,_RNvNtNtCs86Lp2I5pN1o_13intent_engine13sql_constants5testss_24test_task_columns_format
FNDA:1,_RNvNtNtCs86Lp2I5pN1o_13intent_engine13sql_constants5testss_25test_event_columns_format
FNDA:1,_RNvNtNtCs86Lp2I5pN1o_13intent_engine13sql_constants5testss_32test_task_columns_no_spec_format
FNF:6
FNH:6
DA:134,1
DA:135,1
DA:136,1
DA:137,1
DA:138,1
DA:139,1
DA:142,1
DA:143,1
DA:144,1
DA:145,1
DA:148,1
DA:149,1
DA:150,1
DA:151,1
DA:152,1
DA:155,1
DA:156,1
DA:160,1
DA:163,1
DA:164,1
DA:168,1
DA:171,1
DA:172,1
DA:176,1
BRF:0
BRH:0
LF:24
LH:24
end_of_record
SF:/mnt/d/prj/intent-engine/src/tasks.rs
FN:911,_RNCNvMNtCsjp9E11WtBq9_13intent_engine5tasksNtB4_11TaskManager15pick_next_tasks0B6_
FN:468,_RNvMNtCsjp9E11WtBq9_13intent_engine5tasksNtB2_11TaskManager10find_tasks
FN:597,_RNvMNtCsjp9E11WtBq9_13intent_engine5tasksNtB2_11TaskManager10start_task
FN:453,_RNvMNtCsjp9E11WtBq9_13intent_engine5tasksNtB2_11TaskManager11delete_task
FN:328,_RNvMNtCsjp9E11WtBq9_13intent_engine5tasksNtB2_11TaskManager11update_task
FN:853,_RNvMNtCsjp9E11WtBq9_13intent_engine5tasksNtB2_11TaskManager13spawn_subtask
FN:41,_RNvMNtCsjp9E11WtBq9_13intent_engine5tasksNtB2_11TaskManager14with_websocket
FN:907,_RNvMNtCsjp9E11WtBq9_13intent_engine5tasksNtB2_11TaskManager15pick_next_tasks
FN:199,_RNvMNtCsjp9E11WtBq9_13intent_engine5tasksNtB2_11TaskManager16get_task_context
FN:811,_RNvMNtCsjp9E11WtBq9_13intent_engine5tasksNtB2_11TaskManager17check_task_exists
FN:179,_RNvMNtCsjp9E11WtBq9_13intent_engine5tasksNtB2_11TaskManager17get_task_ancestry
FN:28,_RNvMNtCsjp9E11WtBq9_13intent_engine5tasksNtB2_11TaskManager17with_mcp_notifier
FN:301,_RNvMNtCsjp9E11WtBq9_13intent_engine5tasksNtB2_11TaskManager18get_events_summary
FN:54,_RNvMNtCsjp9E11WtBq9_13intent_engine5tasksNtB2_11TaskManager19notify_task_created
FN:96,_RNvMNtCsjp9E11WtBq9_13intent_engine5tasksNtB2_11TaskManager19notify_task_deleted
FN:75,_RNvMNtCsjp9E11WtBq9_13intent_engine5tasksNtB2_11TaskManager19notify_task_updated
FN:161,_RNvMNtCsjp9E11WtBq9_13intent_engine5tasksNtB2_11TaskManager20get_task_with_events
FN:825,_RNvMNtCsjp9E11WtBq9_13intent_engine5tasksNtB2_11TaskManager25check_circular_dependency
FN:19,_RNvMNtCsjp9E11WtBq9_13intent_engine5tasksNtB2_11TaskManager3new
FN:108,_RNvMNtCsjp9E11WtBq9_13intent_engine5tasksNtB2_11TaskManager8add_task
FN:144,_RNvMNtCsjp9E11WtBq9_13intent_engine5tasksNtB2_11TaskManager8get_task
FN:652,_RNvMNtCsjp9E11WtBq9_13intent_engine5tasksNtB2_11TaskManager9done_task
FN:576,_RNvMNtCsjp9E11WtBq9_13intent_engine5tasksNtB2_11TaskManager9get_stats
FN:998,_RNvMNtCsjp9E11WtBq9_13intent_engine5tasksNtB2_11TaskManager9pick_next
FN:864,_RNCNCNvMNtCsjp9E11WtBq9_13intent_engine5tasksNtB6_11TaskManager13spawn_subtask00B8_
FN:661,_RNCNCNvMNtCsjp9E11WtBq9_13intent_engine5tasksNtB6_11TaskManager9done_task00B8_
FN:475,_RNCNvMNtCsjp9E11WtBq9_13intent_engine5tasksNtB4_11TaskManager10find_tasks0B6_
FN:597,_RNCNvMNtCsjp9E11WtBq9_13intent_engine5tasksNtB4_11TaskManager10start_task0B6_
FN:453,_RNCNvMNtCsjp9E11WtBq9_13intent_engine5tasksNtB4_11TaskManager11delete_task0B6_
FN:337,_RNCNvMNtCsjp9E11WtBq9_13intent_engine5tasksNtB4_11TaskManager11update_task0B6_
FN:857,_RNCNvMNtCsjp9E11WtBq9_13intent_engine5tasksNtB4_11TaskManager13spawn_subtask0B6_
FN:199,_RNCNvMNtCsjp9E11WtBq9_13intent_engine5tasksNtB4_11TaskManager16get_task_context0B6_
FN:811,_RNCNvMNtCsjp9E11WtBq9_13intent_engine5tasksNtB4_11TaskManager17check_task_exists0B6_
FN:179,_RNCNvMNtCsjp9E11WtBq9_13intent_engine5tasksNtB4_11TaskManager17get_task_ancestry0B6_
FN:301,_RNCNvMNtCsjp9E11WtBq9_13intent_engine5tasksNtB4_11TaskManager18get_events_summary0B6_
FN:54,_RNCNvMNtCsjp9E11WtBq9_13intent_engine5tasksNtB4_11TaskManager19notify_task_created0B6_
FN:96,_RNCNvMNtCsjp9E11WtBq9_13intent_engine5tasksNtB4_11TaskManager19notify_task_deleted0B6_
FN:75,_RNCNvMNtCsjp9E11WtBq9_13intent_engine5tasksNtB4_11TaskManager19notify_task_updated0B6_
FN:161,_RNCNvMNtCsjp9E11WtBq9_13intent_engine5tasksNtB4_11TaskManager20get_task_with_events0B6_
FN:825,_RNCNvMNtCsjp9E11WtBq9_13intent_engine5tasksNtB4_11TaskManager25check_circular_dependency0B6_
FN:113,_RNCNvMNtCsjp9E11WtBq9_13intent_engine5tasksNtB4_11TaskManager8add_task0B6_
FN:144,_RNCNvMNtCsjp9E11WtBq9_13intent_engine5tasksNtB4_11TaskManager8get_task0B6_
FN:652,_RNCNvMNtCsjp9E11WtBq9_13intent_engine5tasksNtB4_11TaskManager9done_task0B6_
FN:576,_RNCNvMNtCsjp9E11WtBq9_13intent_engine5tasksNtB4_11TaskManager9get_stats0B6_
FN:998,_RNCNvMNtCsjp9E11WtBq9_13intent_engine5tasksNtB4_11TaskManager9pick_next0B6_
FN:1211,_RNCNvNtNtCs86Lp2I5pN1o_13intent_engine5tasks5testss_13test_add_task0B7_
FN:1254,_RNCNvNtNtCs86Lp2I5pN1o_13intent_engine5tasks5testss_13test_get_task0B7_
FN:1409,_RNCNvNtNtCs86Lp2I5pN1o_13intent_engine5tasks5testss_14test_done_task0B7_
FN:1365,_RNCNvNtNtCs86Lp2I5pN1o_13intent_engine5tasks5testss_15test_start_task0B7_
FN:1304,_RNCNvNtNtCs86Lp2I5pN1o_13intent_engine5tasks5testss_16test_delete_task0B7_
FN:1537,_RNCNvNtNtCs86Lp2I5pN1o_13intent_engine5tasks5testss_18test_spawn_subtask0B7_
FN:1169,_RNCNvNtNtCs86Lp2I5pN1o_13intent_engine5tasks5testss_20test_get_stats_empty0B7_
FN:1275,_RNCNvNtNtCs86Lp2I5pN1o_13intent_engine5tasks5testss_21test_update_task_name0B7_
FN:1513,_RNCNvNtNtCs86Lp2I5pN1o_13intent_engine5tasks5testss_22test_invalid_parent_id0B7_
FN:1225,_RNCNvNtNtCs86Lp2I5pN1o_13intent_engine5tasks5testss_23test_add_task_with_spec0B7_
FN:1266,_RNCNvNtNtCs86Lp2I5pN1o_13intent_engine5tasks5testss_23test_get_task_not_found0B7_
FN:1928,_RNCNvNtNtCs86Lp2I5pN1o_13intent_engine5tasks5testss_23test_pick_next_no_tasks0B7_
FN:1289,_RNCNvNtNtCs86Lp2I5pN1o_13intent_engine5tasks5testss_23test_update_task_status0B7_
FN:1491,_RNCNvNtNtCs86Lp2I5pN1o_13intent_engine5tasks5testss_24test_circular_dependency0B7_
FN:1240,_RNCNvNtNtCs86Lp2I5pN1o_13intent_engine5tasks5testss_25test_add_task_with_parent0B7_
FN:1342,_RNCNvNtNtCs86Lp2I5pN1o_13intent_engine5tasks5testss_25test_find_tasks_by_parent0B7_
FN:1316,_RNCNvNtNtCs86Lp2I5pN1o_13intent_engine5tasks5testss_25test_find_tasks_by_status0B7_
FN:1182,_RNCNvNtNtCs86Lp2I5pN1o_13intent_engine5tasks5testss_25test_get_stats_with_tasks0B7_
FN:2074,_RNCNvNtNtCs86Lp2I5pN1o_13intent_engine5tasks5testss_25test_get_task_with_events0B7_
FN:1582,_RNCNvNtNtCs86Lp2I5pN1o_13intent_engine5tasks5testss_26test_pick_next_tasks_basic0B7_
FN:1386,_RNCNvNtNtCs86Lp2I5pN1o_13intent_engine5tasks5testss_27test_start_task_with_events0B7_
FN:2136,_RNCNvNtNtCs86Lp2I5pN1o_13intent_engine5tasks5testss_28test_get_task_with_no_events0B7_
FN:1941,_RNCNvNtNtCs86Lp2I5pN1o_13intent_engine5tasks5testss_28test_pick_next_all_completed0B7_
FN:1900,_RNCNvNtNtCs86Lp2I5pN1o_13intent_engine5tasks5testss_29test_pick_next_top_level_task0B7_
FN:2113,_RNCNvNtNtCs86Lp2I5pN1o_13intent_engine5tasks5testss_30test_get_task_with_many_events0B7_
FN:1862,_RNCNvNtNtCs86Lp2I5pN1o_13intent_engine5tasks5testss_30test_pick_next_focused_subtask0B7_
FN:1829,_RNCNvNtNtCs86Lp2I5pN1o_13intent_engine5tasks5testss_32test_done_task_no_parent_context0B7_
FN:2005,_RNCNvNtNtCs86Lp2I5pN1o_13intent_engine5tasks5testss_32test_pick_next_priority_ordering0B7_
FN:1649,_RNCNvNtNtCs86Lp2I5pN1o_13intent_engine5tasks5testss_32test_pick_next_tasks_at_capacity0B7_
FN:2230,_RNCNvNtNtCs86Lp2I5pN1o_13intent_engine5tasks5testss_33test_get_task_context_with_parent0B7_
FN:2564,_RNCNvNtNtCs86Lp2I5pN1o_13intent_engine5tasks5testss_33test_multiple_doing_tasks_allowed0B7_
FN:1959,_RNCNvNtNtCs86Lp2I5pN1o_13intent_engine5tasks5testss_33test_pick_next_no_available_todos0B7_
FN:2150,_RNCNvNtNtCs86Lp2I5pN1o_13intent_engine5tasks5testss_34test_pick_next_tasks_zero_capacity0B7_
FN:1572,_RNCNvNtNtCs86Lp2I5pN1o_13intent_engine5tasks5testss_34test_spawn_subtask_no_current_task0B7_
FN:1742,_RNCNvNtNtCs86Lp2I5pN1o_13intent_engine5tasks5testss_35test_done_task_sibling_tasks_remain0B7_
FN:2260,_RNCNvNtNtCs86Lp2I5pN1o_13intent_engine5tasks5testss_35test_get_task_context_with_children0B7_
FN:2201,_RNCNvNtNtCs86Lp2I5pN1o_13intent_engine5tasks5testss_35test_get_task_context_with_siblings0B7_
FN:2479,_RNCNvNtNtCs86Lp2I5pN1o_13intent_engine5tasks5testss_35test_pick_next_tasks_priority_order0B7_
FN:2104,_RNCNvNtNtCs86Lp2I5pN1o_13intent_engine5tasks5testss_37test_get_task_with_events_nonexistent0B7_
FN:1795,_RNCNvNtNtCs86Lp2I5pN1o_13intent_engine5tasks5testss_38test_done_task_top_level_with_children0B7_
FN:1456,_RNCNvNtNtCs86Lp2I5pN1o_13intent_engine5tasks5testss_38test_done_task_with_completed_children0B7_
FN:2436,_RNCNvNtNtCs86Lp2I5pN1o_13intent_engine5tasks5testss_38test_get_task_context_nonexistent_task0B7_
FN:2522,_RNCNvNtNtCs86Lp2I5pN1o_13intent_engine5tasks5testss_38test_pick_next_prefers_doing_over_todo0B7_
FN:1671,_RNCNvNtNtCs86Lp2I5pN1o_13intent_engine5tasks5testss_38test_pick_next_tasks_priority_ordering0B7_
FN:1438,_RNCNvNtNtCs86Lp2I5pN1o_13intent_engine5tasks5testss_40test_done_task_with_uncompleted_children0B7_
FN:1708,_RNCNvNtNtCs86Lp2I5pN1o_13intent_engine5tasks5testss_40test_pick_next_tasks_complexity_ordering0B7_
FN:1613,_RNCNvNtNtCs86Lp2I5pN1o_13intent_engine5tasks5testss_40test_pick_next_tasks_with_existing_doing0B7_
FN:1522,_RNCNvNtNtCs86Lp2I5pN1o_13intent_engine5tasks5testss_40test_update_task_complexity_and_priority0B7_
FN:2334,_RNCNvNtNtCs86Lp2I5pN1o_13intent_engine5tasks5testss_41test_get_task_context_complex_family_tree0B7_
FN:2446,_RNCNvNtNtCs86Lp2I5pN1o_13intent_engine5tasks5testss_43test_get_task_context_handles_null_priority0B7_
FN:2299,_RNCNvNtNtCs86Lp2I5pN1o_13intent_engine5tasks5testss_43test_get_task_context_multi_level_hierarchy0B7_
FN:2177,_RNCNvNtNtCs86Lp2I5pN1o_13intent_engine5tasks5testss_44test_get_task_context_root_task_no_relations0B7_
FN:2162,_RNCNvNtNtCs86Lp2I5pN1o_13intent_engine5tasks5testss_47test_pick_next_tasks_capacity_exceeds_available0B7_
FN:2391,_RNCNvNtNtCs86Lp2I5pN1o_13intent_engine5tasks5testss_48test_get_task_context_respects_priority_ordering0B7_
FN:2050,_RNCNvNtNtCs86Lp2I5pN1o_13intent_engine5tasks5testss_55test_pick_next_falls_back_to_top_level_when_no_subtasks0B7_
FN:1211,_RNvNtNtCs86Lp2I5pN1o_13intent_engine5tasks5testss_13test_add_task
FN:1254,_RNvNtNtCs86Lp2I5pN1o_13intent_engine5tasks5testss_13test_get_task
FN:1409,_RNvNtNtCs86Lp2I5pN1o_13intent_engine5tasks5testss_14test_done_task
FN:1365,_RNvNtNtCs86Lp2I5pN1o_13intent_engine5tasks5testss_15test_start_task
FN:1304,_RNvNtNtCs86Lp2I5pN1o_13intent_engine5tasks5testss_16test_delete_task
FN:1537,_RNvNtNtCs86Lp2I5pN1o_13intent_engine5tasks5testss_18test_spawn_subtask
FN:1169,_RNvNtNtCs86Lp2I5pN1o_13intent_engine5tasks5testss_20test_get_stats_empty
FN:1275,_RNvNtNtCs86Lp2I5pN1o_13intent_engine5tasks5testss_21test_update_task_name
FN:1513,_RNvNtNtCs86Lp2I5pN1o_13intent_engine5tasks5testss_22test_invalid_parent_id
FN:1225,_RNvNtNtCs86Lp2I5pN1o_13intent_engine5tasks5testss_23test_add_task_with_spec
FN:1266,_RNvNtNtCs86Lp2I5pN1o_13intent_engine5tasks5testss_23test_get_task_not_found
FN:1928,_RNvNtNtCs86Lp2I5pN1o_13intent_engine5tasks5testss_23test_pick_next_no_tasks
FN:1289,_RNvNtNtCs86Lp2I5pN1o_13intent_engine5tasks5testss_23test_update_task_status
FN:1491,_RNvNtNtCs86Lp2I5pN1o_13intent_engine5tasks5testss_24test_circular_dependency
FN:1240,_RNvNtNtCs86Lp2I5pN1o_13intent_engine5tasks5testss_25test_add_task_with_parent
FN:1342,_RNvNtNtCs86Lp2I5pN1o_13intent_engine5tasks5testss_25test_find_tasks_by_parent
FN:1316,_RNvNtNtCs86Lp2I5pN1o_13intent_engine5tasks5testss_25test_find_tasks_by_status
FN:1182,_RNvNtNtCs86Lp2I5pN1o_13intent_engine5tasks5testss_25test_get_stats_with_tasks
FN:2074,_RNvNtNtCs86Lp2I5pN1o_13intent_engine5tasks5testss_25test_get_task_with_events
FN:1582,_RNvNtNtCs86Lp2I5pN1o_13intent_engine5tasks5testss_26test_pick_next_tasks_basic
FN:1386,_RNvNtNtCs86Lp2I5pN1o_13intent_engine5tasks5testss_27test_start_task_with_events
FN:2136,_RNvNtNtCs86Lp2I5pN1o_13intent_engine5tasks5testss_28test_get_task_with_no_events
FN:1941,_RNvNtNtCs86Lp2I5pN1o_13intent_engine5tasks5testss_28test_pick_next_all_completed
FN:1900,_RNvNtNtCs86Lp2I5pN1o_13intent_engine5tasks5testss_29test_pick_next_top_level_task
FN:2113,_RNvNtNtCs86Lp2I5pN1o_13intent_engine5tasks5testss_30test_get_task_with_many_events
FN:1862,_RNvNtNtCs86Lp2I5pN1o_13intent_engine5tasks5testss_30test_pick_next_focused_subtask
FN:1829,_RNvNtNtCs86Lp2I5pN1o_13intent_engine5tasks5testss_32test_done_task_no_parent_context
FN:2005,_RNvNtNtCs86Lp2I5pN1o_13intent_engine5tasks5testss_32test_pick_next_priority_ordering
FN:1649,_RNvNtNtCs86Lp2I5pN1o_13intent_engine5tasks5testss_32test_pick_next_tasks_at_capacity
FN:2230,_RNvNtNtCs86Lp2I5pN1o_13intent_engine5tasks5testss_33test_get_task_context_with_parent
FN:2564,_RNvNtNtCs86Lp2I5pN1o_13intent_engine5tasks5testss_33test_multiple_doing_tasks_allowed
FN:1959,_RNvNtNtCs86Lp2I5pN1o_13intent_engine5tasks5testss_33test_pick_next_no_available_todos
FN:2150,_RNvNtNtCs86Lp2I5pN1o_13intent_engine5tasks5testss_34test_pick_next_tasks_zero_capacity
FN:1572,_RNvNtNtCs86Lp2I5pN1o_13intent_engine5tasks5testss_34test_spawn_subtask_no_current_task
FN:1742,_RNvNtNtCs86Lp2I5pN1o_13intent_engine5tasks5testss_35test_done_task_sibling_tasks_remain
FN:2260,_RNvNtNtCs86Lp2I5pN1o_13intent_engine5tasks5testss_35test_get_task_context_with_children
FN:2201,_RNvNtNtCs86Lp2I5pN1o_13intent_engine5tasks5testss_35test_get_task_context_with_siblings
FN:2479,_RNvNtNtCs86Lp2I5pN1o_13intent_engine5tasks5testss_35test_pick_next_tasks_priority_order
FN:2104,_RNvNtNtCs86Lp2I5pN1o_13intent_engine5tasks5testss_37test_get_task_with_events_nonexistent
FN:1795,_RNvNtNtCs86Lp2I5pN1o_13intent_engine5tasks5testss_38test_done_task_top_level_with_children
FN:1456,_RNvNtNtCs86Lp2I5pN1o_13intent_engine5tasks5testss_38test_done_task_with_completed_children
FN:2436,_RNvNtNtCs86Lp2I5pN1o_13intent_engine5tasks5testss_38test_get_task_context_nonexistent_task
FN:2522,_RNvNtNtCs86Lp2I5pN1o_13intent_engine5tasks5testss_38test_pick_next_prefers_doing_over_todo
FN:1671,_RNvNtNtCs86Lp2I5pN1o_13intent_engine5tasks5testss_38test_pick_next_tasks_priority_ordering
FN:1438,_RNvNtNtCs86Lp2I5pN1o_13intent_engine5tasks5testss_40test_done_task_with_uncompleted_children
FN:1708,_RNvNtNtCs86Lp2I5pN1o_13intent_engine5tasks5testss_40test_pick_next_tasks_complexity_ordering
FN:1613,_RNvNtNtCs86Lp2I5pN1o_13intent_engine5tasks5testss_40test_pick_next_tasks_with_existing_doing
FN:1522,_RNvNtNtCs86Lp2I5pN1o_13intent_engine5tasks5testss_40test_update_task_complexity_and_priority
FN:2334,_RNvNtNtCs86Lp2I5pN1o_13intent_engine5tasks5testss_41test_get_task_context_complex_family_tree
FN:2446,_RNvNtNtCs86Lp2I5pN1o_13intent_engine5tasks5testss_43test_get_task_context_handles_null_priority
FN:2299,_RNvNtNtCs86Lp2I5pN1o_13intent_engine5tasks5testss_43test_get_task_context_multi_level_hierarchy
FN:2177,_RNvNtNtCs86Lp2I5pN1o_13intent_engine5tasks5testss_44test_get_task_context_root_task_no_relations
FN:2162,_RNvNtNtCs86Lp2I5pN1o_13intent_engine5tasks5testss_47test_pick_next_tasks_capacity_exceeds_available
FN:2391,_RNvNtNtCs86Lp2I5pN1o_13intent_engine5tasks5testss_48test_get_task_context_respects_priority_ordering
FN:2050,_RNvNtNtCs86Lp2I5pN1o_13intent_engine5tasks5testss_55test_pick_next_falls_back_to_top_level_when_no_subtasks
FN:864,_RNCNCNvMNtCs86Lp2I5pN1o_13intent_engine5tasksNtB6_11TaskManager13spawn_subtask00B8_
FN:661,_RNCNCNvMNtCs86Lp2I5pN1o_13intent_engine5tasksNtB6_11TaskManager9done_task00B8_
FN:475,_RNCNvMNtCs86Lp2I5pN1o_13intent_engine5tasksNtB4_11TaskManager10find_tasks0B6_
FN:597,_RNCNvMNtCs86Lp2I5pN1o_13intent_engine5tasksNtB4_11TaskManager10start_task0B6_
FN:453,_RNCNvMNtCs86Lp2I5pN1o_13intent_engine5tasksNtB4_11TaskManager11delete_task0B6_
FN:337,_RNCNvMNtCs86Lp2I5pN1o_13intent_engine5tasksNtB4_11TaskManager11update_task0B6_
FN:857,_RNCNvMNtCs86Lp2I5pN1o_13intent_engine5tasksNtB4_11TaskManager13spawn_subtask0B6_
FN:911,_RNCNvMNtCs86Lp2I5pN1o_13intent_engine5tasksNtB4_11TaskManager15pick_next_tasks0B6_
FN:199,_RNCNvMNtCs86Lp2I5pN1o_13intent_engine5tasksNtB4_11TaskManager16get_task_context0B6_
FN:811,_RNCNvMNtCs86Lp2I5pN1o_13intent_engine5tasksNtB4_11TaskManager17check_task_exists0B6_
FN:179,_RNCNvMNtCs86Lp2I5pN1o_13intent_engine5tasksNtB4_11TaskManager17get_task_ancestry0B6_
FN:301,_RNCNvMNtCs86Lp2I5pN1o_13intent_engine5tasksNtB4_11TaskManager18get_events_summary0B6_
FN:54,_RNCNvMNtCs86Lp2I5pN1o_13intent_engine5tasksNtB4_11TaskManager19notify_task_created0B6_
FN:96,_RNCNvMNtCs86Lp2I5pN1o_13intent_engine5tasksNtB4_11TaskManager19notify_task_deleted0B6_
FN:75,_RNCNvMNtCs86Lp2I5pN1o_13intent_engine5tasksNtB4_11TaskManager19notify_task_updated0B6_
FN:161,_RNCNvMNtCs86Lp2I5pN1o_13intent_engine5tasksNtB4_11TaskManager20get_task_with_events0B6_
FN:825,_RNCNvMNtCs86Lp2I5pN1o_13intent_engine5tasksNtB4_11TaskManager25check_circular_dependency0B6_
FN:113,_RNCNvMNtCs86Lp2I5pN1o_13intent_engine5tasksNtB4_11TaskManager8add_task0B6_
FN:144,_RNCNvMNtCs86Lp2I5pN1o_13intent_engine5tasksNtB4_11TaskManager8get_task0B6_
FN:652,_RNCNvMNtCs86Lp2I5pN1o_13intent_engine5tasksNtB4_11TaskManager9done_task0B6_
FN:576,_RNCNvMNtCs86Lp2I5pN1o_13intent_engine5tasksNtB4_11TaskManager9get_stats0B6_
FN:998,_RNCNvMNtCs86Lp2I5pN1o_13intent_engine5tasksNtB4_11TaskManager9pick_next0B6_
FN:468,_RNvMNtCs86Lp2I5pN1o_13intent_engine5tasksNtB2_11TaskManager10find_tasks
FN:597,_RNvMNtCs86Lp2I5pN1o_13intent_engine5tasksNtB2_11TaskManager10start_task
FN:453,_RNvMNtCs86Lp2I5pN1o_13intent_engine5tasksNtB2_11TaskManager11delete_task
FN:328,_RNvMNtCs86Lp2I5pN1o_13intent_engine5tasksNtB2_11TaskManager11update_task
FN:853,_RNvMNtCs86Lp2I5pN1o_13intent_engine5tasksNtB2_11TaskManager13spawn_subtask
FN:41,_RNvMNtCs86Lp2I5pN1o_13intent_engine5tasksNtB2_11TaskManager14with_websocket
FN:907,_RNvMNtCs86Lp2I5pN1o_13intent_engine5tasksNtB2_11TaskManager15pick_next_tasks
FN:199,_RNvMNtCs86Lp2I5pN1o_13intent_engine5tasksNtB2_11TaskManager16get_task_context
FN:811,_RNvMNtCs86Lp2I5pN1o_13intent_engine5tasksNtB2_11TaskManager17check_task_exists
FN:179,_RNvMNtCs86Lp2I5pN1o_13intent_engine5tasksNtB2_11TaskManager17get_task_ancestry
FN:28,_RNvMNtCs86Lp2I5pN1o_13intent_engine5tasksNtB2_11TaskManager17with_mcp_notifier
FN:301,_RNvMNtCs86Lp2I5pN1o_13intent_engine5tasksNtB2_11TaskManager18get_events_summary
FN:54,_RNvMNtCs86Lp2I5pN1o_13intent_engine5tasksNtB2_11TaskManager19notify_task_created
FN:96,_RNvMNtCs86Lp2I5pN1o_13intent_engine5tasksNtB2_11TaskManager19notify_task_deleted
FN:75,_RNvMNtCs86Lp2I5pN1o_13intent_engine5tasksNtB2_11TaskManager19notify_task_updated
FN:161,_RNvMNtCs86Lp2I5pN1o_13intent_engine5tasksNtB2_11TaskManager20get_task_with_events
FN:825,_RNvMNtCs86Lp2I5pN1o_13intent_engine5tasksNtB2_11TaskManager25check_circular_dependency
FN:19,_RNvMNtCs86Lp2I5pN1o_13intent_engine5tasksNtB2_11TaskManager3new
FN:108,_RNvMNtCs86Lp2I5pN1o_13intent_engine5tasksNtB2_11TaskManager8add_task
FN:144,_RNvMNtCs86Lp2I5pN1o_13intent_engine5tasksNtB2_11TaskManager8get_task
FN:652,_RNvMNtCs86Lp2I5pN1o_13intent_engine5tasksNtB2_11TaskManager9done_task
FN:576,_RNvMNtCs86Lp2I5pN1o_13intent_engine5tasksNtB2_11TaskManager9get_stats
FN:998,_RNvMNtCs86Lp2I5pN1o_13intent_engine5tasksNtB2_11TaskManager9pick_next
FNDA:0,_RNCNvMNtCsjp9E11WtBq9_13intent_engine5tasksNtB4_11TaskManager15pick_next_tasks0B6_
FNDA:0,_RNvMNtCsjp9E11WtBq9_13intent_engine5tasksNtB2_11TaskManager10find_tasks
FNDA:0,_RNvMNtCsjp9E11WtBq9_13intent_engine5tasksNtB2_11TaskManager10start_task
FNDA:0,_RNvMNtCsjp9E11WtBq9_13intent_engine5tasksNtB2_11TaskManager11delete_task
FNDA:0,_RNvMNtCsjp9E11WtBq9_13intent_engine5tasksNtB2_11TaskManager11update_task
FNDA:0,_RNvMNtCsjp9E11WtBq9_13intent_engine5tasksNtB2_11TaskManager13spawn_subtask
FNDA:0,_RNvMNtCsjp9E11WtBq9_13intent_engine5tasksNtB2_11TaskManager14with_websocket
FNDA:0,_RNvMNtCsjp9E11WtBq9_13intent_engine5tasksNtB2_11TaskManager15pick_next_tasks
FNDA:0,_RNvMNtCsjp9E11WtBq9_13intent_engine5tasksNtB2_11TaskManager16get_task_context
FNDA:0,_RNvMNtCsjp9E11WtBq9_13intent_engine5tasksNtB2_11TaskManager17check_task_exists
FNDA:0,_RNvMNtCsjp9E11WtBq9_13intent_engine5tasksNtB2_11TaskManager17get_task_ancestry
FNDA:0,_RNvMNtCsjp9E11WtBq9_13intent_engine5tasksNtB2_11TaskManager17with_mcp_notifier
FNDA:0,_RNvMNtCsjp9E11WtBq9_13intent_engine5tasksNtB2_11TaskManager18get_events_summary
FNDA:1018,_RNvMNtCsjp9E11WtBq9_13intent_engine5tasksNtB2_11TaskManager19notify_task_created
FNDA:0,_RNvMNtCsjp9E11WtBq9_13intent_engine5tasksNtB2_11TaskManager19notify_task_deleted
FNDA:0,_RNvMNtCsjp9E11WtBq9_13intent_engine5tasksNtB2_11TaskManager19notify_task_updated
FNDA:0,_RNvMNtCsjp9E11WtBq9_13intent_engine5tasksNtB2_11TaskManager20get_task_with_events
FNDA:0,_RNvMNtCsjp9E11WtBq9_13intent_engine5tasksNtB2_11TaskManager25check_circular_dependency
FNDA:10,_RNvMNtCsjp9E11WtBq9_13intent_engine5tasksNtB2_11TaskManager3new
FNDA:1018,_RNvMNtCsjp9E11WtBq9_13intent_engine5tasksNtB2_11TaskManager8add_task
FNDA:1018,_RNvMNtCsjp9E11WtBq9_13intent_engine5tasksNtB2_11TaskManager8get_task
FNDA:0,_RNvMNtCsjp9E11WtBq9_13intent_engine5tasksNtB2_11TaskManager9done_task
FNDA:0,_RNvMNtCsjp9E11WtBq9_13intent_engine5tasksNtB2_11TaskManager9get_stats
FNDA:0,_RNvMNtCsjp9E11WtBq9_13intent_engine5tasksNtB2_11TaskManager9pick_next
FNDA:0,_RNCNCNvMNtCsjp9E11WtBq9_13intent_engine5tasksNtB6_11TaskManager13spawn_subtask00B8_
FNDA:0,_RNCNCNvMNtCsjp9E11WtBq9_13intent_engine5tasksNtB6_11TaskManager9done_task00B8_
FNDA:0,_RNCNvMNtCsjp9E11WtBq9_13intent_engine5tasksNtB4_11TaskManager10find_tasks0B6_
FNDA:0,_RNCNvMNtCsjp9E11WtBq9_13intent_engine5tasksNtB4_11TaskManager10start_task0B6_
FNDA:0,_RNCNvMNtCsjp9E11WtBq9_13intent_engine5tasksNtB4_11TaskManager11delete_task0B6_
FNDA:0,_RNCNvMNtCsjp9E11WtBq9_13intent_engine5tasksNtB4_11TaskManager11update_task0B6_
FNDA:0,_RNCNvMNtCsjp9E11WtBq9_13intent_engine5tasksNtB4_11TaskManager13spawn_subtask0B6_
FNDA:0,_RNCNvMNtCsjp9E11WtBq9_13intent_engine5tasksNtB4_11TaskManager16get_task_context0B6_
FNDA:0,_RNCNvMNtCsjp9E11WtBq9_13intent_engine5tasksNtB4_11TaskManager17check_task_exists0B6_
FNDA:0,_RNCNvMNtCsjp9E11WtBq9_13intent_engine5tasksNtB4_11TaskManager17get_task_ancestry0B6_
FNDA:0,_RNCNvMNtCsjp9E11WtBq9_13intent_engine5tasksNtB4_11TaskManager18get_events_summary0B6_
FNDA:1018,_RNCNvMNtCsjp9E11WtBq9_13intent_engine5tasksNtB4_11TaskManager19notify_task_created0B6_
FNDA:0,_RNCNvMNtCsjp9E11WtBq9_13intent_engine5tasksNtB4_11TaskManager19notify_task_deleted0B6_
FNDA:0,_RNCNvMNtCsjp9E11WtBq9_13intent_engine5tasksNtB4_11TaskManager19notify_task_updated0B6_
FNDA:0,_RNCNvMNtCsjp9E11WtBq9_13intent_engine5tasksNtB4_11TaskManager20get_task_with_events0B6_
FNDA:0,_RNCNvMNtCsjp9E11WtBq9_13intent_engine5tasksNtB4_11TaskManager25check_circular_dependency0B6_
FNDA:1018,_RNCNvMNtCsjp9E11WtBq9_13intent_engine5tasksNtB4_11TaskManager8add_task0B6_
FNDA:1018,_RNCNvMNtCsjp9E11WtBq9_13intent_engine5tasksNtB4_11TaskManager8get_task0B6_
FNDA:0,_RNCNvMNtCsjp9E11WtBq9_13intent_engine5tasksNtB4_11TaskManager9done_task0B6_
FNDA:0,_RNCNvMNtCsjp9E11WtBq9_13intent_engine5tasksNtB4_11TaskManager9get_stats0B6_
FNDA:0,_RNCNvMNtCsjp9E11WtBq9_13intent_engine5tasksNtB4_11TaskManager9pick_next0B6_
FNDA:1,_RNCNvNtNtCs86Lp2I5pN1o_13intent_engine5tasks5testss_13test_add_task0B7_
FNDA:1,_RNCNvNtNtCs86Lp2I5pN1o_13intent_engine5tasks5testss_13test_get_task0B7_
FNDA:1,_RNCNvNtNtCs86Lp2I5pN1o_13intent_engine5tasks5testss_14test_done_task0B7_
FNDA:1,_RNCNvNtNtCs86Lp2I5pN1o_13intent_engine5tasks5testss_15test_start_task0B7_
FNDA:1,_RNCNvNtNtCs86Lp2I5pN1o_13intent_engine5tasks5testss_16test_delete_task0B7_
FNDA:1,_RNCNvNtNtCs86Lp2I5pN1o_13intent_engine5tasks5testss_18test_spawn_subtask0B7_
FNDA:1,_RNCNvNtNtCs86Lp2I5pN1o_13intent_engine5tasks5testss_20test_get_stats_empty0B7_
FNDA:1,_RNCNvNtNtCs86Lp2I5pN1o_13intent_engine5tasks5testss_21test_update_task_name0B7_
FNDA:1,_RNCNvNtNtCs86Lp2I5pN1o_13intent_engine5tasks5testss_22test_invalid_parent_id0B7_
FNDA:1,_RNCNvNtNtCs86Lp2I5pN1o_13intent_engine5tasks5testss_23test_add_task_with_spec0B7_
FNDA:1,_RNCNvNtNtCs86Lp2I5pN1o_13intent_engine5tasks5testss_23test_get_task_not_found0B7_
FNDA:1,_RNCNvNtNtCs86Lp2I5pN1o_13intent_engine5tasks5testss_23test_pick_next_no_tasks0B7_
FNDA:1,_RNCNvNtNtCs86Lp2I5pN1o_13intent_engine5tasks5testss_23test_update_task_status0B7_
FNDA:1,_RNCNvNtNtCs86Lp2I5pN1o_13intent_engine5tasks5testss_24test_circular_dependency0B7_
FNDA:1,_RNCNvNtNtCs86Lp2I5pN1o_13intent_engine5tasks5testss_25test_add_task_with_parent0B7_
FNDA:1,_RNCNvNtNtCs86Lp2I5pN1o_13intent_engine5tasks5testss_25test_find_tasks_by_parent0B7_
FNDA:1,_RNCNvNtNtCs86Lp2I5pN1o_13intent_engine5tasks5testss_25test_find_tasks_by_status0B7_
FNDA:1,_RNCNvNtNtCs86Lp2I5pN1o_13intent_engine5tasks5testss_25test_get_stats_with_tasks0B7_
FNDA:1,_RNCNvNtNtCs86Lp2I5pN1o_13intent_engine5tasks5testss_25test_get_task_with_events0B7_
FNDA:1,_RNCNvNtNtCs86Lp2I5pN1o_13intent_engine5tasks5testss_26test_pick_next_tasks_basic0B7_
FNDA:1,_RNCNvNtNtCs86Lp2I5pN1o_13intent_engine5tasks5testss_27test_start_task_with_events0B7_
FNDA:1,_RNCNvNtNtCs86Lp2I5pN1o_13intent_engine5tasks5testss_28test_get_task_with_no_events0B7_
FNDA:1,_RNCNvNtNtCs86Lp2I5pN1o_13intent_engine5tasks5testss_28test_pick_next_all_completed0B7_
FNDA:1,_RNCNvNtNtCs86Lp2I5pN1o_13intent_engine5tasks5testss_29test_pick_next_top_level_task0B7_
FNDA:1,_RNCNvNtNtCs86Lp2I5pN1o_13intent_engine5tasks5testss_30test_get_task_with_many_events0B7_
FNDA:1,_RNCNvNtNtCs86Lp2I5pN1o_13intent_engine5tasks5testss_30test_pick_next_focused_subtask0B7_
FNDA:1,_RNCNvNtNtCs86Lp2I5pN1o_13intent_engine5tasks5testss_32test_done_task_no_parent_context0B7_
FNDA:1,_RNCNvNtNtCs86Lp2I5pN1o_13intent_engine5tasks5testss_32test_pick_next_priority_ordering0B7_
FNDA:1,_RNCNvNtNtCs86Lp2I5pN1o_13intent_engine5tasks5testss_32test_pick_next_tasks_at_capacity0B7_
FNDA:1,_RNCNvNtNtCs86Lp2I5pN1o_13intent_engine5tasks5testss_33test_get_task_context_with_parent0B7_
FNDA:1,_RNCNvNtNtCs86Lp2I5pN1o_13intent_engine5tasks5testss_33test_multiple_doing_tasks_allowed0B7_
FNDA:1,_RNCNvNtNtCs86Lp2I5pN1o_13intent_engine5tasks5testss_33test_pick_next_no_available_todos0B7_
FNDA:1,_RNCNvNtNtCs86Lp2I5pN1o_13intent_engine5tasks5testss_34test_pick_next_tasks_zero_capacity0B7_
FNDA:1,_RNCNvNtNtCs86Lp2I5pN1o_13intent_engine5tasks5testss_34test_spawn_subtask_no_current_task0B7_
FNDA:1,_RNCNvNtNtCs86Lp2I5pN1o_13intent_engine5tasks5testss_35test_done_task_sibling_tasks_remain0B7_
FNDA:1,_RNCNvNtNtCs86Lp2I5pN1o_13intent_engine5tasks5testss_35test_get_task_context_with_children0B7_
FNDA:1,_RNCNvNtNtCs86Lp2I5pN1o_13intent_engine5tasks5testss_35test_get_task_context_with_siblings0B7_
FNDA:1,_RNCNvNtNtCs86Lp2I5pN1o_13intent_engine5tasks5testss_35test_pick_next_tasks_priority_order0B7_
FNDA:1,_RNCNvNtNtCs86Lp2I5pN1o_13intent_engine5tasks5testss_37test_get_task_with_events_nonexistent0B7_
FNDA:1,_RNCNvNtNtCs86Lp2I5pN1o_13intent_engine5tasks5testss_38test_done_task_top_level_with_children0B7_
FNDA:1,_RNCNvNtNtCs86Lp2I5pN1o_13intent_engine5tasks5testss_38test_done_task_with_completed_children0B7_
FNDA:1,_RNCNvNtNtCs86Lp2I5pN1o_13intent_engine5tasks5testss_38test_get_task_context_nonexistent_task0B7_
FNDA:1,_RNCNvNtNtCs86Lp2I5pN1o_13intent_engine5tasks5testss_38test_pick_next_prefers_doing_over_todo0B7_
FNDA:1,_RNCNvNtNtCs86Lp2I5pN1o_13intent_engine5tasks5testss_38test_pick_next_tasks_priority_ordering0B7_
FNDA:1,_RNCNvNtNtCs86Lp2I5pN1o_13intent_engine5tasks5testss_40test_done_task_with_uncompleted_children0B7_
FNDA:1,_RNCNvNtNtCs86Lp2I5pN1o_13intent_engine5tasks5testss_40test_pick_next_tasks_complexity_ordering0B7_
FNDA:1,_RNCNvNtNtCs86Lp2I5pN1o_13intent_engine5tasks5testss_40test_pick_next_tasks_with_existing_doing0B7_
FNDA:1,_RNCNvNtNtCs86Lp2I5pN1o_13intent_engine5tasks5testss_40test_update_task_complexity_and_priority0B7_
FNDA:1,_RNCNvNtNtCs86Lp2I5pN1o_13intent_engine5tasks5testss_41test_get_task_context_complex_family_tree0B7_
FNDA:1,_RNCNvNtNtCs86Lp2I5pN1o_13intent_engine5tasks5testss_43test_get_task_context_handles_null_priority0B7_
FNDA:1,_RNCNvNtNtCs86Lp2I5pN1o_13intent_engine5tasks5testss_43test_get_task_context_multi_level_hierarchy0B7_
FNDA:1,_RNCNvNtNtCs86Lp2I5pN1o_13intent_engine5tasks5testss_44test_get_task_context_root_task_no_relations0B7_
FNDA:1,_RNCNvNtNtCs86Lp2I5pN1o_13intent_engine5tasks5testss_47test_pick_next_tasks_capacity_exceeds_available0B7_
FNDA:1,_RNCNvNtNtCs86Lp2I5pN1o_13intent_engine5tasks5testss_48test_get_task_context_respects_priority_ordering0B7_
FNDA:1,_RNCNvNtNtCs86Lp2I5pN1o_13intent_engine5tasks5testss_55test_pick_next_falls_back_to_top_level_when_no_subtasks0B7_
FNDA:1,_RNvNtNtCs86Lp2I5pN1o_13intent_engine5tasks5testss_13test_add_task
FNDA:1,_RNvNtNtCs86Lp2I5pN1o_13intent_engine5tasks5testss_13test_get_task
FNDA:1,_RNvNtNtCs86Lp2I5pN1o_13intent_engine5tasks5testss_14test_done_task
FNDA:1,_RNvNtNtCs86Lp2I5pN1o_13intent_engine5tasks5testss_15test_start_task
FNDA:1,_RNvNtNtCs86Lp2I5pN1o_13intent_engine5tasks5testss_16test_delete_task
FNDA:1,_RNvNtNtCs86Lp2I5pN1o_13intent_engine5tasks5testss_18test_spawn_subtask
FNDA:1,_RNvNtNtCs86Lp2I5pN1o_13intent_engine5tasks5testss_20test_get_stats_empty
FNDA:1,_RNvNtNtCs86Lp2I5pN1o_13intent_engine5tasks5testss_21test_update_task_name
FNDA:1,_RNvNtNtCs86Lp2I5pN1o_13intent_engine5tasks5testss_22test_invalid_parent_id
FNDA:1,_RNvNtNtCs86Lp2I5pN1o_13intent_engine5tasks5testss_23test_add_task_with_spec
FNDA:1,_RNvNtNtCs86Lp2I5pN1o_13intent_engine5tasks5testss_23test_get_task_not_found
FNDA:1,_RNvNtNtCs86Lp2I5pN1o_13intent_engine5tasks5testss_23test_pick_next_no_tasks
FNDA:1,_RNvNtNtCs86Lp2I5pN1o_13intent_engine5tasks5testss_23test_update_task_status
FNDA:1,_RNvNtNtCs86Lp2I5pN1o_13intent_engine5tasks5testss_24test_circular_dependency
FNDA:1,_RNvNtNtCs86Lp2I5pN1o_13intent_engine5tasks5testss_25test_add_task_with_parent
FNDA:1,_RNvNtNtCs86Lp2I5pN1o_13intent_engine5tasks5testss_25test_find_tasks_by_parent
FNDA:1,_RNvNtNtCs86Lp2I5pN1o_13intent_engine5tasks5testss_25test_find_tasks_by_status
FNDA:1,_RNvNtNtCs86Lp2I5pN1o_13intent_engine5tasks5testss_25test_get_stats_with_tasks
FNDA:1,_RNvNtNtCs86Lp2I5pN1o_13intent_engine5tasks5testss_25test_get_task_with_events
FNDA:1,_RNvNtNtCs86Lp2I5pN1o_13intent_engine5tasks5testss_26test_pick_next_tasks_basic
FNDA:1,_RNvNtNtCs86Lp2I5pN1o_13intent_engine5tasks5testss_27test_start_task_with_events
FNDA:1,_RNvNtNtCs86Lp2I5pN1o_13intent_engine5tasks5testss_28test_get_task_with_no_events
FNDA:1,_RNvNtNtCs86Lp2I5pN1o_13intent_engine5tasks5testss_28test_pick_next_all_completed
FNDA:1,_RNvNtNtCs86Lp2I5pN1o_13intent_engine5tasks5testss_29test_pick_next_top_level_task
FNDA:1,_RNvNtNtCs86Lp2I5pN1o_13intent_engine5tasks5testss_30test_get_task_with_many_events
FNDA:1,_RNvNtNtCs86Lp2I5pN1o_13intent_engine5tasks5testss_30test_pick_next_focused_subtask
FNDA:1,_RNvNtNtCs86Lp2I5pN1o_13intent_engine5tasks5testss_32test_done_task_no_parent_context
FNDA:1,_RNvNtNtCs86Lp2I5pN1o_13intent_engine5tasks5testss_32test_pick_next_priority_ordering
FNDA:1,_RNvNtNtCs86Lp2I5pN1o_13intent_engine5tasks5testss_32test_pick_next_tasks_at_capacity
FNDA:1,_RNvNtNtCs86Lp2I5pN1o_13intent_engine5tasks5testss_33test_get_task_context_with_parent
FNDA:1,_RNvNtNtCs86Lp2I5pN1o_13intent_engine5tasks5testss_33test_multiple_doing_tasks_allowed
FNDA:1,_RNvNtNtCs86Lp2I5pN1o_13intent_engine5tasks5testss_33test_pick_next_no_available_todos
FNDA:1,_RNvNtNtCs86Lp2I5pN1o_13intent_engine5tasks5testss_34test_pick_next_tasks_zero_capacity
FNDA:1,_RNvNtNtCs86Lp2I5pN1o_13intent_engine5tasks5testss_34test_spawn_subtask_no_current_task
FNDA:1,_RNvNtNtCs86Lp2I5pN1o_13intent_engine5tasks5testss_35test_done_task_sibling_tasks_remain
FNDA:1,_RNvNtNtCs86Lp2I5pN1o_13intent_engine5tasks5testss_35test_get_task_context_with_children
FNDA:1,_RNvNtNtCs86Lp2I5pN1o_13intent_engine5tasks5testss_35test_get_task_context_with_siblings
FNDA:1,_RNvNtNtCs86Lp2I5pN1o_13intent_engine5tasks5testss_35test_pick_next_tasks_priority_order
FNDA:1,_RNvNtNtCs86Lp2I5pN1o_13intent_engine5tasks5testss_37test_get_task_with_events_nonexistent
FNDA:1,_RNvNtNtCs86Lp2I5pN1o_13intent_engine5tasks5testss_38test_done_task_top_level_with_children
FNDA:1,_RNvNtNtCs86Lp2I5pN1o_13intent_engine5tasks5testss_38test_done_task_with_completed_children
FNDA:1,_RNvNtNtCs86Lp2I5pN1o_13intent_engine5tasks5testss_38test_get_task_context_nonexistent_task
FNDA:1,_RNvNtNtCs86Lp2I5pN1o_13intent_engine5tasks5testss_38test_pick_next_prefers_doing_over_todo
FNDA:1,_RNvNtNtCs86Lp2I5pN1o_13intent_engine5tasks5testss_38test_pick_next_tasks_priority_ordering
FNDA:1,_RNvNtNtCs86Lp2I5pN1o_13intent_engine5tasks5testss_40test_done_task_with_uncompleted_children
FNDA:1,_RNvNtNtCs86Lp2I5pN1o_13intent_engine5tasks5testss_40test_pick_next_tasks_complexity_ordering
FNDA:1,_RNvNtNtCs86Lp2I5pN1o_13intent_engine5tasks5testss_40test_pick_next_tasks_with_existing_doing
FNDA:1,_RNvNtNtCs86Lp2I5pN1o_13intent_engine5tasks5testss_40test_update_task_complexity_and_priority
FNDA:1,_RNvNtNtCs86Lp2I5pN1o_13intent_engine5tasks5testss_41test_get_task_context_complex_family_tree
FNDA:1,_RNvNtNtCs86Lp2I5pN1o_13intent_engine5tasks5testss_43test_get_task_context_handles_null_priority
FNDA:1,_RNvNtNtCs86Lp2I5pN1o_13intent_engine5tasks5testss_43test_get_task_context_multi_level_hierarchy
FNDA:1,_RNvNtNtCs86Lp2I5pN1o_13intent_engine5tasks5testss_44test_get_task_context_root_task_no_relations
FNDA:1,_RNvNtNtCs86Lp2I5pN1o_13intent_engine5tasks5testss_47test_pick_next_tasks_capacity_exceeds_available
FNDA:1,_RNvNtNtCs86Lp2I5pN1o_13intent_engine5tasks5testss_48test_get_task_context_respects_priority_ordering
FNDA:1,_RNvNtNtCs86Lp2I5pN1o_13intent_engine5tasks5testss_55test_pick_next_falls_back_to_top_level_when_no_subtasks
FNDA:2,_RNCNCNvMNtCs86Lp2I5pN1o_13intent_engine5tasksNtB6_11TaskManager13spawn_subtask00B8_
FNDA:13,_RNCNCNvMNtCs86Lp2I5pN1o_13intent_engine5tasksNtB6_11TaskManager9done_task00B8_
FNDA:15,_RNCNvMNtCs86Lp2I5pN1o_13intent_engine5tasksNtB4_11TaskManager10find_tasks0B6_
FNDA:43,_RNCNvMNtCs86Lp2I5pN1o_13intent_engine5tasksNtB4_11TaskManager10start_task0B6_
FNDA:3,_RNCNvMNtCs86Lp2I5pN1o_13intent_engine5tasksNtB4_11TaskManager11delete_task0B6_
FNDA:33,_RNCNvMNtCs86Lp2I5pN1o_13intent_engine5tasksNtB4_11TaskManager11update_task0B6_
FNDA:3,_RNCNvMNtCs86Lp2I5pN1o_13intent_engine5tasksNtB4_11TaskManager13spawn_subtask0B6_
FNDA:9,_RNCNvMNtCs86Lp2I5pN1o_13intent_engine5tasksNtB4_11TaskManager15pick_next_tasks0B6_
FNDA:12,_RNCNvMNtCs86Lp2I5pN1o_13intent_engine5tasksNtB4_11TaskManager16get_task_context0B6_
FNDA:45,_RNCNvMNtCs86Lp2I5pN1o_13intent_engine5tasksNtB4_11TaskManager17check_task_exists0B6_
FNDA:0,_RNCNvMNtCs86Lp2I5pN1o_13intent_engine5tasksNtB4_11TaskManager17get_task_ancestry0B6_
FNDA:6,_RNCNvMNtCs86Lp2I5pN1o_13intent_engine5tasksNtB4_11TaskManager18get_events_summary0B6_
FNDA:223,_RNCNvMNtCs86Lp2I5pN1o_13intent_engine5tasksNtB4_11TaskManager19notify_task_created0B6_
FNDA:3,_RNCNvMNtCs86Lp2I5pN1o_13intent_engine5tasksNtB4_11TaskManager19notify_task_deleted0B6_
FNDA:84,_RNCNvMNtCs86Lp2I5pN1o_13intent_engine5tasksNtB4_11TaskManager19notify_task_updated0B6_
FNDA:7,_RNCNvMNtCs86Lp2I5pN1o_13intent_engine5tasksNtB4_11TaskManager20get_task_with_events0B6_
FNDA:1,_RNCNvMNtCs86Lp2I5pN1o_13intent_engine5tasksNtB4_11TaskManager25check_circular_dependency0B6_
FNDA:224,_RNCNvMNtCs86Lp2I5pN1o_13intent_engine5tasksNtB4_11TaskManager8add_task0B6_
FNDA:378,_RNCNvMNtCs86Lp2I5pN1o_13intent_engine5tasksNtB4_11TaskManager8get_task0B6_
FNDA:13,_RNCNvMNtCs86Lp2I5pN1o_13intent_engine5tasksNtB4_11TaskManager9done_task0B6_
FNDA:3,_RNCNvMNtCs86Lp2I5pN1o_13intent_engine5tasksNtB4_11TaskManager9get_stats0B6_
FNDA:10,_RNCNvMNtCs86Lp2I5pN1o_13intent_engine5tasksNtB4_11TaskManager9pick_next0B6_
FNDA:15,_RNvMNtCs86Lp2I5pN1o_13intent_engine5tasksNtB2_11TaskManager10find_tasks
FNDA:43,_RNvMNtCs86Lp2I5pN1o_13intent_engine5tasksNtB2_11TaskManager10start_task
FNDA:3,_RNvMNtCs86Lp2I5pN1o_13intent_engine5tasksNtB2_11TaskManager11delete_task
FNDA:33,_RNvMNtCs86Lp2I5pN1o_13intent_engine5tasksNtB2_11TaskManager11update_task
FNDA:3,_RNvMNtCs86Lp2I5pN1o_13intent_engine5tasksNtB2_11TaskManager13spawn_subtask
FNDA:0,_RNvMNtCs86Lp2I5pN1o_13intent_engine5tasksNtB2_11TaskManager14with_websocket
FNDA:9,_RNvMNtCs86Lp2I5pN1o_13intent_engine5tasksNtB2_11TaskManager15pick_next_tasks
FNDA:12,_RNvMNtCs86Lp2I5pN1o_13intent_engine5tasksNtB2_11TaskManager16get_task_context
FNDA:45,_RNvMNtCs86Lp2I5pN1o_13intent_engine5tasksNtB2_11TaskManager17check_task_exists
FNDA:0,_RNvMNtCs86Lp2I5pN1o_13intent_engine5tasksNtB2_11TaskManager17get_task_ancestry
FNDA:0,_RNvMNtCs86Lp2I5pN1o_13intent_engine5tasksNtB2_11TaskManager17with_mcp_notifier
FNDA:6,_RNvMNtCs86Lp2I5pN1o_13intent_engine5tasksNtB2_11TaskManager18get_events_summary
FNDA:223,_RNvMNtCs86Lp2I5pN1o_13intent_engine5tasksNtB2_11TaskManager19notify_task_created
FNDA:3,_RNvMNtCs86Lp2I5pN1o_13intent_engine5tasksNtB2_11TaskManager19notify_task_deleted
FNDA:84,_RNvMNtCs86Lp2I5pN1o_13intent_engine5tasksNtB2_11TaskManager19notify_task_updated
FNDA:7,_RNvMNtCs86Lp2I5pN1o_13intent_engine5tasksNtB2_11TaskManager20get_task_with_events
FNDA:1,_RNvMNtCs86Lp2I5pN1o_13intent_engine5tasksNtB2_11TaskManager25check_circular_dependency
FNDA:148,_RNvMNtCs86Lp2I5pN1o_13intent_engine5tasksNtB2_11TaskManager3new
FNDA:224,_RNvMNtCs86Lp2I5pN1o_13intent_engine5tasksNtB2_11TaskManager8add_task
FNDA:378,_RNvMNtCs86Lp2I5pN1o_13intent_engine5tasksNtB2_11TaskManager8get_task
FNDA:13,_RNvMNtCs86Lp2I5pN1o_13intent_engine5tasksNtB2_11TaskManager9done_task
FNDA:3,_RNvMNtCs86Lp2I5pN1o_13intent_engine5tasksNtB2_11TaskManager9get_stats
FNDA:10,_RNvMNtCs86Lp2I5pN1o_13intent_engine5tasksNtB2_11TaskManager9pick_next
FNF:155
FNH:151
DA:19,158
DA:20,158
DA:21,158
DA:22,158
DA:23,158
DA:24,158
DA:25,158
DA:28,0
DA:29,0
DA:30,0
DA:31,0
DA:32,0
DA:33,0
DA:34,0
DA:35,0
DA:36,0
DA:37,0
DA:38,0
DA:41,0
DA:42,0
DA:43,0
DA:44,0
DA:45,0
DA:46,0
DA:47,0
DA:48,0
DA:49,0
DA:50,0
DA:51,0
DA:54,1241
DA:57,1241
DA:58,1241
DA:61,0
DA:62,0
DA:63,0
DA:64,0
DA:65,0
DA:69,0
DA:70,0
DA:71,0
DA:72,1241
DA:75,84
DA:78,84
DA:79,84
DA:82,0
DA:83,0
DA:84,0
DA:85,0
DA:86,0
DA:90,0
DA:91,0
DA:92,0
DA:93,84
DA:96,3
DA:99,3
DA:100,3
DA:103,0
DA:104,0
DA:105,3
DA:108,1242
DA:109,1242
DA:110,1242
DA:111,1242
DA:112,1242
DA:113,1242
DA:115,1242
DA:116,41
DA:117,1201
DA:119,1241
DA:121,1241
DA:122,1241
DA:123,1241
DA:124,1241
DA:125,1241
DA:126,1241
DA:127,1241
DA:128,1241
DA:129,1241
DA:130,1241
DA:131,1241
DA:132,1241
DA:134,1241
DA:135,1241
DA:138,1241
DA:140,1241
DA:141,1242
DA:144,1396
DA:145,1396
DA:146,1396
DA:147,1396
DA:148,1396
DA:149,1396
DA:150,1396
DA:151,1396
DA:152,1396
DA:153,1396
DA:154,1396
DA:155,1396
DA:157,1391
DA:158,1396
DA:161,7
DA:162,7
DA:163,6
DA:165,6
DA:166,6
DA:167,6
DA:168,6
DA:169,7
DA:179,0
DA:180,0
DA:181,0
DA:183,0
DA:184,0
DA:185,0
DA:186,0
DA:189,0
DA:190,0
DA:199,12
DA:201,12
DA:204,11
DA:205,11
DA:207,17
DA:208,6
DA:209,6
DA:210,6
DA:214,11
DA:215,4
DA:216,4
DA:217,4
DA:218,4
DA:219,4
DA:220,4
DA:221,4
DA:222,4
DA:223,4
DA:224,4
DA:225,4
DA:226,4
DA:227,4
DA:230,7
DA:231,7
DA:232,7
DA:233,7
DA:234,7
DA:235,7
DA:236,7
DA:237,7
DA:238,7
DA:239,7
DA:240,7
DA:241,7
DA:245,11
DA:246,11
DA:247,11
DA:248,11
DA:249,11
DA:250,11
DA:251,11
DA:252,11
DA:253,11
DA:254,11
DA:255,11
DA:256,11
DA:259,11
DA:260,11
DA:261,11
DA:262,11
DA:263,11
DA:264,11
DA:265,11
DA:266,11
DA:267,11
DA:268,11
DA:269,11
DA:270,11
DA:271,11
DA:274,11
DA:275,11
DA:276,11
DA:277,11
DA:278,11
DA:279,11
DA:280,11
DA:281,11
DA:282,11
DA:283,11
DA:284,11
DA:285,11
DA:286,11
DA:288,11
DA:289,11
DA:290,11
DA:291,11
DA:292,11
DA:293,11
DA:294,11
DA:295,11
DA:296,11
DA:297,11
DA:298,12
DA:301,6
DA:302,6
DA:303,6
DA:304,6
DA:305,6
DA:307,6
DA:308,6
DA:309,6
DA:310,6
DA:311,6
DA:312,6
DA:313,6
DA:314,6
DA:315,6
DA:316,6
DA:317,6
DA:318,6
DA:320,6
DA:321,6
DA:322,6
DA:323,6
DA:324,6
DA:328,33
DA:329,33
DA:330,33
DA:331,33
DA:332,33
DA:333,33
DA:334,33
DA:335,33
DA:336,33
DA:337,33
DA:339,33
DA:342,33
DA:343,6
DA:344,0
DA:345,6
DA:346,27
DA:349,1
DA:350,1
DA:351,0
DA:352,0
DA:353,0
DA:354,0
DA:355,1
DA:356,1
DA:357,1
DA:358,32
DA:361,32
DA:362,32
DA:363,32
DA:365,32
DA:366,2
DA:367,0
DA:368,2
DA:369,2
DA:370,2
DA:371,30
DA:373,32
DA:374,1
DA:375,1
DA:376,1
DA:377,1
DA:378,1
DA:379,31
DA:381,32
DA:382,0
DA:383,0
DA:384,0
DA:385,0
DA:386,0
DA:387,0
DA:388,0
DA:389,0
DA:390,0
DA:391,0
DA:393,0
DA:394,32
DA:396,32
DA:397,4
DA:398,0
DA:399,4
DA:400,4
DA:401,4
DA:402,28
DA:404,32
DA:405,24
DA:406,4
DA:407,20
DA:408,24
DA:409,24
DA:410,8
DA:412,32
DA:413,6
DA:414,0
DA:415,6
DA:416,6
DA:417,6
DA:420,6
DA:421,6
DA:422,2
DA:423,6
DA:424,0
DA:425,0
DA:426,6
DA:427,4
DA:428,4
DA:429,2
DA:430,2
DA:431,2
DA:432,0
DA:434,26
DA:436,32
DA:437,0
DA:438,32
DA:440,32
DA:442,32
DA:444,32
DA:447,32
DA:449,32
DA:450,33
DA:453,3
DA:454,3
DA:456,3
DA:457,3
DA:458,3
DA:459,3
DA:462,3
DA:464,3
DA:465,3
DA:468,15
DA:469,15
DA:470,15
DA:471,15
DA:472,15
DA:473,15
DA:474,15
DA:475,15
DA:477,15
DA:478,15
DA:479,15
DA:482,15
DA:483,15
DA:485,15
DA:486,5
DA:487,5
DA:488,10
DA:490,15
DA:491,8
DA:492,7
DA:493,7
DA:494,7
DA:495,1
DA:496,1
DA:497,7
DA:500,15
DA:503,0
DA:507,1
DA:508,1
DA:512,0
DA:513,0
DA:514,0
DA:515,0
DA:516,0
DA:517,0
DA:518,0
DA:519,0
DA:523,14
DA:524,14
DA:525,14
DA:526,14
DA:527,14
DA:528,14
DA:529,14
DA:530,14
DA:531,14
DA:532,14
DA:533,14
DA:538,15
DA:539,15
DA:540,27
DA:541,12
DA:542,12
DA:543,15
DA:546,15
DA:547,15
DA:551,15
DA:552,27
DA:553,12
DA:554,12
DA:555,15
DA:556,15
DA:558,15
DA:561,15
DA:563,15
DA:564,15
DA:565,15
DA:566,15
DA:567,15
DA:568,15
DA:569,15
DA:570,15
DA:576,3
DA:577,3
DA:578,3
DA:579,3
DA:580,3
DA:581,3
DA:582,3
DA:583,3
DA:584,3
DA:585,3
DA:586,3
DA:588,3
DA:589,3
DA:590,3
DA:591,3
DA:592,3
DA:593,3
DA:594,3
DA:597,43
DA:600,43
DA:601,0
DA:602,0
DA:603,0
DA:604,0
DA:605,43
DA:607,43
DA:609,43
DA:612,43
DA:613,43
DA:614,43
DA:615,43
DA:616,43
DA:617,43
DA:618,43
DA:619,43
DA:620,43
DA:621,43
DA:622,43
DA:625,43
DA:626,43
DA:627,43
DA:628,43
DA:629,43
DA:630,43
DA:631,43
DA:632,43
DA:633,43
DA:635,43
DA:637,43
DA:638,2
DA:640,41
DA:641,40
DA:642,40
DA:643,40
DA:644,40
DA:645,40
DA:647,43
DA:652,13
DA:653,13
DA:656,13
DA:657,13
DA:658,13
DA:659,13
DA:661,13
DA:662,13
DA:663,13
DA:664,13
DA:665,0
DA:668,13
DA:669,13
DA:670,13
DA:671,13
DA:672,13
DA:673,13
DA:676,13
DA:677,13
DA:678,13
DA:679,13
DA:680,13
DA:681,13
DA:683,13
DA:684,1
DA:685,12
DA:687,12
DA:690,12
DA:691,12
DA:692,12
DA:693,12
DA:694,12
DA:695,12
DA:696,12
DA:697,12
DA:698,12
DA:699,12
DA:700,12
DA:703,12
DA:704,12
DA:705,12
DA:708,12
DA:710,4
DA:711,4
DA:712,4
DA:713,4
DA:714,4
DA:715,4
DA:716,4
DA:718,4
DA:720,2
DA:721,2
DA:722,2
DA:723,2
DA:724,2
DA:726,2
DA:727,2
DA:728,2
DA:729,2
DA:730,2
DA:731,2
DA:732,2
DA:733,2
DA:736,2
DA:737,2
DA:738,2
DA:739,2
DA:740,2
DA:742,2
DA:743,2
DA:744,2
DA:745,2
DA:746,2
DA:747,2
DA:748,2
DA:749,2
DA:750,2
DA:754,8
DA:755,8
DA:756,8
DA:757,8
DA:759,8
DA:761,2
DA:762,2
DA:763,2
DA:764,2
DA:765,2
DA:766,2
DA:767,2
DA:768,2
DA:771,6
DA:772,6
DA:773,6
DA:774,6
DA:775,6
DA:776,6
DA:778,6
DA:779,4
DA:780,4
DA:781,4
DA:782,4
DA:783,4
DA:784,4
DA:785,4
DA:787,2
DA:788,2
DA:789,2
DA:790,2
DA:791,2
DA:796,12
DA:798,12
DA:799,12
DA:801,12
DA:802,12
DA:803,12
DA:804,12
DA:805,12
DA:806,12
DA:807,12
DA:808,13
DA:811,45
DA:812,45
DA:813,45
DA:814,45
DA:815,45
DA:817,45
DA:818,1
DA:819,44
DA:821,44
DA:822,45
DA:825,1
DA:826,1
DA:829,2
DA:830,1
DA:831,1
DA:832,1
DA:833,1
DA:834,1
DA:836,1
DA:837,1
DA:838,1
DA:839,1
DA:840,1
DA:842,1
DA:843,1
DA:844,0
DA:848,0
DA:849,1
DA:853,3
DA:854,3
DA:855,3
DA:856,3
DA:857,3
DA:859,3
DA:860,3
DA:861,3
DA:862,3
DA:864,3
DA:865,3
DA:866,1
DA:869,2
DA:870,2
DA:871,2
DA:872,2
DA:875,2
DA:879,2
DA:881,2
DA:882,2
DA:883,2
DA:884,2
DA:885,2
DA:886,2
DA:887,2
DA:888,2
DA:889,2
DA:890,2
DA:891,2
DA:892,2
DA:893,3
DA:907,9
DA:908,9
DA:909,9
DA:910,9
DA:911,9
DA:912,9
DA:915,9
DA:916,9
DA:917,9
DA:920,9
DA:921,9
DA:922,2
DA:923,7
DA:925,7
DA:928,7
DA:929,7
DA:930,7
DA:931,7
DA:932,7
DA:933,7
DA:934,7
DA:935,7
DA:936,7
DA:937,7
DA:938,7
DA:939,7
DA:940,7
DA:941,7
DA:942,7
DA:944,7
DA:945,0
DA:946,7
DA:948,7
DA:951,32
DA:952,25
DA:953,25
DA:954,25
DA:955,25
DA:956,25
DA:957,25
DA:958,25
DA:959,25
DA:960,25
DA:961,25
DA:962,25
DA:963,25
DA:966,7
DA:969,7
DA:970,7
DA:971,7
DA:972,7
DA:973,7
DA:974,7
DA:975,7
DA:976,7
DA:977,7
DA:981,7
DA:982,32
DA:983,25
DA:984,25
DA:986,7
DA:987,7
DA:988,9
DA:998,10
DA:1000,10
DA:1001,10
DA:1002,10
DA:1003,10
DA:1005,10
DA:1006,5
DA:1009,5
DA:1010,5
DA:1011,5
DA:1012,5
DA:1013,5
DA:1014,5
DA:1015,5
DA:1016,5
DA:1017,5
DA:1018,5
DA:1019,5
DA:1020,5
DA:1021,5
DA:1022,5
DA:1023,5
DA:1024,5
DA:1025,5
DA:1026,5
DA:1027,5
DA:1029,5
DA:1030,1
DA:1031,4
DA:1034,4
DA:1035,4
DA:1036,4
DA:1037,4
DA:1038,4
DA:1039,4
DA:1040,4
DA:1041,4
DA:1042,4
DA:1043,4
DA:1044,4
DA:1045,4
DA:1046,4
DA:1047,4
DA:1048,4
DA:1049,4
DA:1050,4
DA:1051,4
DA:1052,4
DA:1054,4
DA:1055,2
DA:1056,2
DA:1057,0
DA:1058,5
DA:1062,7
DA:1063,2
DA:1064,2
DA:1065,2
DA:1066,2
DA:1067,2
DA:1068,2
DA:1069,2
DA:1070,2
DA:1071,2
DA:1072,2
DA:1073,2
DA:1074,2
DA:1075,2
DA:1076,2
DA:1077,2
DA:1078,2
DA:1079,2
DA:1080,2
DA:1081,2
DA:1082,2
DA:1084,0
DA:1087,5
DA:1088,5
DA:1089,5
DA:1090,5
DA:1091,5
DA:1092,5
DA:1093,5
DA:1094,5
DA:1095,5
DA:1096,5
DA:1097,5
DA:1098,5
DA:1099,5
DA:1100,5
DA:1101,5
DA:1102,5
DA:1103,5
DA:1104,5
DA:1107,7
DA:1108,1
DA:1109,6
DA:1113,6
DA:1114,6
DA:1115,6
DA:1116,6
DA:1117,6
DA:1118,6
DA:1119,6
DA:1120,6
DA:1121,6
DA:1122,6
DA:1123,6
DA:1124,6
DA:1125,6
DA:1126,6
DA:1127,6
DA:1128,6
DA:1129,6
DA:1130,6
DA:1132,6
DA:1133,4
DA:1134,2
DA:1138,2
DA:1139,2
DA:1140,2
DA:1142,2
DA:1143,1
DA:1144,1
DA:1147,1
DA:1148,1
DA:1149,1
DA:1150,1
DA:1152,1
DA:1153,1
DA:1154,0
DA:1157,0
DA:1158,10
DA:1169,1
DA:1170,1
DA:1171,1
DA:1173,1
DA:1175,1
DA:1176,1
DA:1177,1
DA:1178,1
DA:1179,1
DA:1182,1
DA:1183,1
DA:1184,1
DA:1187,1
DA:1188,1
DA:1189,1
DA:1192,1
DA:1193,1
DA:1194,1
DA:1195,1
DA:1196,1
DA:1197,1
DA:1198,1
DA:1199,1
DA:1202,1
DA:1204,1
DA:1205,1
DA:1206,1
DA:1207,1
DA:1208,1
DA:1211,1
DA:1212,1
DA:1213,1
DA:1215,1
DA:1217,1
DA:1218,1
DA:1219,1
DA:1220,1
DA:1221,1
DA:1222,1
DA:1225,1
DA:1226,1
DA:1227,1
DA:1229,1
DA:1230,1
DA:1231,1
DA:1232,1
DA:1233,1
DA:1235,1
DA:1236,1
DA:1237,1
DA:1240,1
DA:1241,1
DA:1242,1
DA:1244,1
DA:1245,1
DA:1246,1
DA:1247,1
DA:1248,1
DA:1250,1
DA:1251,1
DA:1254,1
DA:1255,1
DA:1256,1
DA:1258,1
DA:1259,1
DA:1261,1
DA:1262,1
DA:1263,1
DA:1266,1
DA:1267,1
DA:1268,1
DA:1270,1
DA:1271,1
DA:1272,1
DA:1275,1
DA:1276,1
DA:1277,1
DA:1279,1
DA:1280,1
DA:1281,1
DA:1282,1
DA:1283,1
DA:1285,1
DA:1286,1
DA:1289,1
DA:1290,1
DA:1291,1
DA:1293,1
DA:1294,1
DA:1295,1
DA:1296,1
DA:1297,1
DA:1299,1
DA:1300,1
DA:1301,1
DA:1304,1
DA:1305,1
DA:1306,1
DA:1308,1
DA:1309,1
DA:1311,1
DA:1312,1
DA:1313,1
DA:1316,1
DA:1317,1
DA:1318,1
DA:1320,1
DA:1321,1
DA:1322,1
DA:1323,1
DA:1324,1
DA:1325,1
DA:1327,1
DA:1328,1
DA:1329,1
DA:1330,1
DA:1331,1
DA:1332,1
DA:1333,1
DA:1334,1
DA:1336,1
DA:1337,1
DA:1338,1
DA:1339,1
DA:1342,1
DA:1343,1
DA:1344,1
DA:1346,1
DA:1347,1
DA:1348,1
DA:1349,1
DA:1350,1
DA:1351,1
DA:1352,1
DA:1353,1
DA:1354,1
DA:1356,1
DA:1357,1
DA:1358,1
DA:1359,1
DA:1361,1
DA:1362,1
DA:1365,1
DA:1366,1
DA:1367,1
DA:1369,1
DA:1370,1
DA:1372,1
DA:1373,1
DA:1376,1
DA:1377,1
DA:1378,1
DA:1379,1
DA:1380,1
DA:1382,1
DA:1383,1
DA:1386,1
DA:1387,1
DA:1388,1
DA:1390,1
DA:1393,1
DA:1394,1
DA:1395,1
DA:1396,1
DA:1397,1
DA:1398,1
DA:1399,1
DA:1401,1
DA:1403,1
DA:1404,1
DA:1405,1
DA:1406,1
DA:1409,1
DA:1410,1
DA:1411,1
DA:1413,1
DA:1414,1
DA:1415,1
DA:1417,1
DA:1418,1
DA:1419,1
DA:1422,1
DA:1423,1
DA:1424,0
DA:1428,1
DA:1429,1
DA:1430,1
DA:1431,1
DA:1432,1
DA:1434,1
DA:1435,1
DA:1438,1
DA:1439,1
DA:1440,1
DA:1442,1
DA:1443,1
DA:1444,1
DA:1445,1
DA:1446,1
DA:1449,1
DA:1451,1
DA:1452,1
DA:1453,1
DA:1456,1
DA:1457,1
DA:1458,1
DA:1460,1
DA:1461,1
DA:1462,1
DA:1463,1
DA:1464,1
DA:1467,1
DA:1468,1
DA:1471,1
DA:1472,1
DA:1473,1
DA:1475,0
DA:1479,1
DA:1480,1
DA:1481,1
DA:1484,1
DA:1485,1
DA:1486,1
DA:1487,1
DA:1488,1
DA:1491,1
DA:1492,1
DA:1493,1
DA:1495,1
DA:1496,1
DA:1497,1
DA:1498,1
DA:1499,1
DA:1502,1
DA:1503,1
DA:1504,1
DA:1506,1
DA:1507,1
DA:1508,1
DA:1509,1
DA:1510,1
DA:1513,1
DA:1514,1
DA:1515,1
DA:1517,1
DA:1518,1
DA:1519,1
DA:1522,1
DA:1523,1
DA:1524,1
DA:1526,1
DA:1527,1
DA:1528,1
DA:1529,1
DA:1530,1
DA:1532,1
DA:1533,1
DA:1534,1
DA:1537,1
DA:1538,1
DA:1539,1
DA:1542,1
DA:1543,1
DA:1546,1
DA:1547,1
DA:1548,1
DA:1549,1
DA:1551,1
DA:1552,1
DA:1553,1
DA:1554,1
DA:1555,1
DA:1558,1
DA:1559,1
DA:1560,1
DA:1561,1
DA:1562,1
DA:1564,1
DA:1567,1
DA:1568,1
DA:1569,1
DA:1572,1
DA:1573,1
DA:1574,1
DA:1577,1
DA:1578,1
DA:1579,1
DA:1582,1
DA:1583,1
DA:1584,1
DA:1587,11
DA:1588,10
DA:1589,10
DA:1590,10
DA:1591,10
DA:1595,1
DA:1597,1
DA:1598,6
DA:1599,5
DA:1600,5
DA:1604,1
DA:1605,1
DA:1606,1
DA:1607,1
DA:1609,1
DA:1610,1
DA:1613,1
DA:1614,1
DA:1615,1
DA:1618,11
DA:1619,10
DA:1620,10
DA:1621,10
DA:1622,10
DA:1626,1
DA:1627,1
DA:1628,1
DA:1629,1
DA:1630,1
DA:1631,1
DA:1634,1
DA:1637,1
DA:1640,1
DA:1641,1
DA:1642,1
DA:1643,1
DA:1645,1
DA:1646,1
DA:1649,1
DA:1650,1
DA:1651,1
DA:1654,11
DA:1655,10
DA:1656,10
DA:1657,10
DA:1658,10
DA:1662,1
DA:1663,1
DA:1666,1
DA:1667,1
DA:1668,1
DA:1671,1
DA:1672,1
DA:1673,1
DA:1676,1
DA:1677,1
DA:1678,1
DA:1679,1
DA:1680,1
DA:1682,1
DA:1683,1
DA:1684,1
DA:1685,1
DA:1686,1
DA:1688,1
DA:1689,1
DA:1690,1
DA:1691,1
DA:1692,1
DA:1693,1
DA:1694,1
DA:1695,1
DA:1698,1
DA:1701,1
DA:1702,1
DA:1703,1
DA:1704,1
DA:1705,1
DA:1708,1
DA:1709,1
DA:1710,1
DA:1713,1
DA:1714,1
DA:1715,1
DA:1716,1
DA:1717,1
DA:1719,1
DA:1720,1
DA:1721,1
DA:1722,1
DA:1723,1
DA:1725,1
DA:1726,1
DA:1727,1
DA:1728,1
DA:1729,1
DA:1732,1
DA:1735,1
DA:1736,1
DA:1737,1
DA:1738,1
DA:1739,1
DA:1742,1
DA:1743,1
DA:1744,1
DA:1747,1
DA:1748,1
DA:1749,1
DA:1750,1
DA:1751,1
DA:1752,1
DA:1753,1
DA:1754,1
DA:1755,1
DA:1756,1
DA:1757,1
DA:1758,1
DA:1759,1
DA:1762,1
DA:1763,1
DA:1766,1
DA:1768,1
DA:1769,1
DA:1772,1
DA:1773,1
DA:1775,0
DA:1779,1
DA:1780,1
DA:1783,1
DA:1784,1
DA:1785,1
DA:1786,1
DA:1787,1
DA:1788,1
DA:1789,1
DA:1790,1
DA:1791,1
DA:1792,1
DA:1795,1
DA:1796,1
DA:1797,1
DA:1800,1
DA:1801,1
DA:1802,1
DA:1803,1
DA:1804,1
DA:1807,1
DA:1808,1
DA:1811,1
DA:1812,1
DA:1815,1
DA:1816,1
DA:1817,1
DA:1818,1
DA:1819,1
DA:1820,1
DA:1821,1
DA:1822,1
DA:1823,1
DA:1824,1
DA:1825,1
DA:1826,1
DA:1829,1
DA:1830,1
DA:1831,1
DA:1834,1
DA:1835,1
DA:1836,1
DA:1837,1
DA:1838,1
DA:1839,1
DA:1840,1
DA:1841,1
DA:1844,1
DA:1845,1
DA:1848,1
DA:1849,1
DA:1850,1
DA:1851,1
DA:1852,1
DA:1853,1
DA:1854,1
DA:1855,1
DA:1856,1
DA:1857,1
DA:1858,1
DA:1859,1
DA:1862,1
DA:1863,1
DA:1864,1
DA:1867,1
DA:1868,1
DA:1871,1
DA:1872,1
DA:1873,1
DA:1874,1
DA:1875,1
DA:1876,1
DA:1877,1
DA:1878,1
DA:1881,1
DA:1882,1
DA:1883,1
DA:1884,1
DA:1885,1
DA:1886,1
DA:1887,1
DA:1888,1
DA:1891,1
DA:1893,1
DA:1894,1
DA:1895,1
DA:1896,1
DA:1897,1
DA:1900,1
DA:1901,1
DA:1902,1
DA:1905,1
DA:1906,1
DA:1909,1
DA:1910,1
DA:1911,1
DA:1912,1
DA:1913,1
DA:1914,1
DA:1915,1
DA:1916,1
DA:1919,1
DA:1921,1
DA:1922,1
DA:1923,1
DA:1924,1
DA:1925,1
DA:1928,1
DA:1929,1
DA:1930,1
DA:1933,1
DA:1935,1
DA:1936,1
DA:1937,1
DA:1938,1
DA:1941,1
DA:1942,1
DA:1943,1
DA:1946,1
DA:1947,1
DA:1948,1
DA:1951,1
DA:1953,1
DA:1954,1
DA:1955,1
DA:1956,1
DA:1959,1
DA:1960,1
DA:1961,1
DA:1964,1
DA:1965,1
DA:1968,1
DA:1969,1
DA:1970,1
DA:1971,1
DA:1973,1
DA:1974,1
DA:1975,1
DA:1976,1
DA:1977,1
DA:1980,1
DA:1981,1
DA:1982,1
DA:1983,1
DA:1984,1
DA:1985,1
DA:1986,1
DA:1989,1
DA:1990,1
DA:1991,1
DA:1992,1
DA:1993,1
DA:1997,1
DA:1999,1
DA:2000,1
DA:2001,1
DA:2002,1
DA:2005,1
DA:2006,1
DA:2007,1
DA:2010,1
DA:2011,1
DA:2014,1
DA:2015,1
DA:2016,1
DA:2017,1
DA:2018,1
DA:2019,1
DA:2020,1
DA:2021,1
DA:2023,1
DA:2024,1
DA:2025,1
DA:2026,1
DA:2027,1
DA:2028,1
DA:2029,1
DA:2030,1
DA:2032,1
DA:2033,1
DA:2034,1
DA:2035,1
DA:2036,1
DA:2037,1
DA:2038,1
DA:2039,1
DA:2042,1
DA:2044,1
DA:2045,1
DA:2046,1
DA:2047,1
DA:2050,1
DA:2051,1
DA:2052,1
DA:2055,1
DA:2056,1
DA:2059,1
DA:2060,1
DA:2061,1
DA:2062,1
DA:2065,1
DA:2067,1
DA:2068,1
DA:2069,1
DA:2074,1
DA:2075,1
DA:2076,1
DA:2077,1
DA:2079,1
DA:2082,1
DA:2083,1
DA:2084,1
DA:2085,1
DA:2086,1
DA:2087,1
DA:2088,1
DA:2089,1
DA:2091,1
DA:2093,1
DA:2094,1
DA:2096,1
DA:2097,1
DA:2098,1
DA:2099,1
DA:2100,1
DA:2101,1
DA:2104,1
DA:2105,1
DA:2106,1
DA:2108,1
DA:2109,1
DA:2110,1
DA:2113,1
DA:2114,1
DA:2115,1
DA:2116,1
DA:2118,1
DA:2121,21
DA:2122,20
DA:2123,20
DA:2124,20
DA:2125,20
DA:2128,1
DA:2129,1
DA:2131,1
DA:2132,1
DA:2133,1
DA:2136,1
DA:2137,1
DA:2138,1
DA:2140,1
DA:2142,1
DA:2143,1
DA:2145,1
DA:2146,1
DA:2147,1
DA:2150,1
DA:2151,1
DA:2152,1
DA:2154,1
DA:2157,1
DA:2158,1
DA:2159,1
DA:2162,1
DA:2163,1
DA:2164,1
DA:2166,1
DA:2167,1
DA:2170,1
DA:2171,1
DA:2172,1
DA:2177,1
DA:2178,1
DA:2179,1
DA:2182,1
DA:2184,1
DA:2187,1
DA:2188,1
DA:2191,1
DA:2194,1
DA:2197,1
DA:2198,1
DA:2201,1
DA:2202,1
DA:2203,1
DA:2206,1
DA:2207,1
DA:2208,1
DA:2210,1
DA:2213,1
DA:2216,1
DA:2219,1
DA:2220,1
DA:2221,1
DA:2222,1
DA:2223,1
DA:2226,1
DA:2227,1
DA:2230,1
DA:2231,1
DA:2232,1
DA:2235,1
DA:2236,1
DA:2237,1
DA:2238,1
DA:2239,1
DA:2241,1
DA:2244,1
DA:2245,1
DA:2248,1
DA:2249,1
DA:2250,1
DA:2253,1
DA:2256,1
DA:2257,1
DA:2260,1
DA:2261,1
DA:2262,1
DA:2265,1
DA:2266,1
DA:2267,1
DA:2268,1
DA:2269,1
DA:2270,1
DA:2271,1
DA:2272,1
DA:2273,1
DA:2274,1
DA:2275,1
DA:2276,1
DA:2277,1
DA:2279,1
DA:2282,1
DA:2285,1
DA:2288,1
DA:2291,1
DA:2292,1
DA:2293,1
DA:2294,1
DA:2295,1
DA:2296,1
DA:2299,1
DA:2300,1
DA:2301,1
DA:2304,1
DA:2305,1
DA:2306,1
DA:2307,1
DA:2308,1
DA:2309,1
DA:2310,1
DA:2311,1
DA:2312,1
DA:2314,1
DA:2317,1
DA:2320,1
DA:2321,1
DA:2322,1
DA:2323,1
DA:2324,1
DA:2327,1
DA:2330,1
DA:2331,1
DA:2334,1
DA:2335,1
DA:2336,1
DA:2345,1
DA:2346,1
DA:2347,1
DA:2348,1
DA:2349,1
DA:2350,1
DA:2351,1
DA:2352,1
DA:2353,1
DA:2354,1
DA:2355,1
DA:2356,1
DA:2357,1
DA:2358,1
DA:2359,1
DA:2360,1
DA:2361,1
DA:2364,1
DA:2367,1
DA:2370,1
DA:2371,1
DA:2372,1
DA:2375,1
DA:2376,1
DA:2379,1
DA:2382,1
DA:2383,1
DA:2384,1
DA:2385,1
DA:2386,1
DA:2387,1
DA:2388,1
DA:2391,1
DA:2392,1
DA:2393,1
DA:2396,1
DA:2399,1
DA:2400,1
DA:2401,1
DA:2402,1
DA:2403,1
DA:2404,1
DA:2405,1
DA:2406,1
DA:2408,1
DA:2409,1
DA:2410,1
DA:2411,1
DA:2412,1
DA:2413,1
DA:2414,1
DA:2415,1
DA:2417,1
DA:2418,1
DA:2419,1
DA:2420,1
DA:2421,1
DA:2422,1
DA:2423,1
DA:2424,1
DA:2426,1
DA:2429,1
DA:2430,1
DA:2431,1
DA:2432,1
DA:2433,1
DA:2436,1
DA:2437,1
DA:2438,1
DA:2440,1
DA:2441,1
DA:2442,1
DA:2443,1
DA:2446,1
DA:2447,1
DA:2448,1
DA:2451,1
DA:2452,1
DA:2453,1
DA:2454,1
DA:2455,1
DA:2457,1
DA:2460,1
DA:2461,1
DA:2462,1
DA:2463,1
DA:2464,1
DA:2466,1
DA:2469,1
DA:2471,1
DA:2472,1
DA:2474,1
DA:2475,1
DA:2476,1
DA:2479,1
DA:2480,1
DA:2481,1
DA:2484,1
DA:2485,1
DA:2486,1
DA:2487,1
DA:2488,1
DA:2489,1
DA:2490,1
DA:2491,1
DA:2493,1
DA:2494,1
DA:2495,1
DA:2496,1
DA:2497,1
DA:2499,1
DA:2500,1
DA:2501,1
DA:2502,1
DA:2503,1
DA:2505,1
DA:2506,1
DA:2507,1
DA:2508,1
DA:2509,1
DA:2512,1
DA:2514,1
DA:2515,1
DA:2516,1
DA:2517,1
DA:2518,1
DA:2519,1
DA:2522,1
DA:2523,1
DA:2524,1
DA:2525,1
DA:2528,1
DA:2529,1
DA:2530,1
DA:2531,1
DA:2532,1
DA:2533,1
DA:2536,1
DA:2537,1
DA:2538,1
DA:2539,1
DA:2540,1
DA:2542,1
DA:2544,1
DA:2545,1
DA:2546,1
DA:2547,1
DA:2550,1
DA:2552,1
DA:2553,1
DA:2554,1
DA:2555,1
DA:2556,1
DA:2557,1
DA:2558,1
DA:2559,1
DA:2560,1
DA:2561,1
DA:2564,1
DA:2565,1
DA:2566,1
DA:2567,1
DA:2570,1
DA:2571,1
DA:2572,1
DA:2575,1
DA:2576,1
DA:2579,1
DA:2580,1
DA:2581,1
DA:2584,1
DA:2585,1
DA:2588,1
DA:2589,1
DA:2591,0
DA:2595,1
DA:2596,1
DA:2597,1
DA:2598,1
DA:2599,1
DA:2600,1
DA:2601,1
DA:2603,1
DA:2604,1
DA:2605,1
DA:2606,1
BRF:0
BRH:0
LF:1953
LH:1849
end_of_record
SF:/mnt/d/prj/intent-engine/src/test_utils.rs
FN:13,_RNCNvMNtNtCs86Lp2I5pN1o_13intent_engine10test_utils12test_helpersNtB4_11TestContext3new0B8_
FN:35,_RNvMNtNtCs86Lp2I5pN1o_13intent_engine10test_utils12test_helpersNtB2_11TestContext12project_root
FN:13,_RNvMNtNtCs86Lp2I5pN1o_13intent_engine10test_utils12test_helpersNtB2_11TestContext3new
FN:31,_RNvMNtNtCs86Lp2I5pN1o_13intent_engine10test_utils12test_helpersNtB2_11TestContext4pool
FNDA:147,_RNCNvMNtNtCs86Lp2I5pN1o_13intent_engine10test_utils12test_helpersNtB4_11TestContext3new0B8_
FNDA:30,_RNvMNtNtCs86Lp2I5pN1o_13intent_engine10test_utils12test_helpersNtB2_11TestContext12project_root
FNDA:147,_RNvMNtNtCs86Lp2I5pN1o_13intent_engine10test_utils12test_helpersNtB2_11TestContext3new
FNDA:183,_RNvMNtNtCs86Lp2I5pN1o_13intent_engine10test_utils12test_helpersNtB2_11TestContext4pool
FNF:4
FNH:4
DA:13,147
DA:14,147
DA:17,147
DA:18,147
DA:20,147
DA:22,147
DA:23,147
DA:25,147
DA:26,147
DA:27,147
DA:28,147
DA:29,147
DA:31,183
DA:32,183
DA:33,183
DA:35,30
DA:36,30
DA:37,30
BRF:0
BRH:0
LF:19
LH:19
end_of_record
SF:/mnt/d/prj/intent-engine/src/time_utils.rs
FN:36,_RNvNtCsjp9E11WtBq9_13intent_engine10time_utils14parse_duration
FN:46,_RNCNvNtCsjp9E11WtBq9_13intent_engine10time_utils14parse_duration0B5_
FN:36,_RNvNtCs86Lp2I5pN1o_13intent_engine10time_utils14parse_duration
FN:46,_RNCNvNtCs86Lp2I5pN1o_13intent_engine10time_utils14parse_duration0B5_
FN:72,_RNvNtNtCs86Lp2I5pN1o_13intent_engine10time_utils5testss_24test_parse_duration_days
FN:149,_RNvNtNtCs86Lp2I5pN1o_13intent_engine10time_utils5testss_25test_parse_duration_empty
FN:82,_RNvNtNtCs86Lp2I5pN1o_13intent_engine10time_utils5testss_25test_parse_duration_hours
FN:109,_RNvNtNtCs86Lp2I5pN1o_13intent_engine10time_utils5testss_25test_parse_duration_weeks
FN:91,_RNvNtNtCs86Lp2I5pN1o_13intent_engine10time_utils5testss_27test_parse_duration_minutes
FN:100,_RNvNtNtCs86Lp2I5pN1o_13intent_engine10time_utils5testss_27test_parse_duration_seconds
FN:143,_RNvNtNtCs86Lp2I5pN1o_13intent_engine10time_utils5testss_29test_parse_duration_too_short
FN:133,_RNvNtNtCs86Lp2I5pN1o_13intent_engine10time_utils5testss_32test_parse_duration_invalid_unit
FN:127,_RNvNtNtCs86Lp2I5pN1o_13intent_engine10time_utils5testss_34test_parse_duration_invalid_number
FN:118,_RNvNtNtCs86Lp2I5pN1o_13intent_engine10time_utils5testss_35test_parse_duration_with_whitespace
FNDA:0,_RNvNtCsjp9E11WtBq9_13intent_engine10time_utils14parse_duration
FNDA:0,_RNCNvNtCsjp9E11WtBq9_13intent_engine10time_utils14parse_duration0B5_
FNDA:18,_RNvNtCs86Lp2I5pN1o_13intent_engine10time_utils14parse_duration
FNDA:2,_RNCNvNtCs86Lp2I5pN1o_13intent_engine10time_utils14parse_duration0B5_
FNDA:1,_RNvNtNtCs86Lp2I5pN1o_13intent_engine10time_utils5testss_24test_parse_duration_days
FNDA:1,_RNvNtNtCs86Lp2I5pN1o_13intent_engine10time_utils5testss_25test_parse_duration_empty
FNDA:1,_RNvNtNtCs86Lp2I5pN1o_13intent_engine10time_utils5testss_25test_parse_duration_hours
FNDA:1,_RNvNtNtCs86Lp2I5pN1o_13intent_engine10time_utils5testss_25test_parse_duration_weeks
FNDA:1,_RNvNtNtCs86Lp2I5pN1o_13intent_engine10time_utils5testss_27test_parse_duration_minutes
FNDA:1,_RNvNtNtCs86Lp2I5pN1o_13intent_engine10time_utils5testss_27test_parse_duration_seconds
FNDA:1,_RNvNtNtCs86Lp2I5pN1o_13intent_engine10time_utils5testss_29test_parse_duration_too_short
FNDA:1,_RNvNtNtCs86Lp2I5pN1o_13intent_engine10time_utils5testss_32test_parse_duration_invalid_unit
FNDA:1,_RNvNtNtCs86Lp2I5pN1o_13intent_engine10time_utils5testss_34test_parse_duration_invalid_number
FNDA:1,_RNvNtNtCs86Lp2I5pN1o_13intent_engine10time_utils5testss_35test_parse_duration_with_whitespace
FNF:12
FNH:12
DA:36,18
DA:37,18
DA:39,18
DA:40,2
DA:41,2
DA:42,2
DA:43,16
DA:45,16
DA:46,16
DA:47,2
DA:48,2
DA:50,14
DA:51,14
DA:52,8
DA:53,4
DA:54,3
DA:55,2
DA:57,1
DA:58,1
DA:59,1
DA:60,1
DA:64,13
DA:65,18
DA:72,1
DA:73,1
DA:74,1
DA:75,1
DA:78,1
DA:79,1
DA:82,1
DA:83,1
DA:84,1
DA:85,1
DA:87,1
DA:88,1
DA:91,1
DA:92,1
DA:93,1
DA:94,1
DA:96,1
DA:97,1
DA:100,1
DA:101,1
DA:102,1
DA:103,1
DA:105,1
DA:106,1
DA:109,1
DA:110,1
DA:111,1
DA:112,1
DA:114,1
DA:115,1
DA:118,1
DA:119,1
DA:120,1
DA:121,1
DA:123,1
DA:124,1
DA:127,1
DA:128,1
DA:129,1
DA:130,1
DA:133,1
DA:134,1
DA:135,1
DA:137,1
DA:138,1
DA:139,0
DA:140,1
DA:143,1
DA:144,1
DA:145,1
DA:146,1
DA:149,1
DA:150,1
DA:151,1
DA:152,1
BRF:0
BRH:0
LF:80
LH:79
end_of_record
SF:/mnt/d/prj/intent-engine/src/windows_console.rs
FN:180,_RNvNtCsjp9E11WtBq9_13intent_engine15windows_console14code_page_name
FN:100,_RNvNtCsjp9E11WtBq9_13intent_engine15windows_console15is_console_utf8
FN:146,_RNvNtCsjp9E11WtBq9_13intent_engine15windows_console21get_console_code_page
FN:125,_RNvNtCsjp9E11WtBq9_13intent_engine15windows_console21is_console_input_utf8
FN:75,_RNvNtCsjp9E11WtBq9_13intent_engine15windows_console21setup_windows_console
FN:167,_RNvNtCsjp9E11WtBq9_13intent_engine15windows_console27get_console_input_code_page
FN:125,_RNvNtCs86Lp2I5pN1o_13intent_engine15windows_console21is_console_input_utf8
FN:167,_RNvNtCs86Lp2I5pN1o_13intent_engine15windows_console27get_console_input_code_page
FN:231,_RNvNtNtCs86Lp2I5pN1o_13intent_engine15windows_console5testss_18test_get_code_page
FN:198,_RNvNtNtCs86Lp2I5pN1o_13intent_engine15windows_console5testss_18test_setup_console
FN:223,_RNvNtNtCs86Lp2I5pN1o_13intent_engine15windows_console5testss_20test_code_page_names
FN:205,_RNvNtNtCs86Lp2I5pN1o_13intent_engine15windows_console5testss_20test_is_console_utf8
FN:180,_RNvNtCs86Lp2I5pN1o_13intent_engine15windows_console14code_page_name
FN:100,_RNvNtCs86Lp2I5pN1o_13intent_engine15windows_console15is_console_utf8
FN:146,_RNvNtCs86Lp2I5pN1o_13intent_engine15windows_console21get_console_code_page
FN:75,_RNvNtCs86Lp2I5pN1o_13intent_engine15windows_console21setup_windows_console
FNDA:0,_RNvNtCsjp9E11WtBq9_13intent_engine15windows_console14code_page_name
FNDA:0,_RNvNtCsjp9E11WtBq9_13intent_engine15windows_console15is_console_utf8
FNDA:0,_RNvNtCsjp9E11WtBq9_13intent_engine15windows_console21get_console_code_page
FNDA:0,_RNvNtCsjp9E11WtBq9_13intent_engine15windows_console21is_console_input_utf8
FNDA:0,_RNvNtCsjp9E11WtBq9_13intent_engine15windows_console21setup_windows_console
FNDA:0,_RNvNtCsjp9E11WtBq9_13intent_engine15windows_console27get_console_input_code_page
FNDA:0,_RNvNtCs86Lp2I5pN1o_13intent_engine15windows_console21is_console_input_utf8
FNDA:0,_RNvNtCs86Lp2I5pN1o_13intent_engine15windows_console27get_console_input_code_page
FNDA:1,_RNvNtNtCs86Lp2I5pN1o_13intent_engine15windows_console5testss_18test_get_code_page
FNDA:1,_RNvNtNtCs86Lp2I5pN1o_13intent_engine15windows_console5testss_18test_setup_console
FNDA:1,_RNvNtNtCs86Lp2I5pN1o_13intent_engine15windows_console5testss_20test_code_page_names
FNDA:1,_RNvNtNtCs86Lp2I5pN1o_13intent_engine15windows_console5testss_20test_is_console_utf8
FNDA:4,_RNvNtCs86Lp2I5pN1o_13intent_engine15windows_console14code_page_name
FNDA:1,_RNvNtCs86Lp2I5pN1o_13intent_engine15windows_console15is_console_utf8
FNDA:1,_RNvNtCs86Lp2I5pN1o_13intent_engine15windows_console21get_console_code_page
FNDA:2,_RNvNtCs86Lp2I5pN1o_13intent_engine15windows_console21setup_windows_console
FNF:10
FNH:8
DA:75,2
DA:76,2
DA:77,2
DA:100,1
DA:101,1
DA:102,1
DA:125,0
DA:126,0
DA:127,0
DA:146,1
DA:147,1
DA:148,1
DA:167,0
DA:168,0
DA:169,0
DA:180,4
DA:181,4
DA:182,1
DA:183,1
DA:184,1
DA:185,0
DA:186,0
DA:187,0
DA:188,0
DA:189,1
DA:191,4
DA:198,1
DA:200,1
DA:201,1
DA:202,1
DA:205,1
DA:207,1
DA:218,1
DA:220,1
DA:223,1
DA:224,1
DA:225,1
DA:226,1
DA:227,1
DA:228,1
DA:231,1
DA:232,1
DA:244,1
DA:246,1
BRF:0
BRH:0
LF:44
LH:34
end_of_record
SF:/mnt/d/prj/intent-engine/src/workspace.rs
FN:29,_RNCNCNvMNtCsjp9E11WtBq9_13intent_engine9workspaceNtB6_16WorkspaceManager16get_current_task00B8_
FN:23,_RNCNvMNtCsjp9E11WtBq9_13intent_engine9workspaceNtB4_16WorkspaceManager16get_current_task0B6_
FN:53,_RNCNvMNtCsjp9E11WtBq9_13intent_engine9workspaceNtB4_16WorkspaceManager16set_current_task0B6_
FN:23,_RNvMNtCsjp9E11WtBq9_13intent_engine9workspaceNtB2_16WorkspaceManager16get_current_task
FN:53,_RNvMNtCsjp9E11WtBq9_13intent_engine9workspaceNtB2_16WorkspaceManager16set_current_task
FN:18,_RNvMNtCsjp9E11WtBq9_13intent_engine9workspaceNtB2_16WorkspaceManager3new
FN:23,_RNvMNtCs86Lp2I5pN1o_13intent_engine9workspaceNtB2_16WorkspaceManager16get_current_task
FN:53,_RNvMNtCs86Lp2I5pN1o_13intent_engine9workspaceNtB2_16WorkspaceManager16set_current_task
FN:18,_RNvMNtCs86Lp2I5pN1o_13intent_engine9workspaceNtB2_16WorkspaceManager3new
FN:97,_RNvNtNtCs86Lp2I5pN1o_13intent_engine9workspace5testss_21test_set_current_task
FN:121,_RNvNtNtCs86Lp2I5pN1o_13intent_engine9workspace5testss_24test_update_current_task
FN:86,_RNvNtNtCs86Lp2I5pN1o_13intent_engine9workspace5testss_26test_get_current_task_none
FN:140,_RNvNtNtCs86Lp2I5pN1o_13intent_engine9workspace5testss_31test_get_current_task_after_set
FN:112,_RNvNtNtCs86Lp2I5pN1o_13intent_engine9workspace5testss_33test_set_current_task_nonexistent
FN:244,_RNvNtNtCs86Lp2I5pN1o_13intent_engine9workspace5testss_33test_set_same_task_multiple_times
FN:260,_RNvNtNtCs86Lp2I5pN1o_13intent_engine9workspace5testss_38test_workspace_state_insert_or_replace
FN:204,_RNvNtNtCs86Lp2I5pN1o_13intent_engine9workspace5testss_39test_get_current_task_with_deleted_task
FN:155,_RNvNtNtCs86Lp2I5pN1o_13intent_engine9workspace5testss_40test_current_task_response_serialization
FN:283,_RNvNtNtCs86Lp2I5pN1o_13intent_engine9workspace5testss_41test_get_current_task_with_changed_status
FN:184,_RNvNtNtCs86Lp2I5pN1o_13intent_engine9workspace5testss_43test_get_current_task_with_invalid_id_in_db
FN:223,_RNvNtNtCs86Lp2I5pN1o_13intent_engine9workspace5testss_43test_set_current_task_returns_complete_task
FN:170,_RNvNtNtCs86Lp2I5pN1o_13intent_engine9workspace5testss_45test_current_task_response_none_serialization
FN:97,_RNCNvNtNtCs86Lp2I5pN1o_13intent_engine9workspace5testss_21test_set_current_task0B7_
FN:121,_RNCNvNtNtCs86Lp2I5pN1o_13intent_engine9workspace5testss_24test_update_current_task0B7_
FN:86,_RNCNvNtNtCs86Lp2I5pN1o_13intent_engine9workspace5testss_26test_get_current_task_none0B7_
FN:140,_RNCNvNtNtCs86Lp2I5pN1o_13intent_engine9workspace5testss_31test_get_current_task_after_set0B7_
FN:112,_RNCNvNtNtCs86Lp2I5pN1o_13intent_engine9workspace5testss_33test_set_current_task_nonexistent0B7_
FN:244,_RNCNvNtNtCs86Lp2I5pN1o_13intent_engine9workspace5testss_33test_set_same_task_multiple_times0B7_
FN:260,_RNCNvNtNtCs86Lp2I5pN1o_13intent_engine9workspace5testss_38test_workspace_state_insert_or_replace0B7_
FN:204,_RNCNvNtNtCs86Lp2I5pN1o_13intent_engine9workspace5testss_39test_get_current_task_with_deleted_task0B7_
FN:155,_RNCNvNtNtCs86Lp2I5pN1o_13intent_engine9workspace5testss_40test_current_task_response_serialization0B7_
FN:283,_RNCNvNtNtCs86Lp2I5pN1o_13intent_engine9workspace5testss_41test_get_current_task_with_changed_status0B7_
FN:184,_RNCNvNtNtCs86Lp2I5pN1o_13intent_engine9workspace5testss_43test_get_current_task_with_invalid_id_in_db0B7_
FN:223,_RNCNvNtNtCs86Lp2I5pN1o_13intent_engine9workspace5testss_43test_set_current_task_returns_complete_task0B7_
FN:170,_RNCNvNtNtCs86Lp2I5pN1o_13intent_engine9workspace5testss_45test_current_task_response_none_serialization0B7_
FN:29,_RNCNCNvMNtCs86Lp2I5pN1o_13intent_engine9workspaceNtB6_16WorkspaceManager16get_current_task00B8_
FN:23,_RNCNvMNtCs86Lp2I5pN1o_13intent_engine9workspaceNtB4_16WorkspaceManager16get_current_task0B6_
FN:53,_RNCNvMNtCs86Lp2I5pN1o_13intent_engine9workspaceNtB4_16WorkspaceManager16set_current_task0B6_
FNDA:0,_RNCNCNvMNtCsjp9E11WtBq9_13intent_engine9workspaceNtB6_16WorkspaceManager16get_current_task00B8_
FNDA:0,_RNCNvMNtCsjp9E11WtBq9_13intent_engine9workspaceNtB4_16WorkspaceManager16get_current_task0B6_
FNDA:0,_RNCNvMNtCsjp9E11WtBq9_13intent_engine9workspaceNtB4_16WorkspaceManager16set_current_task0B6_
FNDA:0,_RNvMNtCsjp9E11WtBq9_13intent_engine9workspaceNtB2_16WorkspaceManager16get_current_task
FNDA:0,_RNvMNtCsjp9E11WtBq9_13intent_engine9workspaceNtB2_16WorkspaceManager16set_current_task
FNDA:0,_RNvMNtCsjp9E11WtBq9_13intent_engine9workspaceNtB2_16WorkspaceManager3new
FNDA:37,_RNvMNtCs86Lp2I5pN1o_13intent_engine9workspaceNtB2_16WorkspaceManager16get_current_task
FNDA:22,_RNvMNtCs86Lp2I5pN1o_13intent_engine9workspaceNtB2_16WorkspaceManager16set_current_task
FNDA:29,_RNvMNtCs86Lp2I5pN1o_13intent_engine9workspaceNtB2_16WorkspaceManager3new
FNDA:1,_RNvNtNtCs86Lp2I5pN1o_13intent_engine9workspace5testss_21test_set_current_task
FNDA:1,_RNvNtNtCs86Lp2I5pN1o_13intent_engine9workspace5testss_24test_update_current_task
FNDA:1,_RNvNtNtCs86Lp2I5pN1o_13intent_engine9workspace5testss_26test_get_current_task_none
FNDA:1,_RNvNtNtCs86Lp2I5pN1o_13intent_engine9workspace5testss_31test_get_current_task_after_set
FNDA:1,_RNvNtNtCs86Lp2I5pN1o_13intent_engine9workspace5testss_33test_set_current_task_nonexistent
FNDA:1,_RNvNtNtCs86Lp2I5pN1o_13intent_engine9workspace5testss_33test_set_same_task_multiple_times
FNDA:1,_RNvNtNtCs86Lp2I5pN1o_13intent_engine9workspace5testss_38test_workspace_state_insert_or_replace
FNDA:1,_RNvNtNtCs86Lp2I5pN1o_13intent_engine9workspace5testss_39test_get_current_task_with_deleted_task
FNDA:1,_RNvNtNtCs86Lp2I5pN1o_13intent_engine9workspace5testss_40test_current_task_response_serialization
FNDA:1,_RNvNtNtCs86Lp2I5pN1o_13intent_engine9workspace5testss_41test_get_current_task_with_changed_status
FNDA:1,_RNvNtNtCs86Lp2I5pN1o_13intent_engine9workspace5testss_43test_get_current_task_with_invalid_id_in_db
FNDA:1,_RNvNtNtCs86Lp2I5pN1o_13intent_engine9workspace5testss_43test_set_current_task_returns_complete_task
FNDA:1,_RNvNtNtCs86Lp2I5pN1o_13intent_engine9workspace5testss_45test_current_task_response_none_serialization
FNDA:1,_RNCNvNtNtCs86Lp2I5pN1o_13intent_engine9workspace5testss_21test_set_current_task0B7_
FNDA:1,_RNCNvNtNtCs86Lp2I5pN1o_13intent_engine9workspace5testss_24test_update_current_task0B7_
FNDA:1,_RNCNvNtNtCs86Lp2I5pN1o_13intent_engine9workspace5testss_26test_get_current_task_none0B7_
